ARM GAS  C:\Users\purdu\AppData\Local\Temp\ccYBYMxG.s 			page 1


   1              		.cpu cortex-m4
   2              		.arch armv7e-m
   3              		.fpu fpv4-sp-d16
   4              		.eabi_attribute 27, 1
   5              		.eabi_attribute 28, 1
   6              		.eabi_attribute 20, 1
   7              		.eabi_attribute 21, 1
   8              		.eabi_attribute 23, 3
   9              		.eabi_attribute 24, 1
  10              		.eabi_attribute 25, 1
  11              		.eabi_attribute 26, 1
  12              		.eabi_attribute 30, 1
  13              		.eabi_attribute 34, 1
  14              		.eabi_attribute 18, 4
  15              		.file	"admm.cpp"
  16              		.text
  17              	.Ltext0:
  18              		.cfi_sections	.debug_frame
  19              		.file 1 "thirdparty/tinympc/admm.cpp"
  20              		.section	.text._ZN5Eigen10MatrixBaseINS_5BlockINS_6MatrixIdLi4ELi9ELi0ELi4ELi9EEELi4ELi1ELb1EEEE7n
  21              		.align	1
  22              		.weak	_ZN5Eigen10MatrixBaseINS_5BlockINS_6MatrixIdLi4ELi9ELi0ELi4ELi9EEELi4ELi1ELb1EEEE7noaliasEv
  23              		.syntax unified
  24              		.thumb
  25              		.thumb_func
  27              	_ZN5Eigen10MatrixBaseINS_5BlockINS_6MatrixIdLi4ELi9ELi0ELi4ELi9EEELi4ELi1ELb1EEEE7noaliasEv:
  28              		.fnstart
  29              	.LVL0:
  30              	.LFB8063:
  31              		.file 2 "./Eigen/src/Core/NoAlias.h"
   1:./Eigen/src/Core/NoAlias.h **** // This file is part of Eigen, a lightweight C++ template library
   2:./Eigen/src/Core/NoAlias.h **** // for linear algebra.
   3:./Eigen/src/Core/NoAlias.h **** //
   4:./Eigen/src/Core/NoAlias.h **** // Copyright (C) 2009 Gael Guennebaud <gael.guennebaud@inria.fr>
   5:./Eigen/src/Core/NoAlias.h **** //
   6:./Eigen/src/Core/NoAlias.h **** // This Source Code Form is subject to the terms of the Mozilla
   7:./Eigen/src/Core/NoAlias.h **** // Public License v. 2.0. If a copy of the MPL was not distributed
   8:./Eigen/src/Core/NoAlias.h **** // with this file, You can obtain one at http://mozilla.org/MPL/2.0/.
   9:./Eigen/src/Core/NoAlias.h **** 
  10:./Eigen/src/Core/NoAlias.h **** #ifndef EIGEN_NOALIAS_H
  11:./Eigen/src/Core/NoAlias.h **** #define EIGEN_NOALIAS_H
  12:./Eigen/src/Core/NoAlias.h **** 
  13:./Eigen/src/Core/NoAlias.h **** namespace Eigen {
  14:./Eigen/src/Core/NoAlias.h **** 
  15:./Eigen/src/Core/NoAlias.h **** /** \class NoAlias
  16:./Eigen/src/Core/NoAlias.h ****   * \ingroup Core_Module
  17:./Eigen/src/Core/NoAlias.h ****   *
  18:./Eigen/src/Core/NoAlias.h ****   * \brief Pseudo expression providing an operator = assuming no aliasing
  19:./Eigen/src/Core/NoAlias.h ****   *
  20:./Eigen/src/Core/NoAlias.h ****   * \tparam ExpressionType the type of the object on which to do the lazy assignment
  21:./Eigen/src/Core/NoAlias.h ****   *
  22:./Eigen/src/Core/NoAlias.h ****   * This class represents an expression with special assignment operators
  23:./Eigen/src/Core/NoAlias.h ****   * assuming no aliasing between the target expression and the source expression.
  24:./Eigen/src/Core/NoAlias.h ****   * More precisely it alloas to bypass the EvalBeforeAssignBit flag of the source expression.
  25:./Eigen/src/Core/NoAlias.h ****   * It is the return type of MatrixBase::noalias()
  26:./Eigen/src/Core/NoAlias.h ****   * and most of the time this is the only way it is used.
  27:./Eigen/src/Core/NoAlias.h ****   *
ARM GAS  C:\Users\purdu\AppData\Local\Temp\ccYBYMxG.s 			page 2


  28:./Eigen/src/Core/NoAlias.h ****   * \sa MatrixBase::noalias()
  29:./Eigen/src/Core/NoAlias.h ****   */
  30:./Eigen/src/Core/NoAlias.h **** template<typename ExpressionType, template <typename> class StorageBase>
  31:./Eigen/src/Core/NoAlias.h **** class NoAlias
  32:./Eigen/src/Core/NoAlias.h **** {
  33:./Eigen/src/Core/NoAlias.h ****   public:
  34:./Eigen/src/Core/NoAlias.h ****     typedef typename ExpressionType::Scalar Scalar;
  35:./Eigen/src/Core/NoAlias.h ****     
  36:./Eigen/src/Core/NoAlias.h ****     EIGEN_DEVICE_FUNC
  37:./Eigen/src/Core/NoAlias.h ****     explicit NoAlias(ExpressionType& expression) : m_expression(expression) {}
  38:./Eigen/src/Core/NoAlias.h ****     
  39:./Eigen/src/Core/NoAlias.h ****     template<typename OtherDerived>
  40:./Eigen/src/Core/NoAlias.h ****     EIGEN_DEVICE_FUNC
  41:./Eigen/src/Core/NoAlias.h ****     EIGEN_STRONG_INLINE ExpressionType& operator=(const StorageBase<OtherDerived>& other)
  42:./Eigen/src/Core/NoAlias.h ****     {
  43:./Eigen/src/Core/NoAlias.h ****       call_assignment_no_alias(m_expression, other.derived(), internal::assign_op<Scalar,typename O
  44:./Eigen/src/Core/NoAlias.h ****       return m_expression;
  45:./Eigen/src/Core/NoAlias.h ****     }
  46:./Eigen/src/Core/NoAlias.h ****     
  47:./Eigen/src/Core/NoAlias.h ****     template<typename OtherDerived>
  48:./Eigen/src/Core/NoAlias.h ****     EIGEN_DEVICE_FUNC
  49:./Eigen/src/Core/NoAlias.h ****     EIGEN_STRONG_INLINE ExpressionType& operator+=(const StorageBase<OtherDerived>& other)
  50:./Eigen/src/Core/NoAlias.h ****     {
  51:./Eigen/src/Core/NoAlias.h ****       call_assignment_no_alias(m_expression, other.derived(), internal::add_assign_op<Scalar,typena
  52:./Eigen/src/Core/NoAlias.h ****       return m_expression;
  53:./Eigen/src/Core/NoAlias.h ****     }
  54:./Eigen/src/Core/NoAlias.h ****     
  55:./Eigen/src/Core/NoAlias.h ****     template<typename OtherDerived>
  56:./Eigen/src/Core/NoAlias.h ****     EIGEN_DEVICE_FUNC
  57:./Eigen/src/Core/NoAlias.h ****     EIGEN_STRONG_INLINE ExpressionType& operator-=(const StorageBase<OtherDerived>& other)
  58:./Eigen/src/Core/NoAlias.h ****     {
  59:./Eigen/src/Core/NoAlias.h ****       call_assignment_no_alias(m_expression, other.derived(), internal::sub_assign_op<Scalar,typena
  60:./Eigen/src/Core/NoAlias.h ****       return m_expression;
  61:./Eigen/src/Core/NoAlias.h ****     }
  62:./Eigen/src/Core/NoAlias.h **** 
  63:./Eigen/src/Core/NoAlias.h ****     EIGEN_DEVICE_FUNC
  64:./Eigen/src/Core/NoAlias.h ****     ExpressionType& expression() const
  65:./Eigen/src/Core/NoAlias.h ****     {
  66:./Eigen/src/Core/NoAlias.h ****       return m_expression;
  67:./Eigen/src/Core/NoAlias.h ****     }
  68:./Eigen/src/Core/NoAlias.h **** 
  69:./Eigen/src/Core/NoAlias.h ****   protected:
  70:./Eigen/src/Core/NoAlias.h ****     ExpressionType& m_expression;
  71:./Eigen/src/Core/NoAlias.h **** };
  72:./Eigen/src/Core/NoAlias.h **** 
  73:./Eigen/src/Core/NoAlias.h **** /** \returns a pseudo expression of \c *this with an operator= assuming
  74:./Eigen/src/Core/NoAlias.h ****   * no aliasing between \c *this and the source expression.
  75:./Eigen/src/Core/NoAlias.h ****   *
  76:./Eigen/src/Core/NoAlias.h ****   * More precisely, noalias() allows to bypass the EvalBeforeAssignBit flag.
  77:./Eigen/src/Core/NoAlias.h ****   * Currently, even though several expressions may alias, only product
  78:./Eigen/src/Core/NoAlias.h ****   * expressions have this flag. Therefore, noalias() is only useful when
  79:./Eigen/src/Core/NoAlias.h ****   * the source expression contains a matrix product.
  80:./Eigen/src/Core/NoAlias.h ****   *
  81:./Eigen/src/Core/NoAlias.h ****   * Here are some examples where noalias is useful:
  82:./Eigen/src/Core/NoAlias.h ****   * \code
  83:./Eigen/src/Core/NoAlias.h ****   * D.noalias()  = A * B;
  84:./Eigen/src/Core/NoAlias.h ****   * D.noalias() += A.transpose() * B;
ARM GAS  C:\Users\purdu\AppData\Local\Temp\ccYBYMxG.s 			page 3


  85:./Eigen/src/Core/NoAlias.h ****   * D.noalias() -= 2 * A * B.adjoint();
  86:./Eigen/src/Core/NoAlias.h ****   * \endcode
  87:./Eigen/src/Core/NoAlias.h ****   *
  88:./Eigen/src/Core/NoAlias.h ****   * On the other hand the following example will lead to a \b wrong result:
  89:./Eigen/src/Core/NoAlias.h ****   * \code
  90:./Eigen/src/Core/NoAlias.h ****   * A.noalias() = A * B;
  91:./Eigen/src/Core/NoAlias.h ****   * \endcode
  92:./Eigen/src/Core/NoAlias.h ****   * because the result matrix A is also an operand of the matrix product. Therefore,
  93:./Eigen/src/Core/NoAlias.h ****   * there is no alternative than evaluating A * B in a temporary, that is the default
  94:./Eigen/src/Core/NoAlias.h ****   * behavior when you write:
  95:./Eigen/src/Core/NoAlias.h ****   * \code
  96:./Eigen/src/Core/NoAlias.h ****   * A = A * B;
  97:./Eigen/src/Core/NoAlias.h ****   * \endcode
  98:./Eigen/src/Core/NoAlias.h ****   *
  99:./Eigen/src/Core/NoAlias.h ****   * \sa class NoAlias
 100:./Eigen/src/Core/NoAlias.h ****   */
 101:./Eigen/src/Core/NoAlias.h **** template<typename Derived>
 102:./Eigen/src/Core/NoAlias.h **** NoAlias<Derived,MatrixBase> EIGEN_DEVICE_FUNC MatrixBase<Derived>::noalias()
  32              		.loc 2 102 47 view -0
  33              		.cfi_startproc
  34              		@ args = 0, pretend = 0, frame = 0
  35              		@ frame_needed = 0, uses_anonymous_args = 0
  36              		@ link register save eliminated.
  37              	.LBB27443:
  38              	.LBI27443:
  37:./Eigen/src/Core/NoAlias.h ****     
  39              		.loc 2 37 14 view .LVU1
  37:./Eigen/src/Core/NoAlias.h ****     
  40              		.loc 2 37 14 is_stmt 0 view .LVU2
  41              	.LBE27443:
 103:./Eigen/src/Core/NoAlias.h **** {
 104:./Eigen/src/Core/NoAlias.h ****   return NoAlias<Derived, Eigen::MatrixBase >(derived());
 105:./Eigen/src/Core/NoAlias.h **** }
  42              		.loc 2 105 1 view .LVU3
  43 0000 7047     		bx	lr
  44              		.cfi_endproc
  45              	.LFE8063:
  46              		.cantunwind
  47              		.fnend
  49              		.section	.text._ZN5Eigen10MatrixBaseINS_5BlockINS_6MatrixIdLi12ELi10ELi0ELi12ELi10EEELi12ELi1ELb1E
  50              		.align	1
  51              		.weak	_ZN5Eigen10MatrixBaseINS_5BlockINS_6MatrixIdLi12ELi10ELi0ELi12ELi10EEELi12ELi1ELb1EEEE7noali
  52              		.syntax unified
  53              		.thumb
  54              		.thumb_func
  56              	_ZN5Eigen10MatrixBaseINS_5BlockINS_6MatrixIdLi12ELi10ELi0ELi12ELi10EEELi12ELi1ELb1EEEE7noaliasEv:
  57              		.fnstart
  58              	.LVL1:
  59              	.LFB8070:
 102:./Eigen/src/Core/NoAlias.h **** {
  60              		.loc 2 102 47 is_stmt 1 view -0
  61              		.cfi_startproc
  62              		@ args = 0, pretend = 0, frame = 0
  63              		@ frame_needed = 0, uses_anonymous_args = 0
  64              		@ link register save eliminated.
  65              	.LBB27444:
  66              	.LBI27444:
ARM GAS  C:\Users\purdu\AppData\Local\Temp\ccYBYMxG.s 			page 4


  37:./Eigen/src/Core/NoAlias.h ****     
  67              		.loc 2 37 14 view .LVU5
  37:./Eigen/src/Core/NoAlias.h ****     
  68              		.loc 2 37 14 is_stmt 0 view .LVU6
  69              	.LBE27444:
  70              		.loc 2 105 1 view .LVU7
  71 0000 7047     		bx	lr
  72              		.cfi_endproc
  73              	.LFE8070:
  74              		.cantunwind
  75              		.fnend
  77              		.section	.text._ZN5Eigen10MatrixBaseINS_6MatrixIdLi4ELi9ELi0ELi4ELi9EEEE7noaliasEv,"axG",%progbits
  78              		.align	1
  79              		.weak	_ZN5Eigen10MatrixBaseINS_6MatrixIdLi4ELi9ELi0ELi4ELi9EEEE7noaliasEv
  80              		.syntax unified
  81              		.thumb
  82              		.thumb_func
  84              	_ZN5Eigen10MatrixBaseINS_6MatrixIdLi4ELi9ELi0ELi4ELi9EEEE7noaliasEv:
  85              		.fnstart
  86              	.LVL2:
  87              	.LFB8104:
 102:./Eigen/src/Core/NoAlias.h **** {
  88              		.loc 2 102 47 is_stmt 1 view -0
  89              		.cfi_startproc
  90              		@ args = 0, pretend = 0, frame = 0
  91              		@ frame_needed = 0, uses_anonymous_args = 0
  92              		@ link register save eliminated.
  93              	.LBB27445:
  94              	.LBI27445:
  37:./Eigen/src/Core/NoAlias.h ****     
  95              		.loc 2 37 14 view .LVU9
  37:./Eigen/src/Core/NoAlias.h ****     
  96              		.loc 2 37 14 is_stmt 0 view .LVU10
  97              	.LBE27445:
  98              		.loc 2 105 1 view .LVU11
  99 0000 7047     		bx	lr
 100              		.cfi_endproc
 101              	.LFE8104:
 102              		.cantunwind
 103              		.fnend
 105              		.section	.text._ZN5Eigen10MatrixBaseINS_6MatrixIdLi12ELi10ELi0ELi12ELi10EEEE7noaliasEv,"axG",%prog
 106              		.align	1
 107              		.weak	_ZN5Eigen10MatrixBaseINS_6MatrixIdLi12ELi10ELi0ELi12ELi10EEEE7noaliasEv
 108              		.syntax unified
 109              		.thumb
 110              		.thumb_func
 112              	_ZN5Eigen10MatrixBaseINS_6MatrixIdLi12ELi10ELi0ELi12ELi10EEEE7noaliasEv:
 113              		.fnstart
 114              	.LVL3:
 115              	.LFB8114:
 102:./Eigen/src/Core/NoAlias.h **** {
 116              		.loc 2 102 47 is_stmt 1 view -0
 117              		.cfi_startproc
 118              		@ args = 0, pretend = 0, frame = 0
 119              		@ frame_needed = 0, uses_anonymous_args = 0
 120              		@ link register save eliminated.
 121              	.LBB27446:
ARM GAS  C:\Users\purdu\AppData\Local\Temp\ccYBYMxG.s 			page 5


 122              	.LBI27446:
  37:./Eigen/src/Core/NoAlias.h ****     
 123              		.loc 2 37 14 view .LVU13
  37:./Eigen/src/Core/NoAlias.h ****     
 124              		.loc 2 37 14 is_stmt 0 view .LVU14
 125              	.LBE27446:
 126              		.loc 2 105 1 view .LVU15
 127 0000 7047     		bx	lr
 128              		.cfi_endproc
 129              	.LFE8114:
 130              		.cantunwind
 131              		.fnend
 133              		.section	.text._ZN5EigenmlIdEEKNS_13CwiseBinaryOpINS_8internal17scalar_product_opINS2_18promote_sc
 134              		.align	1
 135              		.weak	_ZN5EigenmlIdEEKNS_13CwiseBinaryOpINS_8internal17scalar_product_opINS2_18promote_scalar_argI
 136              		.syntax unified
 137              		.thumb
 138              		.thumb_func
 140              	_ZN5EigenmlIdEEKNS_13CwiseBinaryOpINS_8internal17scalar_product_opINS2_18promote_scalar_argIdT_XsrN
 141              		.fnstart
 142              	.LVL4:
 143              	.LFB8123:
 144              		.file 3 "./Eigen/src/Core/../plugins/CommonCwiseBinaryOps.h"
   1:./Eigen/src/Core/../plugins/CommonCwiseBinaryOps.h **** // This file is part of Eigen, a lightweight C++ template library
   2:./Eigen/src/Core/../plugins/CommonCwiseBinaryOps.h **** // for linear algebra.
   3:./Eigen/src/Core/../plugins/CommonCwiseBinaryOps.h **** //
   4:./Eigen/src/Core/../plugins/CommonCwiseBinaryOps.h **** // Copyright (C) 2008-2016 Gael Guennebaud <gael.guennebaud@inria.fr>
   5:./Eigen/src/Core/../plugins/CommonCwiseBinaryOps.h **** // Copyright (C) 2006-2008 Benoit Jacob <jacob.benoit.1@gmail.com>
   6:./Eigen/src/Core/../plugins/CommonCwiseBinaryOps.h **** //
   7:./Eigen/src/Core/../plugins/CommonCwiseBinaryOps.h **** // This Source Code Form is subject to the terms of the Mozilla
   8:./Eigen/src/Core/../plugins/CommonCwiseBinaryOps.h **** // Public License v. 2.0. If a copy of the MPL was not distributed
   9:./Eigen/src/Core/../plugins/CommonCwiseBinaryOps.h **** // with this file, You can obtain one at http://mozilla.org/MPL/2.0/.
  10:./Eigen/src/Core/../plugins/CommonCwiseBinaryOps.h **** 
  11:./Eigen/src/Core/../plugins/CommonCwiseBinaryOps.h **** // This file is a base class plugin containing common coefficient wise functions.
  12:./Eigen/src/Core/../plugins/CommonCwiseBinaryOps.h **** 
  13:./Eigen/src/Core/../plugins/CommonCwiseBinaryOps.h **** /** \returns an expression of the difference of \c *this and \a other
  14:./Eigen/src/Core/../plugins/CommonCwiseBinaryOps.h ****   *
  15:./Eigen/src/Core/../plugins/CommonCwiseBinaryOps.h ****   * \note If you want to substract a given scalar from all coefficients, see Cwise::operator-().
  16:./Eigen/src/Core/../plugins/CommonCwiseBinaryOps.h ****   *
  17:./Eigen/src/Core/../plugins/CommonCwiseBinaryOps.h ****   * \sa class CwiseBinaryOp, operator-=()
  18:./Eigen/src/Core/../plugins/CommonCwiseBinaryOps.h ****   */
  19:./Eigen/src/Core/../plugins/CommonCwiseBinaryOps.h **** EIGEN_MAKE_CWISE_BINARY_OP(operator-,difference)
  20:./Eigen/src/Core/../plugins/CommonCwiseBinaryOps.h **** 
  21:./Eigen/src/Core/../plugins/CommonCwiseBinaryOps.h **** /** \returns an expression of the sum of \c *this and \a other
  22:./Eigen/src/Core/../plugins/CommonCwiseBinaryOps.h ****   *
  23:./Eigen/src/Core/../plugins/CommonCwiseBinaryOps.h ****   * \note If you want to add a given scalar to all coefficients, see Cwise::operator+().
  24:./Eigen/src/Core/../plugins/CommonCwiseBinaryOps.h ****   *
  25:./Eigen/src/Core/../plugins/CommonCwiseBinaryOps.h ****   * \sa class CwiseBinaryOp, operator+=()
  26:./Eigen/src/Core/../plugins/CommonCwiseBinaryOps.h ****   */
  27:./Eigen/src/Core/../plugins/CommonCwiseBinaryOps.h **** EIGEN_MAKE_CWISE_BINARY_OP(operator+,sum)
  28:./Eigen/src/Core/../plugins/CommonCwiseBinaryOps.h **** 
  29:./Eigen/src/Core/../plugins/CommonCwiseBinaryOps.h **** /** \returns an expression of a custom coefficient-wise operator \a func of *this and \a other
  30:./Eigen/src/Core/../plugins/CommonCwiseBinaryOps.h ****   *
  31:./Eigen/src/Core/../plugins/CommonCwiseBinaryOps.h ****   * The template parameter \a CustomBinaryOp is the type of the functor
  32:./Eigen/src/Core/../plugins/CommonCwiseBinaryOps.h ****   * of the custom operator (see class CwiseBinaryOp for an example)
  33:./Eigen/src/Core/../plugins/CommonCwiseBinaryOps.h ****   *
  34:./Eigen/src/Core/../plugins/CommonCwiseBinaryOps.h ****   * Here is an example illustrating the use of custom functors:
ARM GAS  C:\Users\purdu\AppData\Local\Temp\ccYBYMxG.s 			page 6


  35:./Eigen/src/Core/../plugins/CommonCwiseBinaryOps.h ****   * \include class_CwiseBinaryOp.cpp
  36:./Eigen/src/Core/../plugins/CommonCwiseBinaryOps.h ****   * Output: \verbinclude class_CwiseBinaryOp.out
  37:./Eigen/src/Core/../plugins/CommonCwiseBinaryOps.h ****   *
  38:./Eigen/src/Core/../plugins/CommonCwiseBinaryOps.h ****   * \sa class CwiseBinaryOp, operator+(), operator-(), cwiseProduct()
  39:./Eigen/src/Core/../plugins/CommonCwiseBinaryOps.h ****   */
  40:./Eigen/src/Core/../plugins/CommonCwiseBinaryOps.h **** template<typename CustomBinaryOp, typename OtherDerived>
  41:./Eigen/src/Core/../plugins/CommonCwiseBinaryOps.h **** EIGEN_DEVICE_FUNC
  42:./Eigen/src/Core/../plugins/CommonCwiseBinaryOps.h **** EIGEN_STRONG_INLINE const CwiseBinaryOp<CustomBinaryOp, const Derived, const OtherDerived>
  43:./Eigen/src/Core/../plugins/CommonCwiseBinaryOps.h **** binaryExpr(const EIGEN_CURRENT_STORAGE_BASE_CLASS<OtherDerived> &other, const CustomBinaryOp& func 
  44:./Eigen/src/Core/../plugins/CommonCwiseBinaryOps.h **** {
  45:./Eigen/src/Core/../plugins/CommonCwiseBinaryOps.h ****   return CwiseBinaryOp<CustomBinaryOp, const Derived, const OtherDerived>(derived(), other.derived(
  46:./Eigen/src/Core/../plugins/CommonCwiseBinaryOps.h **** }
  47:./Eigen/src/Core/../plugins/CommonCwiseBinaryOps.h **** 
  48:./Eigen/src/Core/../plugins/CommonCwiseBinaryOps.h **** 
  49:./Eigen/src/Core/../plugins/CommonCwiseBinaryOps.h **** #ifndef EIGEN_PARSED_BY_DOXYGEN
  50:./Eigen/src/Core/../plugins/CommonCwiseBinaryOps.h **** EIGEN_MAKE_SCALAR_BINARY_OP(operator*,product)
 145              		.loc 3 50 1 is_stmt 1 view -0
 146              		.cfi_startproc
 147              		@ args = 0, pretend = 0, frame = 24
 148              		@ frame_needed = 0, uses_anonymous_args = 0
 149              		.loc 3 50 1 is_stmt 0 view .LVU17
 150 0000 30B5     		push	{r4, r5, lr}
 151              	.LCFI0:
 152              		.cfi_def_cfa_offset 12
 153              		.cfi_offset 4, -12
 154              		.cfi_offset 5, -8
 155              		.cfi_offset 14, -4
 156 0002 87B0     		sub	sp, sp, #28
 157              	.LCFI1:
 158              		.cfi_def_cfa_offset 40
 159 0004 0546     		mov	r5, r0
 160 0006 9446     		mov	ip, r2
 161              	.LVL5:
 162              	.LBB27447:
 163              	.LBI27447:
 164              		.file 4 "./Eigen/src/Core/functors/NullaryFunctors.h"
   1:./Eigen/src/Core/functors/NullaryFunctors.h **** // This file is part of Eigen, a lightweight C++ template library
   2:./Eigen/src/Core/functors/NullaryFunctors.h **** // for linear algebra.
   3:./Eigen/src/Core/functors/NullaryFunctors.h **** //
   4:./Eigen/src/Core/functors/NullaryFunctors.h **** // Copyright (C) 2008-2016 Gael Guennebaud <gael.guennebaud@inria.fr>
   5:./Eigen/src/Core/functors/NullaryFunctors.h **** //
   6:./Eigen/src/Core/functors/NullaryFunctors.h **** // This Source Code Form is subject to the terms of the Mozilla
   7:./Eigen/src/Core/functors/NullaryFunctors.h **** // Public License v. 2.0. If a copy of the MPL was not distributed
   8:./Eigen/src/Core/functors/NullaryFunctors.h **** // with this file, You can obtain one at http://mozilla.org/MPL/2.0/.
   9:./Eigen/src/Core/functors/NullaryFunctors.h **** 
  10:./Eigen/src/Core/functors/NullaryFunctors.h **** #ifndef EIGEN_NULLARY_FUNCTORS_H
  11:./Eigen/src/Core/functors/NullaryFunctors.h **** #define EIGEN_NULLARY_FUNCTORS_H
  12:./Eigen/src/Core/functors/NullaryFunctors.h **** 
  13:./Eigen/src/Core/functors/NullaryFunctors.h **** namespace Eigen {
  14:./Eigen/src/Core/functors/NullaryFunctors.h **** 
  15:./Eigen/src/Core/functors/NullaryFunctors.h **** namespace internal {
  16:./Eigen/src/Core/functors/NullaryFunctors.h **** 
  17:./Eigen/src/Core/functors/NullaryFunctors.h **** template<typename Scalar>
  18:./Eigen/src/Core/functors/NullaryFunctors.h **** struct scalar_constant_op {
  19:./Eigen/src/Core/functors/NullaryFunctors.h ****   EIGEN_DEVICE_FUNC EIGEN_STRONG_INLINE scalar_constant_op(const scalar_constant_op& other) : m_oth
  20:./Eigen/src/Core/functors/NullaryFunctors.h ****   EIGEN_DEVICE_FUNC EIGEN_STRONG_INLINE scalar_constant_op(const Scalar& other) : m_other(other) { 
 165              		.loc 4 20 41 is_stmt 1 view .LVU18
ARM GAS  C:\Users\purdu\AppData\Local\Temp\ccYBYMxG.s 			page 7


 166              	.LBB27448:
 167              	.LBB27449:
 168              		.loc 4 20 83 is_stmt 0 view .LVU19
 169 0008 D1E90023 		ldrd	r2, [r1]
 170              	.LVL6:
 171              		.loc 4 20 83 view .LVU20
 172 000c CDE90423 		strd	r2, [sp, #16]
 173              	.LVL7:
 174              		.loc 4 20 83 view .LVU21
 175              	.LBE27449:
 176              	.LBE27448:
 177              	.LBE27447:
 178              	.LBB27450:
 179              	.LBI27450:
 180              		.file 5 "./Eigen/src/Core/CwiseNullaryOp.h"
   1:./Eigen/src/Core/CwiseNullaryOp.h **** // This file is part of Eigen, a lightweight C++ template library
   2:./Eigen/src/Core/CwiseNullaryOp.h **** // for linear algebra.
   3:./Eigen/src/Core/CwiseNullaryOp.h **** //
   4:./Eigen/src/Core/CwiseNullaryOp.h **** // Copyright (C) 2008-2010 Gael Guennebaud <gael.guennebaud@inria.fr>
   5:./Eigen/src/Core/CwiseNullaryOp.h **** //
   6:./Eigen/src/Core/CwiseNullaryOp.h **** // This Source Code Form is subject to the terms of the Mozilla
   7:./Eigen/src/Core/CwiseNullaryOp.h **** // Public License v. 2.0. If a copy of the MPL was not distributed
   8:./Eigen/src/Core/CwiseNullaryOp.h **** // with this file, You can obtain one at http://mozilla.org/MPL/2.0/.
   9:./Eigen/src/Core/CwiseNullaryOp.h **** 
  10:./Eigen/src/Core/CwiseNullaryOp.h **** #ifndef EIGEN_CWISE_NULLARY_OP_H
  11:./Eigen/src/Core/CwiseNullaryOp.h **** #define EIGEN_CWISE_NULLARY_OP_H
  12:./Eigen/src/Core/CwiseNullaryOp.h **** 
  13:./Eigen/src/Core/CwiseNullaryOp.h **** namespace Eigen {
  14:./Eigen/src/Core/CwiseNullaryOp.h **** 
  15:./Eigen/src/Core/CwiseNullaryOp.h **** namespace internal {
  16:./Eigen/src/Core/CwiseNullaryOp.h **** template<typename NullaryOp, typename PlainObjectType>
  17:./Eigen/src/Core/CwiseNullaryOp.h **** struct traits<CwiseNullaryOp<NullaryOp, PlainObjectType> > : traits<PlainObjectType>
  18:./Eigen/src/Core/CwiseNullaryOp.h **** {
  19:./Eigen/src/Core/CwiseNullaryOp.h ****   enum {
  20:./Eigen/src/Core/CwiseNullaryOp.h ****     Flags = traits<PlainObjectType>::Flags & RowMajorBit
  21:./Eigen/src/Core/CwiseNullaryOp.h ****   };
  22:./Eigen/src/Core/CwiseNullaryOp.h **** };
  23:./Eigen/src/Core/CwiseNullaryOp.h **** 
  24:./Eigen/src/Core/CwiseNullaryOp.h **** } // namespace internal
  25:./Eigen/src/Core/CwiseNullaryOp.h **** 
  26:./Eigen/src/Core/CwiseNullaryOp.h **** /** \class CwiseNullaryOp
  27:./Eigen/src/Core/CwiseNullaryOp.h ****   * \ingroup Core_Module
  28:./Eigen/src/Core/CwiseNullaryOp.h ****   *
  29:./Eigen/src/Core/CwiseNullaryOp.h ****   * \brief Generic expression of a matrix where all coefficients are defined by a functor
  30:./Eigen/src/Core/CwiseNullaryOp.h ****   *
  31:./Eigen/src/Core/CwiseNullaryOp.h ****   * \tparam NullaryOp template functor implementing the operator
  32:./Eigen/src/Core/CwiseNullaryOp.h ****   * \tparam PlainObjectType the underlying plain matrix/array type
  33:./Eigen/src/Core/CwiseNullaryOp.h ****   *
  34:./Eigen/src/Core/CwiseNullaryOp.h ****   * This class represents an expression of a generic nullary operator.
  35:./Eigen/src/Core/CwiseNullaryOp.h ****   * It is the return type of the Ones(), Zero(), Constant(), Identity() and Random() methods,
  36:./Eigen/src/Core/CwiseNullaryOp.h ****   * and most of the time this is the only way it is used.
  37:./Eigen/src/Core/CwiseNullaryOp.h ****   *
  38:./Eigen/src/Core/CwiseNullaryOp.h ****   * However, if you want to write a function returning such an expression, you
  39:./Eigen/src/Core/CwiseNullaryOp.h ****   * will need to use this class.
  40:./Eigen/src/Core/CwiseNullaryOp.h ****   *
  41:./Eigen/src/Core/CwiseNullaryOp.h ****   * The functor NullaryOp must expose one of the following method:
  42:./Eigen/src/Core/CwiseNullaryOp.h ****     <table class="manual">
ARM GAS  C:\Users\purdu\AppData\Local\Temp\ccYBYMxG.s 			page 8


  43:./Eigen/src/Core/CwiseNullaryOp.h ****     <tr            ><td>\c operator()() </td><td>if the procedural generation does not depend on th
  44:./Eigen/src/Core/CwiseNullaryOp.h ****     <tr class="alt"><td>\c operator()(Index i)</td><td>if the procedural generation makes sense for
  45:./Eigen/src/Core/CwiseNullaryOp.h ****     <tr            ><td>\c operator()(Index i,Index j)</td><td>if the procedural generation depends
  46:./Eigen/src/Core/CwiseNullaryOp.h ****     </table>
  47:./Eigen/src/Core/CwiseNullaryOp.h ****   * It is also possible to expose the last two operators if the generation makes sense for matrices
  48:./Eigen/src/Core/CwiseNullaryOp.h ****   *
  49:./Eigen/src/Core/CwiseNullaryOp.h ****   * See DenseBase::NullaryExpr(Index,const CustomNullaryOp&) for an example binding
  50:./Eigen/src/Core/CwiseNullaryOp.h ****   * C++11 random number generators.
  51:./Eigen/src/Core/CwiseNullaryOp.h ****   *
  52:./Eigen/src/Core/CwiseNullaryOp.h ****   * A nullary expression can also be used to implement custom sophisticated matrix manipulations
  53:./Eigen/src/Core/CwiseNullaryOp.h ****   * that cannot be covered by the existing set of natively supported matrix manipulations.
  54:./Eigen/src/Core/CwiseNullaryOp.h ****   * See this \ref TopicCustomizing_NullaryExpr "page" for some examples and additional explanations
  55:./Eigen/src/Core/CwiseNullaryOp.h ****   * on the behavior of CwiseNullaryOp.
  56:./Eigen/src/Core/CwiseNullaryOp.h ****   *
  57:./Eigen/src/Core/CwiseNullaryOp.h ****   * \sa class CwiseUnaryOp, class CwiseBinaryOp, DenseBase::NullaryExpr
  58:./Eigen/src/Core/CwiseNullaryOp.h ****   */
  59:./Eigen/src/Core/CwiseNullaryOp.h **** template<typename NullaryOp, typename PlainObjectType>
  60:./Eigen/src/Core/CwiseNullaryOp.h **** class CwiseNullaryOp : public internal::dense_xpr_base< CwiseNullaryOp<NullaryOp, PlainObjectType> 
  61:./Eigen/src/Core/CwiseNullaryOp.h **** {
  62:./Eigen/src/Core/CwiseNullaryOp.h ****   public:
  63:./Eigen/src/Core/CwiseNullaryOp.h **** 
  64:./Eigen/src/Core/CwiseNullaryOp.h ****     typedef typename internal::dense_xpr_base<CwiseNullaryOp>::type Base;
  65:./Eigen/src/Core/CwiseNullaryOp.h ****     EIGEN_DENSE_PUBLIC_INTERFACE(CwiseNullaryOp)
  66:./Eigen/src/Core/CwiseNullaryOp.h **** 
  67:./Eigen/src/Core/CwiseNullaryOp.h ****     EIGEN_DEVICE_FUNC
  68:./Eigen/src/Core/CwiseNullaryOp.h ****     CwiseNullaryOp(Index rows, Index cols, const NullaryOp& func = NullaryOp())
 181              		.loc 5 68 5 is_stmt 1 view .LVU22
 182              	.LBB27451:
 183              	.LBB27452:
 184              	.LBI27452:
 185              		.file 6 "./Eigen/src/Core/MatrixBase.h"
   1:./Eigen/src/Core/MatrixBase.h **** // This file is part of Eigen, a lightweight C++ template library
   2:./Eigen/src/Core/MatrixBase.h **** // for linear algebra.
   3:./Eigen/src/Core/MatrixBase.h **** //
   4:./Eigen/src/Core/MatrixBase.h **** // Copyright (C) 2006-2009 Benoit Jacob <jacob.benoit.1@gmail.com>
   5:./Eigen/src/Core/MatrixBase.h **** // Copyright (C) 2008 Gael Guennebaud <gael.guennebaud@inria.fr>
   6:./Eigen/src/Core/MatrixBase.h **** //
   7:./Eigen/src/Core/MatrixBase.h **** // This Source Code Form is subject to the terms of the Mozilla
   8:./Eigen/src/Core/MatrixBase.h **** // Public License v. 2.0. If a copy of the MPL was not distributed
   9:./Eigen/src/Core/MatrixBase.h **** // with this file, You can obtain one at http://mozilla.org/MPL/2.0/.
  10:./Eigen/src/Core/MatrixBase.h **** 
  11:./Eigen/src/Core/MatrixBase.h **** #ifndef EIGEN_MATRIXBASE_H
  12:./Eigen/src/Core/MatrixBase.h **** #define EIGEN_MATRIXBASE_H
  13:./Eigen/src/Core/MatrixBase.h **** 
  14:./Eigen/src/Core/MatrixBase.h **** namespace Eigen {
  15:./Eigen/src/Core/MatrixBase.h **** 
  16:./Eigen/src/Core/MatrixBase.h **** /** \class MatrixBase
  17:./Eigen/src/Core/MatrixBase.h ****   * \ingroup Core_Module
  18:./Eigen/src/Core/MatrixBase.h ****   *
  19:./Eigen/src/Core/MatrixBase.h ****   * \brief Base class for all dense matrices, vectors, and expressions
  20:./Eigen/src/Core/MatrixBase.h ****   *
  21:./Eigen/src/Core/MatrixBase.h ****   * This class is the base that is inherited by all matrix, vector, and related expression
  22:./Eigen/src/Core/MatrixBase.h ****   * types. Most of the Eigen API is contained in this class, and its base classes. Other important
  23:./Eigen/src/Core/MatrixBase.h ****   * classes for the Eigen API are Matrix, and VectorwiseOp.
  24:./Eigen/src/Core/MatrixBase.h ****   *
  25:./Eigen/src/Core/MatrixBase.h ****   * Note that some methods are defined in other modules such as the \ref LU_Module LU module
  26:./Eigen/src/Core/MatrixBase.h ****   * for all functions related to matrix inversions.
ARM GAS  C:\Users\purdu\AppData\Local\Temp\ccYBYMxG.s 			page 9


  27:./Eigen/src/Core/MatrixBase.h ****   *
  28:./Eigen/src/Core/MatrixBase.h ****   * \tparam Derived is the derived type, e.g. a matrix type, or an expression, etc.
  29:./Eigen/src/Core/MatrixBase.h ****   *
  30:./Eigen/src/Core/MatrixBase.h ****   * When writing a function taking Eigen objects as argument, if you want your function
  31:./Eigen/src/Core/MatrixBase.h ****   * to take as argument any matrix, vector, or expression, just let it take a
  32:./Eigen/src/Core/MatrixBase.h ****   * MatrixBase argument. As an example, here is a function printFirstRow which, given
  33:./Eigen/src/Core/MatrixBase.h ****   * a matrix, vector, or expression \a x, prints the first row of \a x.
  34:./Eigen/src/Core/MatrixBase.h ****   *
  35:./Eigen/src/Core/MatrixBase.h ****   * \code
  36:./Eigen/src/Core/MatrixBase.h ****     template<typename Derived>
  37:./Eigen/src/Core/MatrixBase.h ****     void printFirstRow(const Eigen::MatrixBase<Derived>& x)
  38:./Eigen/src/Core/MatrixBase.h ****     {
  39:./Eigen/src/Core/MatrixBase.h ****       cout << x.row(0) << endl;
  40:./Eigen/src/Core/MatrixBase.h ****     }
  41:./Eigen/src/Core/MatrixBase.h ****   * \endcode
  42:./Eigen/src/Core/MatrixBase.h ****   *
  43:./Eigen/src/Core/MatrixBase.h ****   * This class can be extended with the help of the plugin mechanism described on the page
  44:./Eigen/src/Core/MatrixBase.h ****   * \ref TopicCustomizing_Plugins by defining the preprocessor symbol \c EIGEN_MATRIXBASE_PLUGIN.
  45:./Eigen/src/Core/MatrixBase.h ****   *
  46:./Eigen/src/Core/MatrixBase.h ****   * \sa \blank \ref TopicClassHierarchy
  47:./Eigen/src/Core/MatrixBase.h ****   */
  48:./Eigen/src/Core/MatrixBase.h **** template<typename Derived> class MatrixBase
  49:./Eigen/src/Core/MatrixBase.h ****   : public DenseBase<Derived>
  50:./Eigen/src/Core/MatrixBase.h **** {
  51:./Eigen/src/Core/MatrixBase.h ****   public:
  52:./Eigen/src/Core/MatrixBase.h **** #ifndef EIGEN_PARSED_BY_DOXYGEN
  53:./Eigen/src/Core/MatrixBase.h ****     typedef MatrixBase StorageBaseType;
  54:./Eigen/src/Core/MatrixBase.h ****     typedef typename internal::traits<Derived>::StorageKind StorageKind;
  55:./Eigen/src/Core/MatrixBase.h ****     typedef typename internal::traits<Derived>::StorageIndex StorageIndex;
  56:./Eigen/src/Core/MatrixBase.h ****     typedef typename internal::traits<Derived>::Scalar Scalar;
  57:./Eigen/src/Core/MatrixBase.h ****     typedef typename internal::packet_traits<Scalar>::type PacketScalar;
  58:./Eigen/src/Core/MatrixBase.h ****     typedef typename NumTraits<Scalar>::Real RealScalar;
  59:./Eigen/src/Core/MatrixBase.h **** 
  60:./Eigen/src/Core/MatrixBase.h ****     typedef DenseBase<Derived> Base;
  61:./Eigen/src/Core/MatrixBase.h ****     using Base::RowsAtCompileTime;
  62:./Eigen/src/Core/MatrixBase.h ****     using Base::ColsAtCompileTime;
  63:./Eigen/src/Core/MatrixBase.h ****     using Base::SizeAtCompileTime;
  64:./Eigen/src/Core/MatrixBase.h ****     using Base::MaxRowsAtCompileTime;
  65:./Eigen/src/Core/MatrixBase.h ****     using Base::MaxColsAtCompileTime;
  66:./Eigen/src/Core/MatrixBase.h ****     using Base::MaxSizeAtCompileTime;
  67:./Eigen/src/Core/MatrixBase.h ****     using Base::IsVectorAtCompileTime;
  68:./Eigen/src/Core/MatrixBase.h ****     using Base::Flags;
  69:./Eigen/src/Core/MatrixBase.h **** 
  70:./Eigen/src/Core/MatrixBase.h ****     using Base::derived;
  71:./Eigen/src/Core/MatrixBase.h ****     using Base::const_cast_derived;
  72:./Eigen/src/Core/MatrixBase.h ****     using Base::rows;
  73:./Eigen/src/Core/MatrixBase.h ****     using Base::cols;
  74:./Eigen/src/Core/MatrixBase.h ****     using Base::size;
  75:./Eigen/src/Core/MatrixBase.h ****     using Base::coeff;
  76:./Eigen/src/Core/MatrixBase.h ****     using Base::coeffRef;
  77:./Eigen/src/Core/MatrixBase.h ****     using Base::lazyAssign;
  78:./Eigen/src/Core/MatrixBase.h ****     using Base::eval;
  79:./Eigen/src/Core/MatrixBase.h ****     using Base::operator-;
  80:./Eigen/src/Core/MatrixBase.h ****     using Base::operator+=;
  81:./Eigen/src/Core/MatrixBase.h ****     using Base::operator-=;
  82:./Eigen/src/Core/MatrixBase.h ****     using Base::operator*=;
  83:./Eigen/src/Core/MatrixBase.h ****     using Base::operator/=;
ARM GAS  C:\Users\purdu\AppData\Local\Temp\ccYBYMxG.s 			page 10


  84:./Eigen/src/Core/MatrixBase.h **** 
  85:./Eigen/src/Core/MatrixBase.h ****     typedef typename Base::CoeffReturnType CoeffReturnType;
  86:./Eigen/src/Core/MatrixBase.h ****     typedef typename Base::ConstTransposeReturnType ConstTransposeReturnType;
  87:./Eigen/src/Core/MatrixBase.h ****     typedef typename Base::RowXpr RowXpr;
  88:./Eigen/src/Core/MatrixBase.h ****     typedef typename Base::ColXpr ColXpr;
  89:./Eigen/src/Core/MatrixBase.h **** #endif // not EIGEN_PARSED_BY_DOXYGEN
  90:./Eigen/src/Core/MatrixBase.h **** 
  91:./Eigen/src/Core/MatrixBase.h **** 
  92:./Eigen/src/Core/MatrixBase.h **** 
  93:./Eigen/src/Core/MatrixBase.h **** #ifndef EIGEN_PARSED_BY_DOXYGEN
  94:./Eigen/src/Core/MatrixBase.h ****     /** type of the equivalent square matrix */
  95:./Eigen/src/Core/MatrixBase.h ****     typedef Matrix<Scalar,EIGEN_SIZE_MAX(RowsAtCompileTime,ColsAtCompileTime),
  96:./Eigen/src/Core/MatrixBase.h ****                           EIGEN_SIZE_MAX(RowsAtCompileTime,ColsAtCompileTime)> SquareMatrixType;
  97:./Eigen/src/Core/MatrixBase.h **** #endif // not EIGEN_PARSED_BY_DOXYGEN
  98:./Eigen/src/Core/MatrixBase.h **** 
  99:./Eigen/src/Core/MatrixBase.h ****     /** \returns the size of the main diagonal, which is min(rows(),cols()).
 100:./Eigen/src/Core/MatrixBase.h ****       * \sa rows(), cols(), SizeAtCompileTime. */
 101:./Eigen/src/Core/MatrixBase.h ****     EIGEN_DEVICE_FUNC
 102:./Eigen/src/Core/MatrixBase.h ****     inline Index diagonalSize() const { return (numext::mini)(rows(),cols()); }
 103:./Eigen/src/Core/MatrixBase.h **** 
 104:./Eigen/src/Core/MatrixBase.h ****     typedef typename Base::PlainObject PlainObject;
 105:./Eigen/src/Core/MatrixBase.h **** 
 106:./Eigen/src/Core/MatrixBase.h **** #ifndef EIGEN_PARSED_BY_DOXYGEN
 107:./Eigen/src/Core/MatrixBase.h ****     /** \internal Represents a matrix with all coefficients equal to one another*/
 108:./Eigen/src/Core/MatrixBase.h ****     typedef CwiseNullaryOp<internal::scalar_constant_op<Scalar>,PlainObject> ConstantReturnType;
 109:./Eigen/src/Core/MatrixBase.h ****     /** \internal the return type of MatrixBase::adjoint() */
 110:./Eigen/src/Core/MatrixBase.h ****     typedef typename internal::conditional<NumTraits<Scalar>::IsComplex,
 111:./Eigen/src/Core/MatrixBase.h ****                         CwiseUnaryOp<internal::scalar_conjugate_op<Scalar>, ConstTransposeReturnTyp
 112:./Eigen/src/Core/MatrixBase.h ****                         ConstTransposeReturnType
 113:./Eigen/src/Core/MatrixBase.h ****                      >::type AdjointReturnType;
 114:./Eigen/src/Core/MatrixBase.h ****     /** \internal Return type of eigenvalues() */
 115:./Eigen/src/Core/MatrixBase.h ****     typedef Matrix<std::complex<RealScalar>, internal::traits<Derived>::ColsAtCompileTime, 1, ColMa
 116:./Eigen/src/Core/MatrixBase.h ****     /** \internal the return type of identity */
 117:./Eigen/src/Core/MatrixBase.h ****     typedef CwiseNullaryOp<internal::scalar_identity_op<Scalar>,PlainObject> IdentityReturnType;
 118:./Eigen/src/Core/MatrixBase.h ****     /** \internal the return type of unit vectors */
 119:./Eigen/src/Core/MatrixBase.h ****     typedef Block<const CwiseNullaryOp<internal::scalar_identity_op<Scalar>, SquareMatrixType>,
 120:./Eigen/src/Core/MatrixBase.h ****                   internal::traits<Derived>::RowsAtCompileTime,
 121:./Eigen/src/Core/MatrixBase.h ****                   internal::traits<Derived>::ColsAtCompileTime> BasisReturnType;
 122:./Eigen/src/Core/MatrixBase.h **** #endif // not EIGEN_PARSED_BY_DOXYGEN
 123:./Eigen/src/Core/MatrixBase.h **** 
 124:./Eigen/src/Core/MatrixBase.h **** #define EIGEN_CURRENT_STORAGE_BASE_CLASS Eigen::MatrixBase
 125:./Eigen/src/Core/MatrixBase.h **** #define EIGEN_DOC_UNARY_ADDONS(X,Y)
 126:./Eigen/src/Core/MatrixBase.h **** #   include "../plugins/CommonCwiseBinaryOps.h"
 127:./Eigen/src/Core/MatrixBase.h **** #   include "../plugins/MatrixCwiseUnaryOps.h"
 128:./Eigen/src/Core/MatrixBase.h **** #   include "../plugins/MatrixCwiseBinaryOps.h"
 129:./Eigen/src/Core/MatrixBase.h **** #   ifdef EIGEN_MATRIXBASE_PLUGIN
 130:./Eigen/src/Core/MatrixBase.h **** #     include EIGEN_MATRIXBASE_PLUGIN
 131:./Eigen/src/Core/MatrixBase.h **** #   endif
 132:./Eigen/src/Core/MatrixBase.h **** #undef EIGEN_CURRENT_STORAGE_BASE_CLASS
 133:./Eigen/src/Core/MatrixBase.h **** #undef EIGEN_DOC_UNARY_ADDONS
 134:./Eigen/src/Core/MatrixBase.h **** 
 135:./Eigen/src/Core/MatrixBase.h ****     /** Special case of the template operator=, in order to prevent the compiler
 136:./Eigen/src/Core/MatrixBase.h ****       * from generating a default operator= (issue hit with g++ 4.1)
 137:./Eigen/src/Core/MatrixBase.h ****       */
 138:./Eigen/src/Core/MatrixBase.h ****     EIGEN_DEVICE_FUNC EIGEN_STRONG_INLINE
 139:./Eigen/src/Core/MatrixBase.h ****     Derived& operator=(const MatrixBase& other);
 140:./Eigen/src/Core/MatrixBase.h **** 
ARM GAS  C:\Users\purdu\AppData\Local\Temp\ccYBYMxG.s 			page 11


 141:./Eigen/src/Core/MatrixBase.h ****     // We cannot inherit here via Base::operator= since it is causing
 142:./Eigen/src/Core/MatrixBase.h ****     // trouble with MSVC.
 143:./Eigen/src/Core/MatrixBase.h **** 
 144:./Eigen/src/Core/MatrixBase.h ****     template <typename OtherDerived>
 145:./Eigen/src/Core/MatrixBase.h ****     EIGEN_DEVICE_FUNC EIGEN_STRONG_INLINE
 146:./Eigen/src/Core/MatrixBase.h ****     Derived& operator=(const DenseBase<OtherDerived>& other);
 147:./Eigen/src/Core/MatrixBase.h **** 
 148:./Eigen/src/Core/MatrixBase.h ****     template <typename OtherDerived>
 149:./Eigen/src/Core/MatrixBase.h ****     EIGEN_DEVICE_FUNC
 150:./Eigen/src/Core/MatrixBase.h ****     Derived& operator=(const EigenBase<OtherDerived>& other);
 151:./Eigen/src/Core/MatrixBase.h **** 
 152:./Eigen/src/Core/MatrixBase.h ****     template<typename OtherDerived>
 153:./Eigen/src/Core/MatrixBase.h ****     EIGEN_DEVICE_FUNC
 154:./Eigen/src/Core/MatrixBase.h ****     Derived& operator=(const ReturnByValue<OtherDerived>& other);
 155:./Eigen/src/Core/MatrixBase.h **** 
 156:./Eigen/src/Core/MatrixBase.h ****     template<typename OtherDerived>
 157:./Eigen/src/Core/MatrixBase.h ****     EIGEN_DEVICE_FUNC EIGEN_STRONG_INLINE
 158:./Eigen/src/Core/MatrixBase.h ****     Derived& operator+=(const MatrixBase<OtherDerived>& other);
 159:./Eigen/src/Core/MatrixBase.h ****     template<typename OtherDerived>
 160:./Eigen/src/Core/MatrixBase.h ****     EIGEN_DEVICE_FUNC EIGEN_STRONG_INLINE
 161:./Eigen/src/Core/MatrixBase.h ****     Derived& operator-=(const MatrixBase<OtherDerived>& other);
 162:./Eigen/src/Core/MatrixBase.h **** 
 163:./Eigen/src/Core/MatrixBase.h ****     template<typename OtherDerived>
 164:./Eigen/src/Core/MatrixBase.h ****     EIGEN_DEVICE_FUNC
 165:./Eigen/src/Core/MatrixBase.h ****     const Product<Derived,OtherDerived>
 166:./Eigen/src/Core/MatrixBase.h ****     operator*(const MatrixBase<OtherDerived> &other) const;
 167:./Eigen/src/Core/MatrixBase.h **** 
 168:./Eigen/src/Core/MatrixBase.h ****     template<typename OtherDerived>
 169:./Eigen/src/Core/MatrixBase.h ****     EIGEN_DEVICE_FUNC
 170:./Eigen/src/Core/MatrixBase.h ****     const Product<Derived,OtherDerived,LazyProduct>
 171:./Eigen/src/Core/MatrixBase.h ****     lazyProduct(const MatrixBase<OtherDerived> &other) const;
 172:./Eigen/src/Core/MatrixBase.h **** 
 173:./Eigen/src/Core/MatrixBase.h ****     template<typename OtherDerived>
 174:./Eigen/src/Core/MatrixBase.h ****     Derived& operator*=(const EigenBase<OtherDerived>& other);
 175:./Eigen/src/Core/MatrixBase.h **** 
 176:./Eigen/src/Core/MatrixBase.h ****     template<typename OtherDerived>
 177:./Eigen/src/Core/MatrixBase.h ****     void applyOnTheLeft(const EigenBase<OtherDerived>& other);
 178:./Eigen/src/Core/MatrixBase.h **** 
 179:./Eigen/src/Core/MatrixBase.h ****     template<typename OtherDerived>
 180:./Eigen/src/Core/MatrixBase.h ****     void applyOnTheRight(const EigenBase<OtherDerived>& other);
 181:./Eigen/src/Core/MatrixBase.h **** 
 182:./Eigen/src/Core/MatrixBase.h ****     template<typename DiagonalDerived>
 183:./Eigen/src/Core/MatrixBase.h ****     EIGEN_DEVICE_FUNC
 184:./Eigen/src/Core/MatrixBase.h ****     const Product<Derived, DiagonalDerived, LazyProduct>
 185:./Eigen/src/Core/MatrixBase.h ****     operator*(const DiagonalBase<DiagonalDerived> &diagonal) const;
 186:./Eigen/src/Core/MatrixBase.h **** 
 187:./Eigen/src/Core/MatrixBase.h ****     template<typename OtherDerived>
 188:./Eigen/src/Core/MatrixBase.h ****     EIGEN_DEVICE_FUNC
 189:./Eigen/src/Core/MatrixBase.h ****     typename ScalarBinaryOpTraits<typename internal::traits<Derived>::Scalar,typename internal::tra
 190:./Eigen/src/Core/MatrixBase.h ****     dot(const MatrixBase<OtherDerived>& other) const;
 191:./Eigen/src/Core/MatrixBase.h **** 
 192:./Eigen/src/Core/MatrixBase.h ****     EIGEN_DEVICE_FUNC RealScalar squaredNorm() const;
 193:./Eigen/src/Core/MatrixBase.h ****     EIGEN_DEVICE_FUNC RealScalar norm() const;
 194:./Eigen/src/Core/MatrixBase.h ****     RealScalar stableNorm() const;
 195:./Eigen/src/Core/MatrixBase.h ****     RealScalar blueNorm() const;
 196:./Eigen/src/Core/MatrixBase.h ****     RealScalar hypotNorm() const;
 197:./Eigen/src/Core/MatrixBase.h ****     EIGEN_DEVICE_FUNC const PlainObject normalized() const;
ARM GAS  C:\Users\purdu\AppData\Local\Temp\ccYBYMxG.s 			page 12


 198:./Eigen/src/Core/MatrixBase.h ****     EIGEN_DEVICE_FUNC const PlainObject stableNormalized() const;
 199:./Eigen/src/Core/MatrixBase.h ****     EIGEN_DEVICE_FUNC void normalize();
 200:./Eigen/src/Core/MatrixBase.h ****     EIGEN_DEVICE_FUNC void stableNormalize();
 201:./Eigen/src/Core/MatrixBase.h **** 
 202:./Eigen/src/Core/MatrixBase.h ****     EIGEN_DEVICE_FUNC const AdjointReturnType adjoint() const;
 203:./Eigen/src/Core/MatrixBase.h ****     EIGEN_DEVICE_FUNC void adjointInPlace();
 204:./Eigen/src/Core/MatrixBase.h **** 
 205:./Eigen/src/Core/MatrixBase.h ****     typedef Diagonal<Derived> DiagonalReturnType;
 206:./Eigen/src/Core/MatrixBase.h ****     EIGEN_DEVICE_FUNC
 207:./Eigen/src/Core/MatrixBase.h ****     DiagonalReturnType diagonal();
 208:./Eigen/src/Core/MatrixBase.h **** 
 209:./Eigen/src/Core/MatrixBase.h ****     typedef typename internal::add_const<Diagonal<const Derived> >::type ConstDiagonalReturnType;
 210:./Eigen/src/Core/MatrixBase.h ****     EIGEN_DEVICE_FUNC
 211:./Eigen/src/Core/MatrixBase.h ****     ConstDiagonalReturnType diagonal() const;
 212:./Eigen/src/Core/MatrixBase.h **** 
 213:./Eigen/src/Core/MatrixBase.h ****     template<int Index> struct DiagonalIndexReturnType { typedef Diagonal<Derived,Index> Type; };
 214:./Eigen/src/Core/MatrixBase.h ****     template<int Index> struct ConstDiagonalIndexReturnType { typedef const Diagonal<const Derived,
 215:./Eigen/src/Core/MatrixBase.h **** 
 216:./Eigen/src/Core/MatrixBase.h ****     template<int Index>
 217:./Eigen/src/Core/MatrixBase.h ****     EIGEN_DEVICE_FUNC
 218:./Eigen/src/Core/MatrixBase.h ****     typename DiagonalIndexReturnType<Index>::Type diagonal();
 219:./Eigen/src/Core/MatrixBase.h **** 
 220:./Eigen/src/Core/MatrixBase.h ****     template<int Index>
 221:./Eigen/src/Core/MatrixBase.h ****     EIGEN_DEVICE_FUNC
 222:./Eigen/src/Core/MatrixBase.h ****     typename ConstDiagonalIndexReturnType<Index>::Type diagonal() const;
 223:./Eigen/src/Core/MatrixBase.h **** 
 224:./Eigen/src/Core/MatrixBase.h ****     typedef Diagonal<Derived,DynamicIndex> DiagonalDynamicIndexReturnType;
 225:./Eigen/src/Core/MatrixBase.h ****     typedef typename internal::add_const<Diagonal<const Derived,DynamicIndex> >::type ConstDiagonal
 226:./Eigen/src/Core/MatrixBase.h **** 
 227:./Eigen/src/Core/MatrixBase.h ****     EIGEN_DEVICE_FUNC
 228:./Eigen/src/Core/MatrixBase.h ****     DiagonalDynamicIndexReturnType diagonal(Index index);
 229:./Eigen/src/Core/MatrixBase.h ****     EIGEN_DEVICE_FUNC
 230:./Eigen/src/Core/MatrixBase.h ****     ConstDiagonalDynamicIndexReturnType diagonal(Index index) const;
 231:./Eigen/src/Core/MatrixBase.h **** 
 232:./Eigen/src/Core/MatrixBase.h ****     template<unsigned int Mode> struct TriangularViewReturnType { typedef TriangularView<Derived, M
 233:./Eigen/src/Core/MatrixBase.h ****     template<unsigned int Mode> struct ConstTriangularViewReturnType { typedef const TriangularView
 234:./Eigen/src/Core/MatrixBase.h **** 
 235:./Eigen/src/Core/MatrixBase.h ****     template<unsigned int Mode>
 236:./Eigen/src/Core/MatrixBase.h ****     EIGEN_DEVICE_FUNC
 237:./Eigen/src/Core/MatrixBase.h ****     typename TriangularViewReturnType<Mode>::Type triangularView();
 238:./Eigen/src/Core/MatrixBase.h ****     template<unsigned int Mode>
 239:./Eigen/src/Core/MatrixBase.h ****     EIGEN_DEVICE_FUNC
 240:./Eigen/src/Core/MatrixBase.h ****     typename ConstTriangularViewReturnType<Mode>::Type triangularView() const;
 241:./Eigen/src/Core/MatrixBase.h **** 
 242:./Eigen/src/Core/MatrixBase.h ****     template<unsigned int UpLo> struct SelfAdjointViewReturnType { typedef SelfAdjointView<Derived,
 243:./Eigen/src/Core/MatrixBase.h ****     template<unsigned int UpLo> struct ConstSelfAdjointViewReturnType { typedef const SelfAdjointVi
 244:./Eigen/src/Core/MatrixBase.h **** 
 245:./Eigen/src/Core/MatrixBase.h ****     template<unsigned int UpLo>
 246:./Eigen/src/Core/MatrixBase.h ****     EIGEN_DEVICE_FUNC
 247:./Eigen/src/Core/MatrixBase.h ****     typename SelfAdjointViewReturnType<UpLo>::Type selfadjointView();
 248:./Eigen/src/Core/MatrixBase.h ****     template<unsigned int UpLo>
 249:./Eigen/src/Core/MatrixBase.h ****     EIGEN_DEVICE_FUNC
 250:./Eigen/src/Core/MatrixBase.h ****     typename ConstSelfAdjointViewReturnType<UpLo>::Type selfadjointView() const;
 251:./Eigen/src/Core/MatrixBase.h **** 
 252:./Eigen/src/Core/MatrixBase.h ****     const SparseView<Derived> sparseView(const Scalar& m_reference = Scalar(0),
 253:./Eigen/src/Core/MatrixBase.h ****                                          const typename NumTraits<Scalar>::Real& m_epsilon = NumTra
 254:./Eigen/src/Core/MatrixBase.h ****     EIGEN_DEVICE_FUNC static const IdentityReturnType Identity();
ARM GAS  C:\Users\purdu\AppData\Local\Temp\ccYBYMxG.s 			page 13


 255:./Eigen/src/Core/MatrixBase.h ****     EIGEN_DEVICE_FUNC static const IdentityReturnType Identity(Index rows, Index cols);
 256:./Eigen/src/Core/MatrixBase.h ****     EIGEN_DEVICE_FUNC static const BasisReturnType Unit(Index size, Index i);
 257:./Eigen/src/Core/MatrixBase.h ****     EIGEN_DEVICE_FUNC static const BasisReturnType Unit(Index i);
 258:./Eigen/src/Core/MatrixBase.h ****     EIGEN_DEVICE_FUNC static const BasisReturnType UnitX();
 259:./Eigen/src/Core/MatrixBase.h ****     EIGEN_DEVICE_FUNC static const BasisReturnType UnitY();
 260:./Eigen/src/Core/MatrixBase.h ****     EIGEN_DEVICE_FUNC static const BasisReturnType UnitZ();
 261:./Eigen/src/Core/MatrixBase.h ****     EIGEN_DEVICE_FUNC static const BasisReturnType UnitW();
 262:./Eigen/src/Core/MatrixBase.h **** 
 263:./Eigen/src/Core/MatrixBase.h ****     EIGEN_DEVICE_FUNC
 264:./Eigen/src/Core/MatrixBase.h ****     const DiagonalWrapper<const Derived> asDiagonal() const;
 265:./Eigen/src/Core/MatrixBase.h ****     const PermutationWrapper<const Derived> asPermutation() const;
 266:./Eigen/src/Core/MatrixBase.h **** 
 267:./Eigen/src/Core/MatrixBase.h ****     EIGEN_DEVICE_FUNC
 268:./Eigen/src/Core/MatrixBase.h ****     Derived& setIdentity();
 269:./Eigen/src/Core/MatrixBase.h ****     EIGEN_DEVICE_FUNC
 270:./Eigen/src/Core/MatrixBase.h ****     Derived& setIdentity(Index rows, Index cols);
 271:./Eigen/src/Core/MatrixBase.h ****     EIGEN_DEVICE_FUNC Derived& setUnit(Index i);
 272:./Eigen/src/Core/MatrixBase.h ****     EIGEN_DEVICE_FUNC Derived& setUnit(Index newSize, Index i);
 273:./Eigen/src/Core/MatrixBase.h **** 
 274:./Eigen/src/Core/MatrixBase.h ****     bool isIdentity(const RealScalar& prec = NumTraits<Scalar>::dummy_precision()) const;
 275:./Eigen/src/Core/MatrixBase.h ****     bool isDiagonal(const RealScalar& prec = NumTraits<Scalar>::dummy_precision()) const;
 276:./Eigen/src/Core/MatrixBase.h **** 
 277:./Eigen/src/Core/MatrixBase.h ****     bool isUpperTriangular(const RealScalar& prec = NumTraits<Scalar>::dummy_precision()) const;
 278:./Eigen/src/Core/MatrixBase.h ****     bool isLowerTriangular(const RealScalar& prec = NumTraits<Scalar>::dummy_precision()) const;
 279:./Eigen/src/Core/MatrixBase.h **** 
 280:./Eigen/src/Core/MatrixBase.h ****     template<typename OtherDerived>
 281:./Eigen/src/Core/MatrixBase.h ****     bool isOrthogonal(const MatrixBase<OtherDerived>& other,
 282:./Eigen/src/Core/MatrixBase.h ****                       const RealScalar& prec = NumTraits<Scalar>::dummy_precision()) const;
 283:./Eigen/src/Core/MatrixBase.h ****     bool isUnitary(const RealScalar& prec = NumTraits<Scalar>::dummy_precision()) const;
 284:./Eigen/src/Core/MatrixBase.h **** 
 285:./Eigen/src/Core/MatrixBase.h ****     /** \returns true if each coefficients of \c *this and \a other are all exactly equal.
 286:./Eigen/src/Core/MatrixBase.h ****       * \warning When using floating point scalar values you probably should rather use a
 287:./Eigen/src/Core/MatrixBase.h ****       *          fuzzy comparison such as isApprox()
 288:./Eigen/src/Core/MatrixBase.h ****       * \sa isApprox(), operator!= */
 289:./Eigen/src/Core/MatrixBase.h ****     template<typename OtherDerived>
 290:./Eigen/src/Core/MatrixBase.h ****     EIGEN_DEVICE_FUNC inline bool operator==(const MatrixBase<OtherDerived>& other) const
 291:./Eigen/src/Core/MatrixBase.h ****     { return cwiseEqual(other).all(); }
 292:./Eigen/src/Core/MatrixBase.h **** 
 293:./Eigen/src/Core/MatrixBase.h ****     /** \returns true if at least one pair of coefficients of \c *this and \a other are not exactly
 294:./Eigen/src/Core/MatrixBase.h ****       * \warning When using floating point scalar values you probably should rather use a
 295:./Eigen/src/Core/MatrixBase.h ****       *          fuzzy comparison such as isApprox()
 296:./Eigen/src/Core/MatrixBase.h ****       * \sa isApprox(), operator== */
 297:./Eigen/src/Core/MatrixBase.h ****     template<typename OtherDerived>
 298:./Eigen/src/Core/MatrixBase.h ****     EIGEN_DEVICE_FUNC inline bool operator!=(const MatrixBase<OtherDerived>& other) const
 299:./Eigen/src/Core/MatrixBase.h ****     { return cwiseNotEqual(other).any(); }
 300:./Eigen/src/Core/MatrixBase.h **** 
 301:./Eigen/src/Core/MatrixBase.h ****     NoAlias<Derived,Eigen::MatrixBase > EIGEN_DEVICE_FUNC noalias();
 302:./Eigen/src/Core/MatrixBase.h **** 
 303:./Eigen/src/Core/MatrixBase.h ****     // TODO forceAlignedAccess is temporarily disabled
 304:./Eigen/src/Core/MatrixBase.h ****     // Need to find a nicer workaround.
 305:./Eigen/src/Core/MatrixBase.h ****     inline const Derived& forceAlignedAccess() const { return derived(); }
 306:./Eigen/src/Core/MatrixBase.h ****     inline Derived& forceAlignedAccess() { return derived(); }
 307:./Eigen/src/Core/MatrixBase.h ****     template<bool Enable> inline const Derived& forceAlignedAccessIf() const { return derived(); }
 308:./Eigen/src/Core/MatrixBase.h ****     template<bool Enable> inline Derived& forceAlignedAccessIf() { return derived(); }
 309:./Eigen/src/Core/MatrixBase.h **** 
 310:./Eigen/src/Core/MatrixBase.h ****     EIGEN_DEVICE_FUNC Scalar trace() const;
 311:./Eigen/src/Core/MatrixBase.h **** 
ARM GAS  C:\Users\purdu\AppData\Local\Temp\ccYBYMxG.s 			page 14


 312:./Eigen/src/Core/MatrixBase.h ****     template<int p> EIGEN_DEVICE_FUNC RealScalar lpNorm() const;
 313:./Eigen/src/Core/MatrixBase.h **** 
 314:./Eigen/src/Core/MatrixBase.h ****     EIGEN_DEVICE_FUNC MatrixBase<Derived>& matrix() { return *this; }
 315:./Eigen/src/Core/MatrixBase.h ****     EIGEN_DEVICE_FUNC const MatrixBase<Derived>& matrix() const { return *this; }
 316:./Eigen/src/Core/MatrixBase.h **** 
 317:./Eigen/src/Core/MatrixBase.h ****     /** \returns an \link Eigen::ArrayBase Array \endlink expression of this matrix
 318:./Eigen/src/Core/MatrixBase.h ****       * \sa ArrayBase::matrix() */
 319:./Eigen/src/Core/MatrixBase.h ****     EIGEN_DEVICE_FUNC EIGEN_STRONG_INLINE ArrayWrapper<Derived> array() { return ArrayWrapper<Deriv
 320:./Eigen/src/Core/MatrixBase.h ****     /** \returns a const \link Eigen::ArrayBase Array \endlink expression of this matrix
 321:./Eigen/src/Core/MatrixBase.h ****       * \sa ArrayBase::matrix() */
 322:./Eigen/src/Core/MatrixBase.h ****     EIGEN_DEVICE_FUNC EIGEN_STRONG_INLINE const ArrayWrapper<const Derived> array() const { return 
 323:./Eigen/src/Core/MatrixBase.h **** 
 324:./Eigen/src/Core/MatrixBase.h **** /////////// LU module ///////////
 325:./Eigen/src/Core/MatrixBase.h **** 
 326:./Eigen/src/Core/MatrixBase.h ****     inline const FullPivLU<PlainObject> fullPivLu() const;
 327:./Eigen/src/Core/MatrixBase.h ****     inline const PartialPivLU<PlainObject> partialPivLu() const;
 328:./Eigen/src/Core/MatrixBase.h **** 
 329:./Eigen/src/Core/MatrixBase.h ****     inline const PartialPivLU<PlainObject> lu() const;
 330:./Eigen/src/Core/MatrixBase.h **** 
 331:./Eigen/src/Core/MatrixBase.h ****     EIGEN_DEVICE_FUNC
 332:./Eigen/src/Core/MatrixBase.h ****     inline const Inverse<Derived> inverse() const;
 333:./Eigen/src/Core/MatrixBase.h **** 
 334:./Eigen/src/Core/MatrixBase.h ****     template<typename ResultType>
 335:./Eigen/src/Core/MatrixBase.h ****     inline void computeInverseAndDetWithCheck(
 336:./Eigen/src/Core/MatrixBase.h ****       ResultType& inverse,
 337:./Eigen/src/Core/MatrixBase.h ****       typename ResultType::Scalar& determinant,
 338:./Eigen/src/Core/MatrixBase.h ****       bool& invertible,
 339:./Eigen/src/Core/MatrixBase.h ****       const RealScalar& absDeterminantThreshold = NumTraits<Scalar>::dummy_precision()
 340:./Eigen/src/Core/MatrixBase.h ****     ) const;
 341:./Eigen/src/Core/MatrixBase.h **** 
 342:./Eigen/src/Core/MatrixBase.h ****     template<typename ResultType>
 343:./Eigen/src/Core/MatrixBase.h ****     inline void computeInverseWithCheck(
 344:./Eigen/src/Core/MatrixBase.h ****       ResultType& inverse,
 345:./Eigen/src/Core/MatrixBase.h ****       bool& invertible,
 346:./Eigen/src/Core/MatrixBase.h ****       const RealScalar& absDeterminantThreshold = NumTraits<Scalar>::dummy_precision()
 347:./Eigen/src/Core/MatrixBase.h ****     ) const;
 348:./Eigen/src/Core/MatrixBase.h **** 
 349:./Eigen/src/Core/MatrixBase.h ****     EIGEN_DEVICE_FUNC
 350:./Eigen/src/Core/MatrixBase.h ****     Scalar determinant() const;
 351:./Eigen/src/Core/MatrixBase.h **** 
 352:./Eigen/src/Core/MatrixBase.h **** /////////// Cholesky module ///////////
 353:./Eigen/src/Core/MatrixBase.h **** 
 354:./Eigen/src/Core/MatrixBase.h ****     inline const LLT<PlainObject>  llt() const;
 355:./Eigen/src/Core/MatrixBase.h ****     inline const LDLT<PlainObject> ldlt() const;
 356:./Eigen/src/Core/MatrixBase.h **** 
 357:./Eigen/src/Core/MatrixBase.h **** /////////// QR module ///////////
 358:./Eigen/src/Core/MatrixBase.h **** 
 359:./Eigen/src/Core/MatrixBase.h ****     inline const HouseholderQR<PlainObject> householderQr() const;
 360:./Eigen/src/Core/MatrixBase.h ****     inline const ColPivHouseholderQR<PlainObject> colPivHouseholderQr() const;
 361:./Eigen/src/Core/MatrixBase.h ****     inline const FullPivHouseholderQR<PlainObject> fullPivHouseholderQr() const;
 362:./Eigen/src/Core/MatrixBase.h ****     inline const CompleteOrthogonalDecomposition<PlainObject> completeOrthogonalDecomposition() con
 363:./Eigen/src/Core/MatrixBase.h **** 
 364:./Eigen/src/Core/MatrixBase.h **** /////////// Eigenvalues module ///////////
 365:./Eigen/src/Core/MatrixBase.h **** 
 366:./Eigen/src/Core/MatrixBase.h ****     inline EigenvaluesReturnType eigenvalues() const;
 367:./Eigen/src/Core/MatrixBase.h ****     inline RealScalar operatorNorm() const;
 368:./Eigen/src/Core/MatrixBase.h **** 
ARM GAS  C:\Users\purdu\AppData\Local\Temp\ccYBYMxG.s 			page 15


 369:./Eigen/src/Core/MatrixBase.h **** /////////// SVD module ///////////
 370:./Eigen/src/Core/MatrixBase.h **** 
 371:./Eigen/src/Core/MatrixBase.h ****     inline JacobiSVD<PlainObject> jacobiSvd(unsigned int computationOptions = 0) const;
 372:./Eigen/src/Core/MatrixBase.h ****     inline BDCSVD<PlainObject>    bdcSvd(unsigned int computationOptions = 0) const;
 373:./Eigen/src/Core/MatrixBase.h **** 
 374:./Eigen/src/Core/MatrixBase.h **** /////////// Geometry module ///////////
 375:./Eigen/src/Core/MatrixBase.h **** 
 376:./Eigen/src/Core/MatrixBase.h ****     #ifndef EIGEN_PARSED_BY_DOXYGEN
 377:./Eigen/src/Core/MatrixBase.h ****     /// \internal helper struct to form the return type of the cross product
 378:./Eigen/src/Core/MatrixBase.h ****     template<typename OtherDerived> struct cross_product_return_type {
 379:./Eigen/src/Core/MatrixBase.h ****       typedef typename ScalarBinaryOpTraits<typename internal::traits<Derived>::Scalar,typename int
 380:./Eigen/src/Core/MatrixBase.h ****       typedef Matrix<Scalar,MatrixBase::RowsAtCompileTime,MatrixBase::ColsAtCompileTime> type;
 381:./Eigen/src/Core/MatrixBase.h ****     };
 382:./Eigen/src/Core/MatrixBase.h ****     #endif // EIGEN_PARSED_BY_DOXYGEN
 383:./Eigen/src/Core/MatrixBase.h ****     template<typename OtherDerived>
 384:./Eigen/src/Core/MatrixBase.h ****     EIGEN_DEVICE_FUNC
 385:./Eigen/src/Core/MatrixBase.h **** #ifndef EIGEN_PARSED_BY_DOXYGEN
 386:./Eigen/src/Core/MatrixBase.h ****     inline typename cross_product_return_type<OtherDerived>::type
 387:./Eigen/src/Core/MatrixBase.h **** #else
 388:./Eigen/src/Core/MatrixBase.h ****     inline PlainObject
 389:./Eigen/src/Core/MatrixBase.h **** #endif
 390:./Eigen/src/Core/MatrixBase.h ****     cross(const MatrixBase<OtherDerived>& other) const;
 391:./Eigen/src/Core/MatrixBase.h **** 
 392:./Eigen/src/Core/MatrixBase.h ****     template<typename OtherDerived>
 393:./Eigen/src/Core/MatrixBase.h ****     EIGEN_DEVICE_FUNC
 394:./Eigen/src/Core/MatrixBase.h ****     inline PlainObject cross3(const MatrixBase<OtherDerived>& other) const;
 395:./Eigen/src/Core/MatrixBase.h **** 
 396:./Eigen/src/Core/MatrixBase.h ****     EIGEN_DEVICE_FUNC
 397:./Eigen/src/Core/MatrixBase.h ****     inline PlainObject unitOrthogonal(void) const;
 398:./Eigen/src/Core/MatrixBase.h **** 
 399:./Eigen/src/Core/MatrixBase.h ****     EIGEN_DEVICE_FUNC
 400:./Eigen/src/Core/MatrixBase.h ****     inline Matrix<Scalar,3,1> eulerAngles(Index a0, Index a1, Index a2) const;
 401:./Eigen/src/Core/MatrixBase.h **** 
 402:./Eigen/src/Core/MatrixBase.h ****     // put this as separate enum value to work around possible GCC 4.3 bug (?)
 403:./Eigen/src/Core/MatrixBase.h ****     enum { HomogeneousReturnTypeDirection = ColsAtCompileTime==1&&RowsAtCompileTime==1 ? ((internal
 404:./Eigen/src/Core/MatrixBase.h ****                                           : ColsAtCompileTime==1 ? Vertical : Horizontal };
 405:./Eigen/src/Core/MatrixBase.h ****     typedef Homogeneous<Derived, HomogeneousReturnTypeDirection> HomogeneousReturnType;
 406:./Eigen/src/Core/MatrixBase.h ****     EIGEN_DEVICE_FUNC
 407:./Eigen/src/Core/MatrixBase.h ****     inline HomogeneousReturnType homogeneous() const;
 408:./Eigen/src/Core/MatrixBase.h **** 
 409:./Eigen/src/Core/MatrixBase.h ****     enum {
 410:./Eigen/src/Core/MatrixBase.h ****       SizeMinusOne = SizeAtCompileTime==Dynamic ? Dynamic : SizeAtCompileTime-1
 411:./Eigen/src/Core/MatrixBase.h ****     };
 412:./Eigen/src/Core/MatrixBase.h ****     typedef Block<const Derived,
 413:./Eigen/src/Core/MatrixBase.h ****                   internal::traits<Derived>::ColsAtCompileTime==1 ? SizeMinusOne : 1,
 414:./Eigen/src/Core/MatrixBase.h ****                   internal::traits<Derived>::ColsAtCompileTime==1 ? 1 : SizeMinusOne> ConstStartMin
 415:./Eigen/src/Core/MatrixBase.h ****     typedef EIGEN_EXPR_BINARYOP_SCALAR_RETURN_TYPE(ConstStartMinusOne,Scalar,quotient) HNormalizedR
 416:./Eigen/src/Core/MatrixBase.h ****     EIGEN_DEVICE_FUNC
 417:./Eigen/src/Core/MatrixBase.h ****     inline const HNormalizedReturnType hnormalized() const;
 418:./Eigen/src/Core/MatrixBase.h **** 
 419:./Eigen/src/Core/MatrixBase.h **** ////////// Householder module ///////////
 420:./Eigen/src/Core/MatrixBase.h **** 
 421:./Eigen/src/Core/MatrixBase.h ****     EIGEN_DEVICE_FUNC
 422:./Eigen/src/Core/MatrixBase.h ****     void makeHouseholderInPlace(Scalar& tau, RealScalar& beta);
 423:./Eigen/src/Core/MatrixBase.h ****     template<typename EssentialPart>
 424:./Eigen/src/Core/MatrixBase.h ****     EIGEN_DEVICE_FUNC
 425:./Eigen/src/Core/MatrixBase.h ****     void makeHouseholder(EssentialPart& essential,
ARM GAS  C:\Users\purdu\AppData\Local\Temp\ccYBYMxG.s 			page 16


 426:./Eigen/src/Core/MatrixBase.h ****                          Scalar& tau, RealScalar& beta) const;
 427:./Eigen/src/Core/MatrixBase.h ****     template<typename EssentialPart>
 428:./Eigen/src/Core/MatrixBase.h ****     EIGEN_DEVICE_FUNC
 429:./Eigen/src/Core/MatrixBase.h ****     void applyHouseholderOnTheLeft(const EssentialPart& essential,
 430:./Eigen/src/Core/MatrixBase.h ****                                    const Scalar& tau,
 431:./Eigen/src/Core/MatrixBase.h ****                                    Scalar* workspace);
 432:./Eigen/src/Core/MatrixBase.h ****     template<typename EssentialPart>
 433:./Eigen/src/Core/MatrixBase.h ****     EIGEN_DEVICE_FUNC
 434:./Eigen/src/Core/MatrixBase.h ****     void applyHouseholderOnTheRight(const EssentialPart& essential,
 435:./Eigen/src/Core/MatrixBase.h ****                                     const Scalar& tau,
 436:./Eigen/src/Core/MatrixBase.h ****                                     Scalar* workspace);
 437:./Eigen/src/Core/MatrixBase.h **** 
 438:./Eigen/src/Core/MatrixBase.h **** ///////// Jacobi module /////////
 439:./Eigen/src/Core/MatrixBase.h **** 
 440:./Eigen/src/Core/MatrixBase.h ****     template<typename OtherScalar>
 441:./Eigen/src/Core/MatrixBase.h ****     EIGEN_DEVICE_FUNC
 442:./Eigen/src/Core/MatrixBase.h ****     void applyOnTheLeft(Index p, Index q, const JacobiRotation<OtherScalar>& j);
 443:./Eigen/src/Core/MatrixBase.h ****     template<typename OtherScalar>
 444:./Eigen/src/Core/MatrixBase.h ****     EIGEN_DEVICE_FUNC
 445:./Eigen/src/Core/MatrixBase.h ****     void applyOnTheRight(Index p, Index q, const JacobiRotation<OtherScalar>& j);
 446:./Eigen/src/Core/MatrixBase.h **** 
 447:./Eigen/src/Core/MatrixBase.h **** ///////// SparseCore module /////////
 448:./Eigen/src/Core/MatrixBase.h **** 
 449:./Eigen/src/Core/MatrixBase.h ****     template<typename OtherDerived>
 450:./Eigen/src/Core/MatrixBase.h ****     EIGEN_STRONG_INLINE const typename SparseMatrixBase<OtherDerived>::template CwiseProductDenseRe
 451:./Eigen/src/Core/MatrixBase.h ****     cwiseProduct(const SparseMatrixBase<OtherDerived> &other) const
 452:./Eigen/src/Core/MatrixBase.h ****     {
 453:./Eigen/src/Core/MatrixBase.h ****       return other.cwiseProduct(derived());
 454:./Eigen/src/Core/MatrixBase.h ****     }
 455:./Eigen/src/Core/MatrixBase.h **** 
 456:./Eigen/src/Core/MatrixBase.h **** ///////// MatrixFunctions module /////////
 457:./Eigen/src/Core/MatrixBase.h **** 
 458:./Eigen/src/Core/MatrixBase.h ****     typedef typename internal::stem_function<Scalar>::type StemFunction;
 459:./Eigen/src/Core/MatrixBase.h **** #define EIGEN_MATRIX_FUNCTION(ReturnType, Name, Description) \
 460:./Eigen/src/Core/MatrixBase.h ****     /** \returns an expression of the matrix Description of \c *this. \brief This function requires
 461:./Eigen/src/Core/MatrixBase.h ****     const ReturnType<Derived> Name() const;
 462:./Eigen/src/Core/MatrixBase.h **** #define EIGEN_MATRIX_FUNCTION_1(ReturnType, Name, Description, Argument) \
 463:./Eigen/src/Core/MatrixBase.h ****     /** \returns an expression of the matrix Description of \c *this. \brief This function requires
 464:./Eigen/src/Core/MatrixBase.h ****     const ReturnType<Derived> Name(Argument) const;
 465:./Eigen/src/Core/MatrixBase.h **** 
 466:./Eigen/src/Core/MatrixBase.h ****     EIGEN_MATRIX_FUNCTION(MatrixExponentialReturnValue, exp, exponential)
 467:./Eigen/src/Core/MatrixBase.h ****     /** \brief Helper function for the <a href="unsupported/group__MatrixFunctions__Module.html"> u
 468:./Eigen/src/Core/MatrixBase.h ****     const MatrixFunctionReturnValue<Derived> matrixFunction(StemFunction f) const;
 469:./Eigen/src/Core/MatrixBase.h ****     EIGEN_MATRIX_FUNCTION(MatrixFunctionReturnValue, cosh, hyperbolic cosine)
 470:./Eigen/src/Core/MatrixBase.h ****     EIGEN_MATRIX_FUNCTION(MatrixFunctionReturnValue, sinh, hyperbolic sine)
 471:./Eigen/src/Core/MatrixBase.h **** #if EIGEN_HAS_CXX11_MATH
 472:./Eigen/src/Core/MatrixBase.h ****     EIGEN_MATRIX_FUNCTION(MatrixFunctionReturnValue, atanh, inverse hyperbolic cosine)
 473:./Eigen/src/Core/MatrixBase.h ****     EIGEN_MATRIX_FUNCTION(MatrixFunctionReturnValue, acosh, inverse hyperbolic cosine)
 474:./Eigen/src/Core/MatrixBase.h ****     EIGEN_MATRIX_FUNCTION(MatrixFunctionReturnValue, asinh, inverse hyperbolic sine)
 475:./Eigen/src/Core/MatrixBase.h **** #endif
 476:./Eigen/src/Core/MatrixBase.h ****     EIGEN_MATRIX_FUNCTION(MatrixFunctionReturnValue, cos, cosine)
 477:./Eigen/src/Core/MatrixBase.h ****     EIGEN_MATRIX_FUNCTION(MatrixFunctionReturnValue, sin, sine)
 478:./Eigen/src/Core/MatrixBase.h ****     EIGEN_MATRIX_FUNCTION(MatrixSquareRootReturnValue, sqrt, square root)
 479:./Eigen/src/Core/MatrixBase.h ****     EIGEN_MATRIX_FUNCTION(MatrixLogarithmReturnValue, log, logarithm)
 480:./Eigen/src/Core/MatrixBase.h ****     EIGEN_MATRIX_FUNCTION_1(MatrixPowerReturnValue,        pow, power to \c p, const RealScalar& p)
 481:./Eigen/src/Core/MatrixBase.h ****     EIGEN_MATRIX_FUNCTION_1(MatrixComplexPowerReturnValue, pow, power to \c p, const std::complex<R
 482:./Eigen/src/Core/MatrixBase.h **** 
ARM GAS  C:\Users\purdu\AppData\Local\Temp\ccYBYMxG.s 			page 17


 483:./Eigen/src/Core/MatrixBase.h ****   protected:
 484:./Eigen/src/Core/MatrixBase.h ****     EIGEN_DEFAULT_COPY_CONSTRUCTOR(MatrixBase)
 485:./Eigen/src/Core/MatrixBase.h ****     EIGEN_DEFAULT_EMPTY_CONSTRUCTOR_AND_DESTRUCTOR(MatrixBase)
 186              		.loc 6 485 5 view .LVU23
 187              	.LBB27453:
 188              	.LBI27453:
 189              		.file 7 "./Eigen/src/Core/DenseBase.h"
   1:./Eigen/src/Core/DenseBase.h **** // This file is part of Eigen, a lightweight C++ template library
   2:./Eigen/src/Core/DenseBase.h **** // for linear algebra.
   3:./Eigen/src/Core/DenseBase.h **** //
   4:./Eigen/src/Core/DenseBase.h **** // Copyright (C) 2007-2010 Benoit Jacob <jacob.benoit.1@gmail.com>
   5:./Eigen/src/Core/DenseBase.h **** // Copyright (C) 2008-2010 Gael Guennebaud <gael.guennebaud@inria.fr>
   6:./Eigen/src/Core/DenseBase.h **** //
   7:./Eigen/src/Core/DenseBase.h **** // This Source Code Form is subject to the terms of the Mozilla
   8:./Eigen/src/Core/DenseBase.h **** // Public License v. 2.0. If a copy of the MPL was not distributed
   9:./Eigen/src/Core/DenseBase.h **** // with this file, You can obtain one at http://mozilla.org/MPL/2.0/.
  10:./Eigen/src/Core/DenseBase.h **** 
  11:./Eigen/src/Core/DenseBase.h **** #ifndef EIGEN_DENSEBASE_H
  12:./Eigen/src/Core/DenseBase.h **** #define EIGEN_DENSEBASE_H
  13:./Eigen/src/Core/DenseBase.h **** 
  14:./Eigen/src/Core/DenseBase.h **** namespace Eigen {
  15:./Eigen/src/Core/DenseBase.h **** 
  16:./Eigen/src/Core/DenseBase.h **** namespace internal {
  17:./Eigen/src/Core/DenseBase.h **** 
  18:./Eigen/src/Core/DenseBase.h **** // The index type defined by EIGEN_DEFAULT_DENSE_INDEX_TYPE must be a signed type.
  19:./Eigen/src/Core/DenseBase.h **** // This dummy function simply aims at checking that at compile time.
  20:./Eigen/src/Core/DenseBase.h **** static inline void check_DenseIndex_is_signed() {
  21:./Eigen/src/Core/DenseBase.h ****   EIGEN_STATIC_ASSERT(NumTraits<DenseIndex>::IsSigned,THE_INDEX_TYPE_MUST_BE_A_SIGNED_TYPE)
  22:./Eigen/src/Core/DenseBase.h **** }
  23:./Eigen/src/Core/DenseBase.h **** 
  24:./Eigen/src/Core/DenseBase.h **** } // end namespace internal
  25:./Eigen/src/Core/DenseBase.h **** 
  26:./Eigen/src/Core/DenseBase.h **** /** \class DenseBase
  27:./Eigen/src/Core/DenseBase.h ****   * \ingroup Core_Module
  28:./Eigen/src/Core/DenseBase.h ****   *
  29:./Eigen/src/Core/DenseBase.h ****   * \brief Base class for all dense matrices, vectors, and arrays
  30:./Eigen/src/Core/DenseBase.h ****   *
  31:./Eigen/src/Core/DenseBase.h ****   * This class is the base that is inherited by all dense objects (matrix, vector, arrays,
  32:./Eigen/src/Core/DenseBase.h ****   * and related expression types). The common Eigen API for dense objects is contained in this clas
  33:./Eigen/src/Core/DenseBase.h ****   *
  34:./Eigen/src/Core/DenseBase.h ****   * \tparam Derived is the derived type, e.g., a matrix type or an expression.
  35:./Eigen/src/Core/DenseBase.h ****   *
  36:./Eigen/src/Core/DenseBase.h ****   * This class can be extended with the help of the plugin mechanism described on the page
  37:./Eigen/src/Core/DenseBase.h ****   * \ref TopicCustomizing_Plugins by defining the preprocessor symbol \c EIGEN_DENSEBASE_PLUGIN.
  38:./Eigen/src/Core/DenseBase.h ****   *
  39:./Eigen/src/Core/DenseBase.h ****   * \sa \blank \ref TopicClassHierarchy
  40:./Eigen/src/Core/DenseBase.h ****   */
  41:./Eigen/src/Core/DenseBase.h **** template<typename Derived> class DenseBase
  42:./Eigen/src/Core/DenseBase.h **** #ifndef EIGEN_PARSED_BY_DOXYGEN
  43:./Eigen/src/Core/DenseBase.h ****   : public DenseCoeffsBase<Derived, internal::accessors_level<Derived>::value>
  44:./Eigen/src/Core/DenseBase.h **** #else
  45:./Eigen/src/Core/DenseBase.h ****   : public DenseCoeffsBase<Derived,DirectWriteAccessors>
  46:./Eigen/src/Core/DenseBase.h **** #endif // not EIGEN_PARSED_BY_DOXYGEN
  47:./Eigen/src/Core/DenseBase.h **** {
  48:./Eigen/src/Core/DenseBase.h ****   public:
  49:./Eigen/src/Core/DenseBase.h **** 
  50:./Eigen/src/Core/DenseBase.h ****     /** Inner iterator type to iterate over the coefficients of a row or column.
ARM GAS  C:\Users\purdu\AppData\Local\Temp\ccYBYMxG.s 			page 18


  51:./Eigen/src/Core/DenseBase.h ****       * \sa class InnerIterator
  52:./Eigen/src/Core/DenseBase.h ****       */
  53:./Eigen/src/Core/DenseBase.h ****     typedef Eigen::InnerIterator<Derived> InnerIterator;
  54:./Eigen/src/Core/DenseBase.h **** 
  55:./Eigen/src/Core/DenseBase.h ****     typedef typename internal::traits<Derived>::StorageKind StorageKind;
  56:./Eigen/src/Core/DenseBase.h **** 
  57:./Eigen/src/Core/DenseBase.h ****     /**
  58:./Eigen/src/Core/DenseBase.h ****       * \brief The type used to store indices
  59:./Eigen/src/Core/DenseBase.h ****       * \details This typedef is relevant for types that store multiple indices such as
  60:./Eigen/src/Core/DenseBase.h ****       *          PermutationMatrix or Transpositions, otherwise it defaults to Eigen::Index
  61:./Eigen/src/Core/DenseBase.h ****       * \sa \blank \ref TopicPreprocessorDirectives, Eigen::Index, SparseMatrixBase.
  62:./Eigen/src/Core/DenseBase.h ****      */
  63:./Eigen/src/Core/DenseBase.h ****     typedef typename internal::traits<Derived>::StorageIndex StorageIndex;
  64:./Eigen/src/Core/DenseBase.h **** 
  65:./Eigen/src/Core/DenseBase.h ****     /** The numeric type of the expression' coefficients, e.g. float, double, int or std::complex<f
  66:./Eigen/src/Core/DenseBase.h ****     typedef typename internal::traits<Derived>::Scalar Scalar;
  67:./Eigen/src/Core/DenseBase.h **** 
  68:./Eigen/src/Core/DenseBase.h ****     /** The numeric type of the expression' coefficients, e.g. float, double, int or std::complex<f
  69:./Eigen/src/Core/DenseBase.h ****       *
  70:./Eigen/src/Core/DenseBase.h ****       * It is an alias for the Scalar type */
  71:./Eigen/src/Core/DenseBase.h ****     typedef Scalar value_type;
  72:./Eigen/src/Core/DenseBase.h **** 
  73:./Eigen/src/Core/DenseBase.h ****     typedef typename NumTraits<Scalar>::Real RealScalar;
  74:./Eigen/src/Core/DenseBase.h ****     typedef DenseCoeffsBase<Derived, internal::accessors_level<Derived>::value> Base;
  75:./Eigen/src/Core/DenseBase.h **** 
  76:./Eigen/src/Core/DenseBase.h ****     using Base::derived;
  77:./Eigen/src/Core/DenseBase.h ****     using Base::const_cast_derived;
  78:./Eigen/src/Core/DenseBase.h ****     using Base::rows;
  79:./Eigen/src/Core/DenseBase.h ****     using Base::cols;
  80:./Eigen/src/Core/DenseBase.h ****     using Base::size;
  81:./Eigen/src/Core/DenseBase.h ****     using Base::rowIndexByOuterInner;
  82:./Eigen/src/Core/DenseBase.h ****     using Base::colIndexByOuterInner;
  83:./Eigen/src/Core/DenseBase.h ****     using Base::coeff;
  84:./Eigen/src/Core/DenseBase.h ****     using Base::coeffByOuterInner;
  85:./Eigen/src/Core/DenseBase.h ****     using Base::operator();
  86:./Eigen/src/Core/DenseBase.h ****     using Base::operator[];
  87:./Eigen/src/Core/DenseBase.h ****     using Base::x;
  88:./Eigen/src/Core/DenseBase.h ****     using Base::y;
  89:./Eigen/src/Core/DenseBase.h ****     using Base::z;
  90:./Eigen/src/Core/DenseBase.h ****     using Base::w;
  91:./Eigen/src/Core/DenseBase.h ****     using Base::stride;
  92:./Eigen/src/Core/DenseBase.h ****     using Base::innerStride;
  93:./Eigen/src/Core/DenseBase.h ****     using Base::outerStride;
  94:./Eigen/src/Core/DenseBase.h ****     using Base::rowStride;
  95:./Eigen/src/Core/DenseBase.h ****     using Base::colStride;
  96:./Eigen/src/Core/DenseBase.h ****     typedef typename Base::CoeffReturnType CoeffReturnType;
  97:./Eigen/src/Core/DenseBase.h **** 
  98:./Eigen/src/Core/DenseBase.h ****     enum {
  99:./Eigen/src/Core/DenseBase.h **** 
 100:./Eigen/src/Core/DenseBase.h ****       RowsAtCompileTime = internal::traits<Derived>::RowsAtCompileTime,
 101:./Eigen/src/Core/DenseBase.h ****         /**< The number of rows at compile-time. This is just a copy of the value provided
 102:./Eigen/src/Core/DenseBase.h ****           * by the \a Derived type. If a value is not known at compile-time,
 103:./Eigen/src/Core/DenseBase.h ****           * it is set to the \a Dynamic constant.
 104:./Eigen/src/Core/DenseBase.h ****           * \sa MatrixBase::rows(), MatrixBase::cols(), ColsAtCompileTime, SizeAtCompileTime */
 105:./Eigen/src/Core/DenseBase.h **** 
 106:./Eigen/src/Core/DenseBase.h ****       ColsAtCompileTime = internal::traits<Derived>::ColsAtCompileTime,
 107:./Eigen/src/Core/DenseBase.h ****         /**< The number of columns at compile-time. This is just a copy of the value provided
ARM GAS  C:\Users\purdu\AppData\Local\Temp\ccYBYMxG.s 			page 19


 108:./Eigen/src/Core/DenseBase.h ****           * by the \a Derived type. If a value is not known at compile-time,
 109:./Eigen/src/Core/DenseBase.h ****           * it is set to the \a Dynamic constant.
 110:./Eigen/src/Core/DenseBase.h ****           * \sa MatrixBase::rows(), MatrixBase::cols(), RowsAtCompileTime, SizeAtCompileTime */
 111:./Eigen/src/Core/DenseBase.h **** 
 112:./Eigen/src/Core/DenseBase.h **** 
 113:./Eigen/src/Core/DenseBase.h ****       SizeAtCompileTime = (internal::size_at_compile_time<internal::traits<Derived>::RowsAtCompileT
 114:./Eigen/src/Core/DenseBase.h ****                                                    internal::traits<Derived>::ColsAtCompileTime>::r
 115:./Eigen/src/Core/DenseBase.h ****         /**< This is equal to the number of coefficients, i.e. the number of
 116:./Eigen/src/Core/DenseBase.h ****           * rows times the number of columns, or to \a Dynamic if this is not
 117:./Eigen/src/Core/DenseBase.h ****           * known at compile-time. \sa RowsAtCompileTime, ColsAtCompileTime */
 118:./Eigen/src/Core/DenseBase.h **** 
 119:./Eigen/src/Core/DenseBase.h ****       MaxRowsAtCompileTime = internal::traits<Derived>::MaxRowsAtCompileTime,
 120:./Eigen/src/Core/DenseBase.h ****         /**< This value is equal to the maximum possible number of rows that this expression
 121:./Eigen/src/Core/DenseBase.h ****           * might have. If this expression might have an arbitrarily high number of rows,
 122:./Eigen/src/Core/DenseBase.h ****           * this value is set to \a Dynamic.
 123:./Eigen/src/Core/DenseBase.h ****           *
 124:./Eigen/src/Core/DenseBase.h ****           * This value is useful to know when evaluating an expression, in order to determine
 125:./Eigen/src/Core/DenseBase.h ****           * whether it is possible to avoid doing a dynamic memory allocation.
 126:./Eigen/src/Core/DenseBase.h ****           *
 127:./Eigen/src/Core/DenseBase.h ****           * \sa RowsAtCompileTime, MaxColsAtCompileTime, MaxSizeAtCompileTime
 128:./Eigen/src/Core/DenseBase.h ****           */
 129:./Eigen/src/Core/DenseBase.h **** 
 130:./Eigen/src/Core/DenseBase.h ****       MaxColsAtCompileTime = internal::traits<Derived>::MaxColsAtCompileTime,
 131:./Eigen/src/Core/DenseBase.h ****         /**< This value is equal to the maximum possible number of columns that this expression
 132:./Eigen/src/Core/DenseBase.h ****           * might have. If this expression might have an arbitrarily high number of columns,
 133:./Eigen/src/Core/DenseBase.h ****           * this value is set to \a Dynamic.
 134:./Eigen/src/Core/DenseBase.h ****           *
 135:./Eigen/src/Core/DenseBase.h ****           * This value is useful to know when evaluating an expression, in order to determine
 136:./Eigen/src/Core/DenseBase.h ****           * whether it is possible to avoid doing a dynamic memory allocation.
 137:./Eigen/src/Core/DenseBase.h ****           *
 138:./Eigen/src/Core/DenseBase.h ****           * \sa ColsAtCompileTime, MaxRowsAtCompileTime, MaxSizeAtCompileTime
 139:./Eigen/src/Core/DenseBase.h ****           */
 140:./Eigen/src/Core/DenseBase.h **** 
 141:./Eigen/src/Core/DenseBase.h ****       MaxSizeAtCompileTime = (internal::size_at_compile_time<internal::traits<Derived>::MaxRowsAtCo
 142:./Eigen/src/Core/DenseBase.h ****                                                       internal::traits<Derived>::MaxColsAtCompileTi
 143:./Eigen/src/Core/DenseBase.h ****         /**< This value is equal to the maximum possible number of coefficients that this expressio
 144:./Eigen/src/Core/DenseBase.h ****           * might have. If this expression might have an arbitrarily high number of coefficients,
 145:./Eigen/src/Core/DenseBase.h ****           * this value is set to \a Dynamic.
 146:./Eigen/src/Core/DenseBase.h ****           *
 147:./Eigen/src/Core/DenseBase.h ****           * This value is useful to know when evaluating an expression, in order to determine
 148:./Eigen/src/Core/DenseBase.h ****           * whether it is possible to avoid doing a dynamic memory allocation.
 149:./Eigen/src/Core/DenseBase.h ****           *
 150:./Eigen/src/Core/DenseBase.h ****           * \sa SizeAtCompileTime, MaxRowsAtCompileTime, MaxColsAtCompileTime
 151:./Eigen/src/Core/DenseBase.h ****           */
 152:./Eigen/src/Core/DenseBase.h **** 
 153:./Eigen/src/Core/DenseBase.h ****       IsVectorAtCompileTime = internal::traits<Derived>::RowsAtCompileTime == 1
 154:./Eigen/src/Core/DenseBase.h ****                            || internal::traits<Derived>::ColsAtCompileTime == 1,
 155:./Eigen/src/Core/DenseBase.h ****         /**< This is set to true if either the number of rows or the number of
 156:./Eigen/src/Core/DenseBase.h ****           * columns is known at compile-time to be equal to 1. Indeed, in that case,
 157:./Eigen/src/Core/DenseBase.h ****           * we are dealing with a column-vector (if there is only one column) or with
 158:./Eigen/src/Core/DenseBase.h ****           * a row-vector (if there is only one row). */
 159:./Eigen/src/Core/DenseBase.h **** 
 160:./Eigen/src/Core/DenseBase.h ****       NumDimensions = int(MaxSizeAtCompileTime) == 1 ? 0 : bool(IsVectorAtCompileTime) ? 1 : 2,
 161:./Eigen/src/Core/DenseBase.h ****         /**< This value is equal to Tensor::NumDimensions, i.e. 0 for scalars, 1 for vectors,
 162:./Eigen/src/Core/DenseBase.h ****          * and 2 for matrices.
 163:./Eigen/src/Core/DenseBase.h ****          */
 164:./Eigen/src/Core/DenseBase.h **** 
ARM GAS  C:\Users\purdu\AppData\Local\Temp\ccYBYMxG.s 			page 20


 165:./Eigen/src/Core/DenseBase.h ****       Flags = internal::traits<Derived>::Flags,
 166:./Eigen/src/Core/DenseBase.h ****         /**< This stores expression \ref flags flags which may or may not be inherited by new expre
 167:./Eigen/src/Core/DenseBase.h ****           * constructed from this one. See the \ref flags "list of flags".
 168:./Eigen/src/Core/DenseBase.h ****           */
 169:./Eigen/src/Core/DenseBase.h **** 
 170:./Eigen/src/Core/DenseBase.h ****       IsRowMajor = int(Flags) & RowMajorBit, /**< True if this expression has row-major storage ord
 171:./Eigen/src/Core/DenseBase.h **** 
 172:./Eigen/src/Core/DenseBase.h ****       InnerSizeAtCompileTime = int(IsVectorAtCompileTime) ? int(SizeAtCompileTime)
 173:./Eigen/src/Core/DenseBase.h ****                              : int(IsRowMajor) ? int(ColsAtCompileTime) : int(RowsAtCompileTime),
 174:./Eigen/src/Core/DenseBase.h **** 
 175:./Eigen/src/Core/DenseBase.h ****       InnerStrideAtCompileTime = internal::inner_stride_at_compile_time<Derived>::ret,
 176:./Eigen/src/Core/DenseBase.h ****       OuterStrideAtCompileTime = internal::outer_stride_at_compile_time<Derived>::ret
 177:./Eigen/src/Core/DenseBase.h ****     };
 178:./Eigen/src/Core/DenseBase.h **** 
 179:./Eigen/src/Core/DenseBase.h ****     typedef typename internal::find_best_packet<Scalar,SizeAtCompileTime>::type PacketScalar;
 180:./Eigen/src/Core/DenseBase.h **** 
 181:./Eigen/src/Core/DenseBase.h ****     enum { IsPlainObjectBase = 0 };
 182:./Eigen/src/Core/DenseBase.h **** 
 183:./Eigen/src/Core/DenseBase.h ****     /** The plain matrix type corresponding to this expression.
 184:./Eigen/src/Core/DenseBase.h ****       * \sa PlainObject */
 185:./Eigen/src/Core/DenseBase.h ****     typedef Matrix<typename internal::traits<Derived>::Scalar,
 186:./Eigen/src/Core/DenseBase.h ****                 internal::traits<Derived>::RowsAtCompileTime,
 187:./Eigen/src/Core/DenseBase.h ****                 internal::traits<Derived>::ColsAtCompileTime,
 188:./Eigen/src/Core/DenseBase.h ****                 AutoAlign | (internal::traits<Derived>::Flags&RowMajorBit ? RowMajor : ColMajor),
 189:./Eigen/src/Core/DenseBase.h ****                 internal::traits<Derived>::MaxRowsAtCompileTime,
 190:./Eigen/src/Core/DenseBase.h ****                 internal::traits<Derived>::MaxColsAtCompileTime
 191:./Eigen/src/Core/DenseBase.h ****           > PlainMatrix;
 192:./Eigen/src/Core/DenseBase.h **** 
 193:./Eigen/src/Core/DenseBase.h ****     /** The plain array type corresponding to this expression.
 194:./Eigen/src/Core/DenseBase.h ****       * \sa PlainObject */
 195:./Eigen/src/Core/DenseBase.h ****     typedef Array<typename internal::traits<Derived>::Scalar,
 196:./Eigen/src/Core/DenseBase.h ****                 internal::traits<Derived>::RowsAtCompileTime,
 197:./Eigen/src/Core/DenseBase.h ****                 internal::traits<Derived>::ColsAtCompileTime,
 198:./Eigen/src/Core/DenseBase.h ****                 AutoAlign | (internal::traits<Derived>::Flags&RowMajorBit ? RowMajor : ColMajor),
 199:./Eigen/src/Core/DenseBase.h ****                 internal::traits<Derived>::MaxRowsAtCompileTime,
 200:./Eigen/src/Core/DenseBase.h ****                 internal::traits<Derived>::MaxColsAtCompileTime
 201:./Eigen/src/Core/DenseBase.h ****           > PlainArray;
 202:./Eigen/src/Core/DenseBase.h **** 
 203:./Eigen/src/Core/DenseBase.h ****     /** \brief The plain matrix or array type corresponding to this expression.
 204:./Eigen/src/Core/DenseBase.h ****       *
 205:./Eigen/src/Core/DenseBase.h ****       * This is not necessarily exactly the return type of eval(). In the case of plain matrices,
 206:./Eigen/src/Core/DenseBase.h ****       * the return type of eval() is a const reference to a matrix, not a matrix! It is however gua
 207:./Eigen/src/Core/DenseBase.h ****       * that the return type of eval() is either PlainObject or const PlainObject&.
 208:./Eigen/src/Core/DenseBase.h ****       */
 209:./Eigen/src/Core/DenseBase.h ****     typedef typename internal::conditional<internal::is_same<typename internal::traits<Derived>::Xp
 210:./Eigen/src/Core/DenseBase.h ****                                  PlainMatrix, PlainArray>::type PlainObject;
 211:./Eigen/src/Core/DenseBase.h **** 
 212:./Eigen/src/Core/DenseBase.h ****     /** \returns the number of nonzero coefficients which is in practice the number
 213:./Eigen/src/Core/DenseBase.h ****       * of stored coefficients. */
 214:./Eigen/src/Core/DenseBase.h ****     EIGEN_DEVICE_FUNC EIGEN_CONSTEXPR
 215:./Eigen/src/Core/DenseBase.h ****     inline Index nonZeros() const { return size(); }
 216:./Eigen/src/Core/DenseBase.h **** 
 217:./Eigen/src/Core/DenseBase.h ****     /** \returns the outer size.
 218:./Eigen/src/Core/DenseBase.h ****       *
 219:./Eigen/src/Core/DenseBase.h ****       * \note For a vector, this returns just 1. For a matrix (non-vector), this is the major dimen
 220:./Eigen/src/Core/DenseBase.h ****       * with respect to the \ref TopicStorageOrders "storage order", i.e., the number of columns fo
 221:./Eigen/src/Core/DenseBase.h ****       * column-major matrix, and the number of rows for a row-major matrix. */
ARM GAS  C:\Users\purdu\AppData\Local\Temp\ccYBYMxG.s 			page 21


 222:./Eigen/src/Core/DenseBase.h ****     EIGEN_DEVICE_FUNC EIGEN_CONSTEXPR
 223:./Eigen/src/Core/DenseBase.h ****     Index outerSize() const
 224:./Eigen/src/Core/DenseBase.h ****     {
 225:./Eigen/src/Core/DenseBase.h ****       return IsVectorAtCompileTime ? 1
 226:./Eigen/src/Core/DenseBase.h ****            : int(IsRowMajor) ? this->rows() : this->cols();
 227:./Eigen/src/Core/DenseBase.h ****     }
 228:./Eigen/src/Core/DenseBase.h **** 
 229:./Eigen/src/Core/DenseBase.h ****     /** \returns the inner size.
 230:./Eigen/src/Core/DenseBase.h ****       *
 231:./Eigen/src/Core/DenseBase.h ****       * \note For a vector, this is just the size. For a matrix (non-vector), this is the minor dim
 232:./Eigen/src/Core/DenseBase.h ****       * with respect to the \ref TopicStorageOrders "storage order", i.e., the number of rows for a
 233:./Eigen/src/Core/DenseBase.h ****       * column-major matrix, and the number of columns for a row-major matrix. */
 234:./Eigen/src/Core/DenseBase.h ****     EIGEN_DEVICE_FUNC EIGEN_CONSTEXPR
 235:./Eigen/src/Core/DenseBase.h ****     Index innerSize() const
 236:./Eigen/src/Core/DenseBase.h ****     {
 237:./Eigen/src/Core/DenseBase.h ****       return IsVectorAtCompileTime ? this->size()
 238:./Eigen/src/Core/DenseBase.h ****            : int(IsRowMajor) ? this->cols() : this->rows();
 239:./Eigen/src/Core/DenseBase.h ****     }
 240:./Eigen/src/Core/DenseBase.h **** 
 241:./Eigen/src/Core/DenseBase.h ****     /** Only plain matrices/arrays, not expressions, may be resized; therefore the only useful resi
 242:./Eigen/src/Core/DenseBase.h ****       * Matrix::resize() and Array::resize(). The present method only asserts that the new size equ
 243:./Eigen/src/Core/DenseBase.h ****       * nothing else.
 244:./Eigen/src/Core/DenseBase.h ****       */
 245:./Eigen/src/Core/DenseBase.h ****     EIGEN_DEVICE_FUNC
 246:./Eigen/src/Core/DenseBase.h ****     void resize(Index newSize)
 247:./Eigen/src/Core/DenseBase.h ****     {
 248:./Eigen/src/Core/DenseBase.h ****       EIGEN_ONLY_USED_FOR_DEBUG(newSize);
 249:./Eigen/src/Core/DenseBase.h ****       eigen_assert(newSize == this->size()
 250:./Eigen/src/Core/DenseBase.h ****                 && "DenseBase::resize() does not actually allow to resize.");
 251:./Eigen/src/Core/DenseBase.h ****     }
 252:./Eigen/src/Core/DenseBase.h ****     /** Only plain matrices/arrays, not expressions, may be resized; therefore the only useful resi
 253:./Eigen/src/Core/DenseBase.h ****       * Matrix::resize() and Array::resize(). The present method only asserts that the new size equ
 254:./Eigen/src/Core/DenseBase.h ****       * nothing else.
 255:./Eigen/src/Core/DenseBase.h ****       */
 256:./Eigen/src/Core/DenseBase.h ****     EIGEN_DEVICE_FUNC
 257:./Eigen/src/Core/DenseBase.h ****     void resize(Index rows, Index cols)
 258:./Eigen/src/Core/DenseBase.h ****     {
 259:./Eigen/src/Core/DenseBase.h ****       EIGEN_ONLY_USED_FOR_DEBUG(rows);
 260:./Eigen/src/Core/DenseBase.h ****       EIGEN_ONLY_USED_FOR_DEBUG(cols);
 261:./Eigen/src/Core/DenseBase.h ****       eigen_assert(rows == this->rows() && cols == this->cols()
 262:./Eigen/src/Core/DenseBase.h ****                 && "DenseBase::resize() does not actually allow to resize.");
 263:./Eigen/src/Core/DenseBase.h ****     }
 264:./Eigen/src/Core/DenseBase.h **** 
 265:./Eigen/src/Core/DenseBase.h **** #ifndef EIGEN_PARSED_BY_DOXYGEN
 266:./Eigen/src/Core/DenseBase.h ****     /** \internal Represents a matrix with all coefficients equal to one another*/
 267:./Eigen/src/Core/DenseBase.h ****     typedef CwiseNullaryOp<internal::scalar_constant_op<Scalar>,PlainObject> ConstantReturnType;
 268:./Eigen/src/Core/DenseBase.h ****     /** \internal \deprecated Represents a vector with linearly spaced coefficients that allows seq
 269:./Eigen/src/Core/DenseBase.h ****     EIGEN_DEPRECATED typedef CwiseNullaryOp<internal::linspaced_op<Scalar>,PlainObject> SequentialL
 270:./Eigen/src/Core/DenseBase.h ****     /** \internal Represents a vector with linearly spaced coefficients that allows random access. 
 271:./Eigen/src/Core/DenseBase.h ****     typedef CwiseNullaryOp<internal::linspaced_op<Scalar>,PlainObject> RandomAccessLinSpacedReturnT
 272:./Eigen/src/Core/DenseBase.h ****     /** \internal the return type of MatrixBase::eigenvalues() */
 273:./Eigen/src/Core/DenseBase.h ****     typedef Matrix<typename NumTraits<typename internal::traits<Derived>::Scalar>::Real, internal::
 274:./Eigen/src/Core/DenseBase.h **** 
 275:./Eigen/src/Core/DenseBase.h **** #endif // not EIGEN_PARSED_BY_DOXYGEN
 276:./Eigen/src/Core/DenseBase.h **** 
 277:./Eigen/src/Core/DenseBase.h ****     /** Copies \a other into *this. \returns a reference to *this. */
 278:./Eigen/src/Core/DenseBase.h ****     template<typename OtherDerived>
ARM GAS  C:\Users\purdu\AppData\Local\Temp\ccYBYMxG.s 			page 22


 279:./Eigen/src/Core/DenseBase.h ****     EIGEN_DEVICE_FUNC EIGEN_STRONG_INLINE
 280:./Eigen/src/Core/DenseBase.h ****     Derived& operator=(const DenseBase<OtherDerived>& other);
 281:./Eigen/src/Core/DenseBase.h **** 
 282:./Eigen/src/Core/DenseBase.h ****     /** Special case of the template operator=, in order to prevent the compiler
 283:./Eigen/src/Core/DenseBase.h ****       * from generating a default operator= (issue hit with g++ 4.1)
 284:./Eigen/src/Core/DenseBase.h ****       */
 285:./Eigen/src/Core/DenseBase.h ****     EIGEN_DEVICE_FUNC EIGEN_STRONG_INLINE
 286:./Eigen/src/Core/DenseBase.h ****     Derived& operator=(const DenseBase& other);
 287:./Eigen/src/Core/DenseBase.h **** 
 288:./Eigen/src/Core/DenseBase.h ****     template<typename OtherDerived>
 289:./Eigen/src/Core/DenseBase.h ****     EIGEN_DEVICE_FUNC
 290:./Eigen/src/Core/DenseBase.h ****     Derived& operator=(const EigenBase<OtherDerived> &other);
 291:./Eigen/src/Core/DenseBase.h **** 
 292:./Eigen/src/Core/DenseBase.h ****     template<typename OtherDerived>
 293:./Eigen/src/Core/DenseBase.h ****     EIGEN_DEVICE_FUNC
 294:./Eigen/src/Core/DenseBase.h ****     Derived& operator+=(const EigenBase<OtherDerived> &other);
 295:./Eigen/src/Core/DenseBase.h **** 
 296:./Eigen/src/Core/DenseBase.h ****     template<typename OtherDerived>
 297:./Eigen/src/Core/DenseBase.h ****     EIGEN_DEVICE_FUNC
 298:./Eigen/src/Core/DenseBase.h ****     Derived& operator-=(const EigenBase<OtherDerived> &other);
 299:./Eigen/src/Core/DenseBase.h **** 
 300:./Eigen/src/Core/DenseBase.h ****     template<typename OtherDerived>
 301:./Eigen/src/Core/DenseBase.h ****     EIGEN_DEVICE_FUNC
 302:./Eigen/src/Core/DenseBase.h ****     Derived& operator=(const ReturnByValue<OtherDerived>& func);
 303:./Eigen/src/Core/DenseBase.h **** 
 304:./Eigen/src/Core/DenseBase.h ****     /** \internal
 305:./Eigen/src/Core/DenseBase.h ****       * Copies \a other into *this without evaluating other. \returns a reference to *this. */
 306:./Eigen/src/Core/DenseBase.h ****     template<typename OtherDerived>
 307:./Eigen/src/Core/DenseBase.h ****     /** \deprecated */
 308:./Eigen/src/Core/DenseBase.h ****     EIGEN_DEPRECATED EIGEN_DEVICE_FUNC
 309:./Eigen/src/Core/DenseBase.h ****     Derived& lazyAssign(const DenseBase<OtherDerived>& other);
 310:./Eigen/src/Core/DenseBase.h **** 
 311:./Eigen/src/Core/DenseBase.h ****     EIGEN_DEVICE_FUNC
 312:./Eigen/src/Core/DenseBase.h ****     CommaInitializer<Derived> operator<< (const Scalar& s);
 313:./Eigen/src/Core/DenseBase.h **** 
 314:./Eigen/src/Core/DenseBase.h ****     template<unsigned int Added,unsigned int Removed>
 315:./Eigen/src/Core/DenseBase.h ****     /** \deprecated it now returns \c *this */
 316:./Eigen/src/Core/DenseBase.h ****     EIGEN_DEPRECATED
 317:./Eigen/src/Core/DenseBase.h ****     const Derived& flagged() const
 318:./Eigen/src/Core/DenseBase.h ****     { return derived(); }
 319:./Eigen/src/Core/DenseBase.h **** 
 320:./Eigen/src/Core/DenseBase.h ****     template<typename OtherDerived>
 321:./Eigen/src/Core/DenseBase.h ****     EIGEN_DEVICE_FUNC
 322:./Eigen/src/Core/DenseBase.h ****     CommaInitializer<Derived> operator<< (const DenseBase<OtherDerived>& other);
 323:./Eigen/src/Core/DenseBase.h **** 
 324:./Eigen/src/Core/DenseBase.h ****     typedef Transpose<Derived> TransposeReturnType;
 325:./Eigen/src/Core/DenseBase.h ****     EIGEN_DEVICE_FUNC
 326:./Eigen/src/Core/DenseBase.h ****     TransposeReturnType transpose();
 327:./Eigen/src/Core/DenseBase.h ****     typedef typename internal::add_const<Transpose<const Derived> >::type ConstTransposeReturnType;
 328:./Eigen/src/Core/DenseBase.h ****     EIGEN_DEVICE_FUNC
 329:./Eigen/src/Core/DenseBase.h ****     ConstTransposeReturnType transpose() const;
 330:./Eigen/src/Core/DenseBase.h ****     EIGEN_DEVICE_FUNC
 331:./Eigen/src/Core/DenseBase.h ****     void transposeInPlace();
 332:./Eigen/src/Core/DenseBase.h **** 
 333:./Eigen/src/Core/DenseBase.h ****     EIGEN_DEVICE_FUNC static const ConstantReturnType
 334:./Eigen/src/Core/DenseBase.h ****     Constant(Index rows, Index cols, const Scalar& value);
 335:./Eigen/src/Core/DenseBase.h ****     EIGEN_DEVICE_FUNC static const ConstantReturnType
ARM GAS  C:\Users\purdu\AppData\Local\Temp\ccYBYMxG.s 			page 23


 336:./Eigen/src/Core/DenseBase.h ****     Constant(Index size, const Scalar& value);
 337:./Eigen/src/Core/DenseBase.h ****     EIGEN_DEVICE_FUNC static const ConstantReturnType
 338:./Eigen/src/Core/DenseBase.h ****     Constant(const Scalar& value);
 339:./Eigen/src/Core/DenseBase.h **** 
 340:./Eigen/src/Core/DenseBase.h ****     EIGEN_DEPRECATED EIGEN_DEVICE_FUNC static const RandomAccessLinSpacedReturnType
 341:./Eigen/src/Core/DenseBase.h ****     LinSpaced(Sequential_t, Index size, const Scalar& low, const Scalar& high);
 342:./Eigen/src/Core/DenseBase.h ****     EIGEN_DEPRECATED EIGEN_DEVICE_FUNC static const RandomAccessLinSpacedReturnType
 343:./Eigen/src/Core/DenseBase.h ****     LinSpaced(Sequential_t, const Scalar& low, const Scalar& high);
 344:./Eigen/src/Core/DenseBase.h **** 
 345:./Eigen/src/Core/DenseBase.h ****     EIGEN_DEVICE_FUNC static const RandomAccessLinSpacedReturnType
 346:./Eigen/src/Core/DenseBase.h ****     LinSpaced(Index size, const Scalar& low, const Scalar& high);
 347:./Eigen/src/Core/DenseBase.h ****     EIGEN_DEVICE_FUNC static const RandomAccessLinSpacedReturnType
 348:./Eigen/src/Core/DenseBase.h ****     LinSpaced(const Scalar& low, const Scalar& high);
 349:./Eigen/src/Core/DenseBase.h **** 
 350:./Eigen/src/Core/DenseBase.h ****     template<typename CustomNullaryOp> EIGEN_DEVICE_FUNC
 351:./Eigen/src/Core/DenseBase.h ****     static const CwiseNullaryOp<CustomNullaryOp, PlainObject>
 352:./Eigen/src/Core/DenseBase.h ****     NullaryExpr(Index rows, Index cols, const CustomNullaryOp& func);
 353:./Eigen/src/Core/DenseBase.h ****     template<typename CustomNullaryOp> EIGEN_DEVICE_FUNC
 354:./Eigen/src/Core/DenseBase.h ****     static const CwiseNullaryOp<CustomNullaryOp, PlainObject>
 355:./Eigen/src/Core/DenseBase.h ****     NullaryExpr(Index size, const CustomNullaryOp& func);
 356:./Eigen/src/Core/DenseBase.h ****     template<typename CustomNullaryOp> EIGEN_DEVICE_FUNC
 357:./Eigen/src/Core/DenseBase.h ****     static const CwiseNullaryOp<CustomNullaryOp, PlainObject>
 358:./Eigen/src/Core/DenseBase.h ****     NullaryExpr(const CustomNullaryOp& func);
 359:./Eigen/src/Core/DenseBase.h **** 
 360:./Eigen/src/Core/DenseBase.h ****     EIGEN_DEVICE_FUNC static const ConstantReturnType Zero(Index rows, Index cols);
 361:./Eigen/src/Core/DenseBase.h ****     EIGEN_DEVICE_FUNC static const ConstantReturnType Zero(Index size);
 362:./Eigen/src/Core/DenseBase.h ****     EIGEN_DEVICE_FUNC static const ConstantReturnType Zero();
 363:./Eigen/src/Core/DenseBase.h ****     EIGEN_DEVICE_FUNC static const ConstantReturnType Ones(Index rows, Index cols);
 364:./Eigen/src/Core/DenseBase.h ****     EIGEN_DEVICE_FUNC static const ConstantReturnType Ones(Index size);
 365:./Eigen/src/Core/DenseBase.h ****     EIGEN_DEVICE_FUNC static const ConstantReturnType Ones();
 366:./Eigen/src/Core/DenseBase.h **** 
 367:./Eigen/src/Core/DenseBase.h ****     EIGEN_DEVICE_FUNC void fill(const Scalar& value);
 368:./Eigen/src/Core/DenseBase.h ****     EIGEN_DEVICE_FUNC Derived& setConstant(const Scalar& value);
 369:./Eigen/src/Core/DenseBase.h ****     EIGEN_DEVICE_FUNC Derived& setLinSpaced(Index size, const Scalar& low, const Scalar& high);
 370:./Eigen/src/Core/DenseBase.h ****     EIGEN_DEVICE_FUNC Derived& setLinSpaced(const Scalar& low, const Scalar& high);
 371:./Eigen/src/Core/DenseBase.h ****     EIGEN_DEVICE_FUNC Derived& setZero();
 372:./Eigen/src/Core/DenseBase.h ****     EIGEN_DEVICE_FUNC Derived& setOnes();
 373:./Eigen/src/Core/DenseBase.h ****     EIGEN_DEVICE_FUNC Derived& setRandom();
 374:./Eigen/src/Core/DenseBase.h **** 
 375:./Eigen/src/Core/DenseBase.h ****     template<typename OtherDerived> EIGEN_DEVICE_FUNC
 376:./Eigen/src/Core/DenseBase.h ****     bool isApprox(const DenseBase<OtherDerived>& other,
 377:./Eigen/src/Core/DenseBase.h ****                   const RealScalar& prec = NumTraits<Scalar>::dummy_precision()) const;
 378:./Eigen/src/Core/DenseBase.h ****     EIGEN_DEVICE_FUNC
 379:./Eigen/src/Core/DenseBase.h ****     bool isMuchSmallerThan(const RealScalar& other,
 380:./Eigen/src/Core/DenseBase.h ****                            const RealScalar& prec = NumTraits<Scalar>::dummy_precision()) const;
 381:./Eigen/src/Core/DenseBase.h ****     template<typename OtherDerived> EIGEN_DEVICE_FUNC
 382:./Eigen/src/Core/DenseBase.h ****     bool isMuchSmallerThan(const DenseBase<OtherDerived>& other,
 383:./Eigen/src/Core/DenseBase.h ****                            const RealScalar& prec = NumTraits<Scalar>::dummy_precision()) const;
 384:./Eigen/src/Core/DenseBase.h **** 
 385:./Eigen/src/Core/DenseBase.h ****     EIGEN_DEVICE_FUNC bool isApproxToConstant(const Scalar& value, const RealScalar& prec = NumTrai
 386:./Eigen/src/Core/DenseBase.h ****     EIGEN_DEVICE_FUNC bool isConstant(const Scalar& value, const RealScalar& prec = NumTraits<Scala
 387:./Eigen/src/Core/DenseBase.h ****     EIGEN_DEVICE_FUNC bool isZero(const RealScalar& prec = NumTraits<Scalar>::dummy_precision()) co
 388:./Eigen/src/Core/DenseBase.h ****     EIGEN_DEVICE_FUNC bool isOnes(const RealScalar& prec = NumTraits<Scalar>::dummy_precision()) co
 389:./Eigen/src/Core/DenseBase.h **** 
 390:./Eigen/src/Core/DenseBase.h ****     inline bool hasNaN() const;
 391:./Eigen/src/Core/DenseBase.h ****     inline bool allFinite() const;
 392:./Eigen/src/Core/DenseBase.h **** 
ARM GAS  C:\Users\purdu\AppData\Local\Temp\ccYBYMxG.s 			page 24


 393:./Eigen/src/Core/DenseBase.h ****     EIGEN_DEVICE_FUNC EIGEN_STRONG_INLINE
 394:./Eigen/src/Core/DenseBase.h ****     Derived& operator*=(const Scalar& other);
 395:./Eigen/src/Core/DenseBase.h ****     EIGEN_DEVICE_FUNC EIGEN_STRONG_INLINE
 396:./Eigen/src/Core/DenseBase.h ****     Derived& operator/=(const Scalar& other);
 397:./Eigen/src/Core/DenseBase.h **** 
 398:./Eigen/src/Core/DenseBase.h ****     typedef typename internal::add_const_on_value_type<typename internal::eval<Derived>::type>::typ
 399:./Eigen/src/Core/DenseBase.h ****     /** \returns the matrix or vector obtained by evaluating this expression.
 400:./Eigen/src/Core/DenseBase.h ****       *
 401:./Eigen/src/Core/DenseBase.h ****       * Notice that in the case of a plain matrix or vector (not an expression) this function just 
 402:./Eigen/src/Core/DenseBase.h ****       * a const reference, in order to avoid a useless copy.
 403:./Eigen/src/Core/DenseBase.h ****       *
 404:./Eigen/src/Core/DenseBase.h ****       * \warning Be careful with eval() and the auto C++ keyword, as detailed in this \link TopicPi
 405:./Eigen/src/Core/DenseBase.h ****       */
 406:./Eigen/src/Core/DenseBase.h ****     EIGEN_DEVICE_FUNC
 407:./Eigen/src/Core/DenseBase.h ****     EIGEN_STRONG_INLINE EvalReturnType eval() const
 408:./Eigen/src/Core/DenseBase.h ****     {
 409:./Eigen/src/Core/DenseBase.h ****       // Even though MSVC does not honor strong inlining when the return type
 410:./Eigen/src/Core/DenseBase.h ****       // is a dynamic matrix, we desperately need strong inlining for fixed
 411:./Eigen/src/Core/DenseBase.h ****       // size types on MSVC.
 412:./Eigen/src/Core/DenseBase.h ****       return typename internal::eval<Derived>::type(derived());
 413:./Eigen/src/Core/DenseBase.h ****     }
 414:./Eigen/src/Core/DenseBase.h **** 
 415:./Eigen/src/Core/DenseBase.h ****     /** swaps *this with the expression \a other.
 416:./Eigen/src/Core/DenseBase.h ****       *
 417:./Eigen/src/Core/DenseBase.h ****       */
 418:./Eigen/src/Core/DenseBase.h ****     template<typename OtherDerived>
 419:./Eigen/src/Core/DenseBase.h ****     EIGEN_DEVICE_FUNC EIGEN_STRONG_INLINE
 420:./Eigen/src/Core/DenseBase.h ****     void swap(const DenseBase<OtherDerived>& other)
 421:./Eigen/src/Core/DenseBase.h ****     {
 422:./Eigen/src/Core/DenseBase.h ****       EIGEN_STATIC_ASSERT(!OtherDerived::IsPlainObjectBase,THIS_EXPRESSION_IS_NOT_A_LVALUE__IT_IS_R
 423:./Eigen/src/Core/DenseBase.h ****       eigen_assert(rows()==other.rows() && cols()==other.cols());
 424:./Eigen/src/Core/DenseBase.h ****       call_assignment(derived(), other.const_cast_derived(), internal::swap_assign_op<Scalar>());
 425:./Eigen/src/Core/DenseBase.h ****     }
 426:./Eigen/src/Core/DenseBase.h **** 
 427:./Eigen/src/Core/DenseBase.h ****     /** swaps *this with the matrix or array \a other.
 428:./Eigen/src/Core/DenseBase.h ****       *
 429:./Eigen/src/Core/DenseBase.h ****       */
 430:./Eigen/src/Core/DenseBase.h ****     template<typename OtherDerived>
 431:./Eigen/src/Core/DenseBase.h ****     EIGEN_DEVICE_FUNC EIGEN_STRONG_INLINE
 432:./Eigen/src/Core/DenseBase.h ****     void swap(PlainObjectBase<OtherDerived>& other)
 433:./Eigen/src/Core/DenseBase.h ****     {
 434:./Eigen/src/Core/DenseBase.h ****       eigen_assert(rows()==other.rows() && cols()==other.cols());
 435:./Eigen/src/Core/DenseBase.h ****       call_assignment(derived(), other.derived(), internal::swap_assign_op<Scalar>());
 436:./Eigen/src/Core/DenseBase.h ****     }
 437:./Eigen/src/Core/DenseBase.h **** 
 438:./Eigen/src/Core/DenseBase.h ****     EIGEN_DEVICE_FUNC inline const NestByValue<Derived> nestByValue() const;
 439:./Eigen/src/Core/DenseBase.h ****     EIGEN_DEVICE_FUNC inline const ForceAlignedAccess<Derived> forceAlignedAccess() const;
 440:./Eigen/src/Core/DenseBase.h ****     EIGEN_DEVICE_FUNC inline ForceAlignedAccess<Derived> forceAlignedAccess();
 441:./Eigen/src/Core/DenseBase.h ****     template<bool Enable> EIGEN_DEVICE_FUNC
 442:./Eigen/src/Core/DenseBase.h ****     inline const typename internal::conditional<Enable,ForceAlignedAccess<Derived>,Derived&>::type 
 443:./Eigen/src/Core/DenseBase.h ****     template<bool Enable> EIGEN_DEVICE_FUNC
 444:./Eigen/src/Core/DenseBase.h ****     inline typename internal::conditional<Enable,ForceAlignedAccess<Derived>,Derived&>::type forceA
 445:./Eigen/src/Core/DenseBase.h **** 
 446:./Eigen/src/Core/DenseBase.h ****     EIGEN_DEVICE_FUNC Scalar sum() const;
 447:./Eigen/src/Core/DenseBase.h ****     EIGEN_DEVICE_FUNC Scalar mean() const;
 448:./Eigen/src/Core/DenseBase.h ****     EIGEN_DEVICE_FUNC Scalar trace() const;
 449:./Eigen/src/Core/DenseBase.h **** 
ARM GAS  C:\Users\purdu\AppData\Local\Temp\ccYBYMxG.s 			page 25


 450:./Eigen/src/Core/DenseBase.h ****     EIGEN_DEVICE_FUNC Scalar prod() const;
 451:./Eigen/src/Core/DenseBase.h **** 
 452:./Eigen/src/Core/DenseBase.h ****     template<int NaNPropagation>
 453:./Eigen/src/Core/DenseBase.h ****     EIGEN_DEVICE_FUNC typename internal::traits<Derived>::Scalar minCoeff() const;
 454:./Eigen/src/Core/DenseBase.h ****     template<int NaNPropagation>
 455:./Eigen/src/Core/DenseBase.h ****     EIGEN_DEVICE_FUNC typename internal::traits<Derived>::Scalar maxCoeff() const;
 456:./Eigen/src/Core/DenseBase.h **** 
 457:./Eigen/src/Core/DenseBase.h **** 
 458:./Eigen/src/Core/DenseBase.h ****     // By default, the fastest version with undefined NaN propagation semantics is
 459:./Eigen/src/Core/DenseBase.h ****     // used.
 460:./Eigen/src/Core/DenseBase.h ****     // TODO(rmlarsen): Replace with default template argument when we move to
 461:./Eigen/src/Core/DenseBase.h ****     // c++11 or beyond.
 462:./Eigen/src/Core/DenseBase.h ****     EIGEN_DEVICE_FUNC inline typename internal::traits<Derived>::Scalar minCoeff() const {
 463:./Eigen/src/Core/DenseBase.h ****       return minCoeff<PropagateFast>();
 464:./Eigen/src/Core/DenseBase.h ****     }
 465:./Eigen/src/Core/DenseBase.h ****     EIGEN_DEVICE_FUNC inline typename internal::traits<Derived>::Scalar maxCoeff() const {
 466:./Eigen/src/Core/DenseBase.h ****       return maxCoeff<PropagateFast>();
 467:./Eigen/src/Core/DenseBase.h ****     }
 468:./Eigen/src/Core/DenseBase.h **** 
 469:./Eigen/src/Core/DenseBase.h ****     template<int NaNPropagation, typename IndexType>
 470:./Eigen/src/Core/DenseBase.h ****     EIGEN_DEVICE_FUNC
 471:./Eigen/src/Core/DenseBase.h ****     typename internal::traits<Derived>::Scalar minCoeff(IndexType* row, IndexType* col) const;
 472:./Eigen/src/Core/DenseBase.h ****     template<int NaNPropagation, typename IndexType>
 473:./Eigen/src/Core/DenseBase.h ****     EIGEN_DEVICE_FUNC
 474:./Eigen/src/Core/DenseBase.h ****     typename internal::traits<Derived>::Scalar maxCoeff(IndexType* row, IndexType* col) const;
 475:./Eigen/src/Core/DenseBase.h ****     template<int NaNPropagation, typename IndexType>
 476:./Eigen/src/Core/DenseBase.h ****     EIGEN_DEVICE_FUNC
 477:./Eigen/src/Core/DenseBase.h ****     typename internal::traits<Derived>::Scalar minCoeff(IndexType* index) const;
 478:./Eigen/src/Core/DenseBase.h ****     template<int NaNPropagation, typename IndexType>
 479:./Eigen/src/Core/DenseBase.h ****     EIGEN_DEVICE_FUNC
 480:./Eigen/src/Core/DenseBase.h ****     typename internal::traits<Derived>::Scalar maxCoeff(IndexType* index) const;
 481:./Eigen/src/Core/DenseBase.h **** 
 482:./Eigen/src/Core/DenseBase.h ****     // TODO(rmlarsen): Replace these methods with a default template argument.
 483:./Eigen/src/Core/DenseBase.h ****     template<typename IndexType>
 484:./Eigen/src/Core/DenseBase.h ****     EIGEN_DEVICE_FUNC inline
 485:./Eigen/src/Core/DenseBase.h ****     typename internal::traits<Derived>::Scalar minCoeff(IndexType* row, IndexType* col) const {
 486:./Eigen/src/Core/DenseBase.h ****       return minCoeff<PropagateFast>(row, col);
 487:./Eigen/src/Core/DenseBase.h ****     }
 488:./Eigen/src/Core/DenseBase.h ****     template<typename IndexType>
 489:./Eigen/src/Core/DenseBase.h ****     EIGEN_DEVICE_FUNC inline
 490:./Eigen/src/Core/DenseBase.h ****     typename internal::traits<Derived>::Scalar maxCoeff(IndexType* row, IndexType* col) const {
 491:./Eigen/src/Core/DenseBase.h ****       return maxCoeff<PropagateFast>(row, col);
 492:./Eigen/src/Core/DenseBase.h ****     }
 493:./Eigen/src/Core/DenseBase.h ****     template<typename IndexType>
 494:./Eigen/src/Core/DenseBase.h ****      EIGEN_DEVICE_FUNC inline
 495:./Eigen/src/Core/DenseBase.h ****     typename internal::traits<Derived>::Scalar minCoeff(IndexType* index) const {
 496:./Eigen/src/Core/DenseBase.h ****       return minCoeff<PropagateFast>(index);
 497:./Eigen/src/Core/DenseBase.h ****     }
 498:./Eigen/src/Core/DenseBase.h ****     template<typename IndexType>
 499:./Eigen/src/Core/DenseBase.h ****     EIGEN_DEVICE_FUNC inline
 500:./Eigen/src/Core/DenseBase.h ****     typename internal::traits<Derived>::Scalar maxCoeff(IndexType* index) const {
 501:./Eigen/src/Core/DenseBase.h ****       return maxCoeff<PropagateFast>(index);
 502:./Eigen/src/Core/DenseBase.h ****     }
 503:./Eigen/src/Core/DenseBase.h ****   
 504:./Eigen/src/Core/DenseBase.h ****     template<typename BinaryOp>
 505:./Eigen/src/Core/DenseBase.h ****     EIGEN_DEVICE_FUNC
 506:./Eigen/src/Core/DenseBase.h ****     Scalar redux(const BinaryOp& func) const;
ARM GAS  C:\Users\purdu\AppData\Local\Temp\ccYBYMxG.s 			page 26


 507:./Eigen/src/Core/DenseBase.h **** 
 508:./Eigen/src/Core/DenseBase.h ****     template<typename Visitor>
 509:./Eigen/src/Core/DenseBase.h ****     EIGEN_DEVICE_FUNC
 510:./Eigen/src/Core/DenseBase.h ****     void visit(Visitor& func) const;
 511:./Eigen/src/Core/DenseBase.h **** 
 512:./Eigen/src/Core/DenseBase.h ****     /** \returns a WithFormat proxy object allowing to print a matrix the with given
 513:./Eigen/src/Core/DenseBase.h ****       * format \a fmt.
 514:./Eigen/src/Core/DenseBase.h ****       *
 515:./Eigen/src/Core/DenseBase.h ****       * See class IOFormat for some examples.
 516:./Eigen/src/Core/DenseBase.h ****       *
 517:./Eigen/src/Core/DenseBase.h ****       * \sa class IOFormat, class WithFormat
 518:./Eigen/src/Core/DenseBase.h ****       */
 519:./Eigen/src/Core/DenseBase.h ****     inline const WithFormat<Derived> format(const IOFormat& fmt) const
 520:./Eigen/src/Core/DenseBase.h ****     {
 521:./Eigen/src/Core/DenseBase.h ****       return WithFormat<Derived>(derived(), fmt);
 522:./Eigen/src/Core/DenseBase.h ****     }
 523:./Eigen/src/Core/DenseBase.h **** 
 524:./Eigen/src/Core/DenseBase.h ****     /** \returns the unique coefficient of a 1x1 expression */
 525:./Eigen/src/Core/DenseBase.h ****     EIGEN_DEVICE_FUNC
 526:./Eigen/src/Core/DenseBase.h ****     CoeffReturnType value() const
 527:./Eigen/src/Core/DenseBase.h ****     {
 528:./Eigen/src/Core/DenseBase.h ****       EIGEN_STATIC_ASSERT_SIZE_1x1(Derived)
 529:./Eigen/src/Core/DenseBase.h ****       eigen_assert(this->rows() == 1 && this->cols() == 1);
 530:./Eigen/src/Core/DenseBase.h ****       return derived().coeff(0,0);
 531:./Eigen/src/Core/DenseBase.h ****     }
 532:./Eigen/src/Core/DenseBase.h **** 
 533:./Eigen/src/Core/DenseBase.h ****     EIGEN_DEVICE_FUNC bool all() const;
 534:./Eigen/src/Core/DenseBase.h ****     EIGEN_DEVICE_FUNC bool any() const;
 535:./Eigen/src/Core/DenseBase.h ****     EIGEN_DEVICE_FUNC Index count() const;
 536:./Eigen/src/Core/DenseBase.h **** 
 537:./Eigen/src/Core/DenseBase.h ****     typedef VectorwiseOp<Derived, Horizontal> RowwiseReturnType;
 538:./Eigen/src/Core/DenseBase.h ****     typedef const VectorwiseOp<const Derived, Horizontal> ConstRowwiseReturnType;
 539:./Eigen/src/Core/DenseBase.h ****     typedef VectorwiseOp<Derived, Vertical> ColwiseReturnType;
 540:./Eigen/src/Core/DenseBase.h ****     typedef const VectorwiseOp<const Derived, Vertical> ConstColwiseReturnType;
 541:./Eigen/src/Core/DenseBase.h **** 
 542:./Eigen/src/Core/DenseBase.h ****     /** \returns a VectorwiseOp wrapper of *this for broadcasting and partial reductions
 543:./Eigen/src/Core/DenseBase.h ****     *
 544:./Eigen/src/Core/DenseBase.h ****     * Example: \include MatrixBase_rowwise.cpp
 545:./Eigen/src/Core/DenseBase.h ****     * Output: \verbinclude MatrixBase_rowwise.out
 546:./Eigen/src/Core/DenseBase.h ****     *
 547:./Eigen/src/Core/DenseBase.h ****     * \sa colwise(), class VectorwiseOp, \ref TutorialReductionsVisitorsBroadcasting
 548:./Eigen/src/Core/DenseBase.h ****     */
 549:./Eigen/src/Core/DenseBase.h ****     //Code moved here due to a CUDA compiler bug
 550:./Eigen/src/Core/DenseBase.h ****     EIGEN_DEVICE_FUNC inline ConstRowwiseReturnType rowwise() const {
 551:./Eigen/src/Core/DenseBase.h ****       return ConstRowwiseReturnType(derived());
 552:./Eigen/src/Core/DenseBase.h ****     }
 553:./Eigen/src/Core/DenseBase.h ****     EIGEN_DEVICE_FUNC RowwiseReturnType rowwise();
 554:./Eigen/src/Core/DenseBase.h **** 
 555:./Eigen/src/Core/DenseBase.h ****     /** \returns a VectorwiseOp wrapper of *this broadcasting and partial reductions
 556:./Eigen/src/Core/DenseBase.h ****     *
 557:./Eigen/src/Core/DenseBase.h ****     * Example: \include MatrixBase_colwise.cpp
 558:./Eigen/src/Core/DenseBase.h ****     * Output: \verbinclude MatrixBase_colwise.out
 559:./Eigen/src/Core/DenseBase.h ****     *
 560:./Eigen/src/Core/DenseBase.h ****     * \sa rowwise(), class VectorwiseOp, \ref TutorialReductionsVisitorsBroadcasting
 561:./Eigen/src/Core/DenseBase.h ****     */
 562:./Eigen/src/Core/DenseBase.h ****     EIGEN_DEVICE_FUNC inline ConstColwiseReturnType colwise() const {
 563:./Eigen/src/Core/DenseBase.h ****       return ConstColwiseReturnType(derived());
ARM GAS  C:\Users\purdu\AppData\Local\Temp\ccYBYMxG.s 			page 27


 564:./Eigen/src/Core/DenseBase.h ****     }
 565:./Eigen/src/Core/DenseBase.h ****     EIGEN_DEVICE_FUNC ColwiseReturnType colwise();
 566:./Eigen/src/Core/DenseBase.h **** 
 567:./Eigen/src/Core/DenseBase.h ****     typedef CwiseNullaryOp<internal::scalar_random_op<Scalar>,PlainObject> RandomReturnType;
 568:./Eigen/src/Core/DenseBase.h ****     static const RandomReturnType Random(Index rows, Index cols);
 569:./Eigen/src/Core/DenseBase.h ****     static const RandomReturnType Random(Index size);
 570:./Eigen/src/Core/DenseBase.h ****     static const RandomReturnType Random();
 571:./Eigen/src/Core/DenseBase.h **** 
 572:./Eigen/src/Core/DenseBase.h ****     template<typename ThenDerived,typename ElseDerived>
 573:./Eigen/src/Core/DenseBase.h ****     inline EIGEN_DEVICE_FUNC const Select<Derived,ThenDerived,ElseDerived>
 574:./Eigen/src/Core/DenseBase.h ****     select(const DenseBase<ThenDerived>& thenMatrix,
 575:./Eigen/src/Core/DenseBase.h ****            const DenseBase<ElseDerived>& elseMatrix) const;
 576:./Eigen/src/Core/DenseBase.h **** 
 577:./Eigen/src/Core/DenseBase.h ****     template<typename ThenDerived>
 578:./Eigen/src/Core/DenseBase.h ****     inline EIGEN_DEVICE_FUNC const Select<Derived,ThenDerived, typename ThenDerived::ConstantReturn
 579:./Eigen/src/Core/DenseBase.h ****     select(const DenseBase<ThenDerived>& thenMatrix, const typename ThenDerived::Scalar& elseScalar
 580:./Eigen/src/Core/DenseBase.h **** 
 581:./Eigen/src/Core/DenseBase.h ****     template<typename ElseDerived>
 582:./Eigen/src/Core/DenseBase.h ****     inline EIGEN_DEVICE_FUNC const Select<Derived, typename ElseDerived::ConstantReturnType, ElseDe
 583:./Eigen/src/Core/DenseBase.h ****     select(const typename ElseDerived::Scalar& thenScalar, const DenseBase<ElseDerived>& elseMatrix
 584:./Eigen/src/Core/DenseBase.h **** 
 585:./Eigen/src/Core/DenseBase.h ****     template<int p> RealScalar lpNorm() const;
 586:./Eigen/src/Core/DenseBase.h **** 
 587:./Eigen/src/Core/DenseBase.h ****     template<int RowFactor, int ColFactor>
 588:./Eigen/src/Core/DenseBase.h ****     EIGEN_DEVICE_FUNC
 589:./Eigen/src/Core/DenseBase.h ****     const Replicate<Derived,RowFactor,ColFactor> replicate() const;
 590:./Eigen/src/Core/DenseBase.h ****     /**
 591:./Eigen/src/Core/DenseBase.h ****     * \return an expression of the replication of \c *this
 592:./Eigen/src/Core/DenseBase.h ****     *
 593:./Eigen/src/Core/DenseBase.h ****     * Example: \include MatrixBase_replicate_int_int.cpp
 594:./Eigen/src/Core/DenseBase.h ****     * Output: \verbinclude MatrixBase_replicate_int_int.out
 595:./Eigen/src/Core/DenseBase.h ****     *
 596:./Eigen/src/Core/DenseBase.h ****     * \sa VectorwiseOp::replicate(), DenseBase::replicate<int,int>(), class Replicate
 597:./Eigen/src/Core/DenseBase.h ****     */
 598:./Eigen/src/Core/DenseBase.h ****     //Code moved here due to a CUDA compiler bug
 599:./Eigen/src/Core/DenseBase.h ****     EIGEN_DEVICE_FUNC
 600:./Eigen/src/Core/DenseBase.h ****     const Replicate<Derived, Dynamic, Dynamic> replicate(Index rowFactor, Index colFactor) const
 601:./Eigen/src/Core/DenseBase.h ****     {
 602:./Eigen/src/Core/DenseBase.h ****       return Replicate<Derived, Dynamic, Dynamic>(derived(), rowFactor, colFactor);
 603:./Eigen/src/Core/DenseBase.h ****     }
 604:./Eigen/src/Core/DenseBase.h **** 
 605:./Eigen/src/Core/DenseBase.h ****     typedef Reverse<Derived, BothDirections> ReverseReturnType;
 606:./Eigen/src/Core/DenseBase.h ****     typedef const Reverse<const Derived, BothDirections> ConstReverseReturnType;
 607:./Eigen/src/Core/DenseBase.h ****     EIGEN_DEVICE_FUNC ReverseReturnType reverse();
 608:./Eigen/src/Core/DenseBase.h ****     /** This is the const version of reverse(). */
 609:./Eigen/src/Core/DenseBase.h ****     //Code moved here due to a CUDA compiler bug
 610:./Eigen/src/Core/DenseBase.h ****     EIGEN_DEVICE_FUNC ConstReverseReturnType reverse() const
 611:./Eigen/src/Core/DenseBase.h ****     {
 612:./Eigen/src/Core/DenseBase.h ****       return ConstReverseReturnType(derived());
 613:./Eigen/src/Core/DenseBase.h ****     }
 614:./Eigen/src/Core/DenseBase.h ****     EIGEN_DEVICE_FUNC void reverseInPlace();
 615:./Eigen/src/Core/DenseBase.h **** 
 616:./Eigen/src/Core/DenseBase.h ****     #ifdef EIGEN_PARSED_BY_DOXYGEN
 617:./Eigen/src/Core/DenseBase.h ****     /** STL-like <a href="https://en.cppreference.com/w/cpp/named_req/RandomAccessIterator">RandomA
 618:./Eigen/src/Core/DenseBase.h ****       * iterator type as returned by the begin() and end() methods.
 619:./Eigen/src/Core/DenseBase.h ****       */
 620:./Eigen/src/Core/DenseBase.h ****     typedef random_access_iterator_type iterator;
ARM GAS  C:\Users\purdu\AppData\Local\Temp\ccYBYMxG.s 			page 28


 621:./Eigen/src/Core/DenseBase.h ****     /** This is the const version of iterator (aka read-only) */
 622:./Eigen/src/Core/DenseBase.h ****     typedef random_access_iterator_type const_iterator;
 623:./Eigen/src/Core/DenseBase.h ****     #else
 624:./Eigen/src/Core/DenseBase.h ****     typedef typename internal::conditional< (Flags&DirectAccessBit)==DirectAccessBit,
 625:./Eigen/src/Core/DenseBase.h ****                                             internal::pointer_based_stl_iterator<Derived>,
 626:./Eigen/src/Core/DenseBase.h ****                                             internal::generic_randaccess_stl_iterator<Derived>
 627:./Eigen/src/Core/DenseBase.h ****                                           >::type iterator_type;
 628:./Eigen/src/Core/DenseBase.h **** 
 629:./Eigen/src/Core/DenseBase.h ****     typedef typename internal::conditional< (Flags&DirectAccessBit)==DirectAccessBit,
 630:./Eigen/src/Core/DenseBase.h ****                                             internal::pointer_based_stl_iterator<const Derived>,
 631:./Eigen/src/Core/DenseBase.h ****                                             internal::generic_randaccess_stl_iterator<const Derived
 632:./Eigen/src/Core/DenseBase.h ****                                           >::type const_iterator_type;
 633:./Eigen/src/Core/DenseBase.h **** 
 634:./Eigen/src/Core/DenseBase.h ****     // Stl-style iterators are supported only for vectors.
 635:./Eigen/src/Core/DenseBase.h **** 
 636:./Eigen/src/Core/DenseBase.h ****     typedef typename internal::conditional< IsVectorAtCompileTime,
 637:./Eigen/src/Core/DenseBase.h ****                                             iterator_type,
 638:./Eigen/src/Core/DenseBase.h ****                                             void
 639:./Eigen/src/Core/DenseBase.h ****                                           >::type iterator;
 640:./Eigen/src/Core/DenseBase.h **** 
 641:./Eigen/src/Core/DenseBase.h ****     typedef typename internal::conditional< IsVectorAtCompileTime,
 642:./Eigen/src/Core/DenseBase.h ****                                             const_iterator_type,
 643:./Eigen/src/Core/DenseBase.h ****                                             void
 644:./Eigen/src/Core/DenseBase.h ****                                           >::type const_iterator;
 645:./Eigen/src/Core/DenseBase.h ****     #endif
 646:./Eigen/src/Core/DenseBase.h **** 
 647:./Eigen/src/Core/DenseBase.h ****     inline iterator begin();
 648:./Eigen/src/Core/DenseBase.h ****     inline const_iterator begin() const;
 649:./Eigen/src/Core/DenseBase.h ****     inline const_iterator cbegin() const;
 650:./Eigen/src/Core/DenseBase.h ****     inline iterator end();
 651:./Eigen/src/Core/DenseBase.h ****     inline const_iterator end() const;
 652:./Eigen/src/Core/DenseBase.h ****     inline const_iterator cend() const;
 653:./Eigen/src/Core/DenseBase.h **** 
 654:./Eigen/src/Core/DenseBase.h **** #define EIGEN_CURRENT_STORAGE_BASE_CLASS Eigen::DenseBase
 655:./Eigen/src/Core/DenseBase.h **** #define EIGEN_DOC_BLOCK_ADDONS_NOT_INNER_PANEL
 656:./Eigen/src/Core/DenseBase.h **** #define EIGEN_DOC_BLOCK_ADDONS_INNER_PANEL_IF(COND)
 657:./Eigen/src/Core/DenseBase.h **** #define EIGEN_DOC_UNARY_ADDONS(X,Y)
 658:./Eigen/src/Core/DenseBase.h **** #   include "../plugins/CommonCwiseUnaryOps.h"
 659:./Eigen/src/Core/DenseBase.h **** #   include "../plugins/BlockMethods.h"
 660:./Eigen/src/Core/DenseBase.h **** #   include "../plugins/IndexedViewMethods.h"
 661:./Eigen/src/Core/DenseBase.h **** #   include "../plugins/ReshapedMethods.h"
 662:./Eigen/src/Core/DenseBase.h **** #   ifdef EIGEN_DENSEBASE_PLUGIN
 663:./Eigen/src/Core/DenseBase.h **** #     include EIGEN_DENSEBASE_PLUGIN
 664:./Eigen/src/Core/DenseBase.h **** #   endif
 665:./Eigen/src/Core/DenseBase.h **** #undef EIGEN_CURRENT_STORAGE_BASE_CLASS
 666:./Eigen/src/Core/DenseBase.h **** #undef EIGEN_DOC_BLOCK_ADDONS_NOT_INNER_PANEL
 667:./Eigen/src/Core/DenseBase.h **** #undef EIGEN_DOC_BLOCK_ADDONS_INNER_PANEL_IF
 668:./Eigen/src/Core/DenseBase.h **** #undef EIGEN_DOC_UNARY_ADDONS
 669:./Eigen/src/Core/DenseBase.h **** 
 670:./Eigen/src/Core/DenseBase.h ****     // disable the use of evalTo for dense objects with a nice compilation error
 671:./Eigen/src/Core/DenseBase.h ****     template<typename Dest>
 672:./Eigen/src/Core/DenseBase.h ****     EIGEN_DEVICE_FUNC
 673:./Eigen/src/Core/DenseBase.h ****     inline void evalTo(Dest& ) const
 674:./Eigen/src/Core/DenseBase.h ****     {
 675:./Eigen/src/Core/DenseBase.h ****       EIGEN_STATIC_ASSERT((internal::is_same<Dest,void>::value),THE_EVAL_EVALTO_FUNCTION_SHOULD_NEV
 676:./Eigen/src/Core/DenseBase.h ****     }
 677:./Eigen/src/Core/DenseBase.h **** 
ARM GAS  C:\Users\purdu\AppData\Local\Temp\ccYBYMxG.s 			page 29


 678:./Eigen/src/Core/DenseBase.h ****   protected:
 679:./Eigen/src/Core/DenseBase.h ****     EIGEN_DEFAULT_COPY_CONSTRUCTOR(DenseBase)
 680:./Eigen/src/Core/DenseBase.h ****     /** Default constructor. Do nothing. */
 681:./Eigen/src/Core/DenseBase.h ****     EIGEN_DEVICE_FUNC DenseBase()
 190              		.loc 7 681 23 view .LVU24
 191              		.loc 7 681 23 is_stmt 0 view .LVU25
 192              	.LBE27453:
 193              	.LBE27452:
 194              	.LBB27454:
 195              	.LBI27454:
 196              		.file 8 "./Eigen/src/Core/util/XprHelper.h"
   1:./Eigen/src/Core/util/XprHelper.h **** // This file is part of Eigen, a lightweight C++ template library
   2:./Eigen/src/Core/util/XprHelper.h **** // for linear algebra.
   3:./Eigen/src/Core/util/XprHelper.h **** //
   4:./Eigen/src/Core/util/XprHelper.h **** // Copyright (C) 2008 Gael Guennebaud <gael.guennebaud@inria.fr>
   5:./Eigen/src/Core/util/XprHelper.h **** // Copyright (C) 2006-2008 Benoit Jacob <jacob.benoit.1@gmail.com>
   6:./Eigen/src/Core/util/XprHelper.h **** //
   7:./Eigen/src/Core/util/XprHelper.h **** // This Source Code Form is subject to the terms of the Mozilla
   8:./Eigen/src/Core/util/XprHelper.h **** // Public License v. 2.0. If a copy of the MPL was not distributed
   9:./Eigen/src/Core/util/XprHelper.h **** // with this file, You can obtain one at http://mozilla.org/MPL/2.0/.
  10:./Eigen/src/Core/util/XprHelper.h **** 
  11:./Eigen/src/Core/util/XprHelper.h **** #ifndef EIGEN_XPRHELPER_H
  12:./Eigen/src/Core/util/XprHelper.h **** #define EIGEN_XPRHELPER_H
  13:./Eigen/src/Core/util/XprHelper.h **** 
  14:./Eigen/src/Core/util/XprHelper.h **** // just a workaround because GCC seems to not really like empty structs
  15:./Eigen/src/Core/util/XprHelper.h **** // FIXME: gcc 4.3 generates bad code when strict-aliasing is enabled
  16:./Eigen/src/Core/util/XprHelper.h **** // so currently we simply disable this optimization for gcc 4.3
  17:./Eigen/src/Core/util/XprHelper.h **** #if EIGEN_COMP_GNUC && !EIGEN_GNUC_AT(4,3)
  18:./Eigen/src/Core/util/XprHelper.h ****   #define EIGEN_EMPTY_STRUCT_CTOR(X) \
  19:./Eigen/src/Core/util/XprHelper.h ****     EIGEN_DEVICE_FUNC EIGEN_STRONG_INLINE X() {} \
  20:./Eigen/src/Core/util/XprHelper.h ****     EIGEN_DEVICE_FUNC EIGEN_STRONG_INLINE X(const X& ) {}
  21:./Eigen/src/Core/util/XprHelper.h **** #else
  22:./Eigen/src/Core/util/XprHelper.h ****   #define EIGEN_EMPTY_STRUCT_CTOR(X)
  23:./Eigen/src/Core/util/XprHelper.h **** #endif
  24:./Eigen/src/Core/util/XprHelper.h **** 
  25:./Eigen/src/Core/util/XprHelper.h **** namespace Eigen {
  26:./Eigen/src/Core/util/XprHelper.h **** 
  27:./Eigen/src/Core/util/XprHelper.h **** namespace internal {
  28:./Eigen/src/Core/util/XprHelper.h **** 
  29:./Eigen/src/Core/util/XprHelper.h **** template<typename IndexDest, typename IndexSrc>
  30:./Eigen/src/Core/util/XprHelper.h **** EIGEN_DEVICE_FUNC
  31:./Eigen/src/Core/util/XprHelper.h **** inline IndexDest convert_index(const IndexSrc& idx) {
  32:./Eigen/src/Core/util/XprHelper.h ****   // for sizeof(IndexDest)>=sizeof(IndexSrc) compilers should be able to optimize this away:
  33:./Eigen/src/Core/util/XprHelper.h ****   eigen_internal_assert(idx <= NumTraits<IndexDest>::highest() && "Index value to big for target ty
  34:./Eigen/src/Core/util/XprHelper.h ****   return IndexDest(idx);
  35:./Eigen/src/Core/util/XprHelper.h **** }
  36:./Eigen/src/Core/util/XprHelper.h **** 
  37:./Eigen/src/Core/util/XprHelper.h **** // true if T can be considered as an integral index (i.e., and integral type or enum)
  38:./Eigen/src/Core/util/XprHelper.h **** template<typename T> struct is_valid_index_type
  39:./Eigen/src/Core/util/XprHelper.h **** {
  40:./Eigen/src/Core/util/XprHelper.h ****   enum { value =
  41:./Eigen/src/Core/util/XprHelper.h **** #if EIGEN_HAS_TYPE_TRAITS
  42:./Eigen/src/Core/util/XprHelper.h ****     internal::is_integral<T>::value || std::is_enum<T>::value
  43:./Eigen/src/Core/util/XprHelper.h **** #elif EIGEN_COMP_MSVC
  44:./Eigen/src/Core/util/XprHelper.h ****     internal::is_integral<T>::value || __is_enum(T)
  45:./Eigen/src/Core/util/XprHelper.h **** #else
  46:./Eigen/src/Core/util/XprHelper.h ****     // without C++11, we use is_convertible to Index instead of is_integral in order to treat enums
ARM GAS  C:\Users\purdu\AppData\Local\Temp\ccYBYMxG.s 			page 30


  47:./Eigen/src/Core/util/XprHelper.h ****     internal::is_convertible<T,Index>::value && !internal::is_same<T,float>::value && !is_same<T,do
  48:./Eigen/src/Core/util/XprHelper.h **** #endif
  49:./Eigen/src/Core/util/XprHelper.h ****   };
  50:./Eigen/src/Core/util/XprHelper.h **** };
  51:./Eigen/src/Core/util/XprHelper.h **** 
  52:./Eigen/src/Core/util/XprHelper.h **** // true if both types are not valid index types
  53:./Eigen/src/Core/util/XprHelper.h **** template<typename RowIndices, typename ColIndices>
  54:./Eigen/src/Core/util/XprHelper.h **** struct valid_indexed_view_overload {
  55:./Eigen/src/Core/util/XprHelper.h ****   enum { value = !(internal::is_valid_index_type<RowIndices>::value && internal::is_valid_index_typ
  56:./Eigen/src/Core/util/XprHelper.h **** };
  57:./Eigen/src/Core/util/XprHelper.h **** 
  58:./Eigen/src/Core/util/XprHelper.h **** // promote_scalar_arg is an helper used in operation between an expression and a scalar, like:
  59:./Eigen/src/Core/util/XprHelper.h **** //    expression * scalar
  60:./Eigen/src/Core/util/XprHelper.h **** // Its role is to determine how the type T of the scalar operand should be promoted given the scala
  61:./Eigen/src/Core/util/XprHelper.h **** // The IsSupported template parameter must be provided by the caller as: internal::has_ReturnType<S
  62:./Eigen/src/Core/util/XprHelper.h **** // Then the logic is as follows:
  63:./Eigen/src/Core/util/XprHelper.h **** //  - if the operation is natively supported as defined by IsSupported, then the scalar type is not
  64:./Eigen/src/Core/util/XprHelper.h **** //  - otherwise, NumTraits<ExprScalar>::Literal is returned if T is implicitly convertible to NumTr
  65:./Eigen/src/Core/util/XprHelper.h **** //  - otherwise, ExprScalar is returned if T is implicitly convertible to ExprScalar AND that this 
  66:./Eigen/src/Core/util/XprHelper.h **** //  - In all other cases, the promoted type is not defined, and the respective operation is thus in
  67:./Eigen/src/Core/util/XprHelper.h **** template<typename ExprScalar,typename T, bool IsSupported>
  68:./Eigen/src/Core/util/XprHelper.h **** struct promote_scalar_arg;
  69:./Eigen/src/Core/util/XprHelper.h **** 
  70:./Eigen/src/Core/util/XprHelper.h **** template<typename S,typename T>
  71:./Eigen/src/Core/util/XprHelper.h **** struct promote_scalar_arg<S,T,true>
  72:./Eigen/src/Core/util/XprHelper.h **** {
  73:./Eigen/src/Core/util/XprHelper.h ****   typedef T type;
  74:./Eigen/src/Core/util/XprHelper.h **** };
  75:./Eigen/src/Core/util/XprHelper.h **** 
  76:./Eigen/src/Core/util/XprHelper.h **** // Recursively check safe conversion to PromotedType, and then ExprScalar if they are different.
  77:./Eigen/src/Core/util/XprHelper.h **** template<typename ExprScalar,typename T,typename PromotedType,
  78:./Eigen/src/Core/util/XprHelper.h ****   bool ConvertibleToLiteral = internal::is_convertible<T,PromotedType>::value,
  79:./Eigen/src/Core/util/XprHelper.h ****   bool IsSafe = NumTraits<T>::IsInteger || !NumTraits<PromotedType>::IsInteger>
  80:./Eigen/src/Core/util/XprHelper.h **** struct promote_scalar_arg_unsupported;
  81:./Eigen/src/Core/util/XprHelper.h **** 
  82:./Eigen/src/Core/util/XprHelper.h **** // Start recursion with NumTraits<ExprScalar>::Literal
  83:./Eigen/src/Core/util/XprHelper.h **** template<typename S,typename T>
  84:./Eigen/src/Core/util/XprHelper.h **** struct promote_scalar_arg<S,T,false> : promote_scalar_arg_unsupported<S,T,typename NumTraits<S>::Li
  85:./Eigen/src/Core/util/XprHelper.h **** 
  86:./Eigen/src/Core/util/XprHelper.h **** // We found a match!
  87:./Eigen/src/Core/util/XprHelper.h **** template<typename S,typename T, typename PromotedType>
  88:./Eigen/src/Core/util/XprHelper.h **** struct promote_scalar_arg_unsupported<S,T,PromotedType,true,true>
  89:./Eigen/src/Core/util/XprHelper.h **** {
  90:./Eigen/src/Core/util/XprHelper.h ****   typedef PromotedType type;
  91:./Eigen/src/Core/util/XprHelper.h **** };
  92:./Eigen/src/Core/util/XprHelper.h **** 
  93:./Eigen/src/Core/util/XprHelper.h **** // No match, but no real-to-integer issues, and ExprScalar and current PromotedType are different,
  94:./Eigen/src/Core/util/XprHelper.h **** // so let's try to promote to ExprScalar
  95:./Eigen/src/Core/util/XprHelper.h **** template<typename ExprScalar,typename T, typename PromotedType>
  96:./Eigen/src/Core/util/XprHelper.h **** struct promote_scalar_arg_unsupported<ExprScalar,T,PromotedType,false,true>
  97:./Eigen/src/Core/util/XprHelper.h ****    : promote_scalar_arg_unsupported<ExprScalar,T,ExprScalar>
  98:./Eigen/src/Core/util/XprHelper.h **** {};
  99:./Eigen/src/Core/util/XprHelper.h **** 
 100:./Eigen/src/Core/util/XprHelper.h **** // Unsafe real-to-integer, let's stop.
 101:./Eigen/src/Core/util/XprHelper.h **** template<typename S,typename T, typename PromotedType, bool ConvertibleToLiteral>
 102:./Eigen/src/Core/util/XprHelper.h **** struct promote_scalar_arg_unsupported<S,T,PromotedType,ConvertibleToLiteral,false> {};
 103:./Eigen/src/Core/util/XprHelper.h **** 
ARM GAS  C:\Users\purdu\AppData\Local\Temp\ccYBYMxG.s 			page 31


 104:./Eigen/src/Core/util/XprHelper.h **** // T is not even convertible to ExprScalar, let's stop.
 105:./Eigen/src/Core/util/XprHelper.h **** template<typename S,typename T>
 106:./Eigen/src/Core/util/XprHelper.h **** struct promote_scalar_arg_unsupported<S,T,S,false,true> {};
 107:./Eigen/src/Core/util/XprHelper.h **** 
 108:./Eigen/src/Core/util/XprHelper.h **** //classes inheriting no_assignment_operator don't generate a default operator=.
 109:./Eigen/src/Core/util/XprHelper.h **** class no_assignment_operator
 110:./Eigen/src/Core/util/XprHelper.h **** {
 111:./Eigen/src/Core/util/XprHelper.h ****   private:
 112:./Eigen/src/Core/util/XprHelper.h ****     no_assignment_operator& operator=(const no_assignment_operator&);
 113:./Eigen/src/Core/util/XprHelper.h ****   protected:
 114:./Eigen/src/Core/util/XprHelper.h ****     EIGEN_DEFAULT_COPY_CONSTRUCTOR(no_assignment_operator)
 115:./Eigen/src/Core/util/XprHelper.h ****     EIGEN_DEFAULT_EMPTY_CONSTRUCTOR_AND_DESTRUCTOR(no_assignment_operator)
 116:./Eigen/src/Core/util/XprHelper.h **** };
 117:./Eigen/src/Core/util/XprHelper.h **** 
 118:./Eigen/src/Core/util/XprHelper.h **** /** \internal return the index type with the largest number of bits */
 119:./Eigen/src/Core/util/XprHelper.h **** template<typename I1, typename I2>
 120:./Eigen/src/Core/util/XprHelper.h **** struct promote_index_type
 121:./Eigen/src/Core/util/XprHelper.h **** {
 122:./Eigen/src/Core/util/XprHelper.h ****   typedef typename conditional<(sizeof(I1)<sizeof(I2)), I2, I1>::type type;
 123:./Eigen/src/Core/util/XprHelper.h **** };
 124:./Eigen/src/Core/util/XprHelper.h **** 
 125:./Eigen/src/Core/util/XprHelper.h **** /** \internal If the template parameter Value is Dynamic, this class is just a wrapper around a T v
 126:./Eigen/src/Core/util/XprHelper.h ****   * can be accessed using value() and setValue().
 127:./Eigen/src/Core/util/XprHelper.h ****   * Otherwise, this class is an empty structure and value() just returns the template parameter Val
 128:./Eigen/src/Core/util/XprHelper.h ****   */
 129:./Eigen/src/Core/util/XprHelper.h **** template<typename T, int Value> class variable_if_dynamic
 130:./Eigen/src/Core/util/XprHelper.h **** {
 131:./Eigen/src/Core/util/XprHelper.h ****   public:
 132:./Eigen/src/Core/util/XprHelper.h ****     EIGEN_DEFAULT_EMPTY_CONSTRUCTOR_AND_DESTRUCTOR(variable_if_dynamic)
 133:./Eigen/src/Core/util/XprHelper.h ****     EIGEN_DEVICE_FUNC EIGEN_STRONG_INLINE explicit variable_if_dynamic(T v) { EIGEN_ONLY_USED_FOR_D
 197              		.loc 8 133 52 is_stmt 1 view .LVU26
 198              		.loc 8 133 52 is_stmt 0 view .LVU27
 199              	.LBE27454:
 200              	.LBB27455:
 201              	.LBI27455:
 202              		.loc 8 133 52 is_stmt 1 view .LVU28
 203              		.loc 8 133 52 is_stmt 0 view .LVU29
 204              	.LBE27455:
 205              	.LBB27456:
 206              	.LBI27456:
  19:./Eigen/src/Core/functors/NullaryFunctors.h ****   EIGEN_DEVICE_FUNC EIGEN_STRONG_INLINE scalar_constant_op(const Scalar& other) : m_other(other) { 
 207              		.loc 4 19 41 is_stmt 1 view .LVU30
 208              	.LBB27457:
 209              	.LBB27458:
  19:./Eigen/src/Core/functors/NullaryFunctors.h ****   EIGEN_DEVICE_FUNC EIGEN_STRONG_INLINE scalar_constant_op(const Scalar& other) : m_other(other) { 
 210              		.loc 4 19 95 is_stmt 0 view .LVU31
 211 0010 CDE90223 		strd	r2, [sp, #8]
 212              	.LVL8:
  19:./Eigen/src/Core/functors/NullaryFunctors.h ****   EIGEN_DEVICE_FUNC EIGEN_STRONG_INLINE scalar_constant_op(const Scalar& other) : m_other(other) { 
 213              		.loc 4 19 95 view .LVU32
 214              	.LBE27458:
 215              	.LBE27457:
 216              	.LBE27456:
 217              	.LBE27451:
 218              	.LBE27450:
 219              	.LBB27459:
 220              	.LBI27459:
ARM GAS  C:\Users\purdu\AppData\Local\Temp\ccYBYMxG.s 			page 32


 221              		.file 9 "./Eigen/src/Core/functors/BinaryFunctors.h"
   1:./Eigen/src/Core/functors/BinaryFunctors.h **** // This file is part of Eigen, a lightweight C++ template library
   2:./Eigen/src/Core/functors/BinaryFunctors.h **** // for linear algebra.
   3:./Eigen/src/Core/functors/BinaryFunctors.h **** //
   4:./Eigen/src/Core/functors/BinaryFunctors.h **** // Copyright (C) 2008-2010 Gael Guennebaud <gael.guennebaud@inria.fr>
   5:./Eigen/src/Core/functors/BinaryFunctors.h **** //
   6:./Eigen/src/Core/functors/BinaryFunctors.h **** // This Source Code Form is subject to the terms of the Mozilla
   7:./Eigen/src/Core/functors/BinaryFunctors.h **** // Public License v. 2.0. If a copy of the MPL was not distributed
   8:./Eigen/src/Core/functors/BinaryFunctors.h **** // with this file, You can obtain one at http://mozilla.org/MPL/2.0/.
   9:./Eigen/src/Core/functors/BinaryFunctors.h **** 
  10:./Eigen/src/Core/functors/BinaryFunctors.h **** #ifndef EIGEN_BINARY_FUNCTORS_H
  11:./Eigen/src/Core/functors/BinaryFunctors.h **** #define EIGEN_BINARY_FUNCTORS_H
  12:./Eigen/src/Core/functors/BinaryFunctors.h **** 
  13:./Eigen/src/Core/functors/BinaryFunctors.h **** namespace Eigen {
  14:./Eigen/src/Core/functors/BinaryFunctors.h **** 
  15:./Eigen/src/Core/functors/BinaryFunctors.h **** namespace internal {
  16:./Eigen/src/Core/functors/BinaryFunctors.h **** 
  17:./Eigen/src/Core/functors/BinaryFunctors.h **** //---------- associative binary functors ----------
  18:./Eigen/src/Core/functors/BinaryFunctors.h **** 
  19:./Eigen/src/Core/functors/BinaryFunctors.h **** template<typename Arg1, typename Arg2>
  20:./Eigen/src/Core/functors/BinaryFunctors.h **** struct binary_op_base
  21:./Eigen/src/Core/functors/BinaryFunctors.h **** {
  22:./Eigen/src/Core/functors/BinaryFunctors.h ****   typedef Arg1 first_argument_type;
  23:./Eigen/src/Core/functors/BinaryFunctors.h ****   typedef Arg2 second_argument_type;
  24:./Eigen/src/Core/functors/BinaryFunctors.h **** };
  25:./Eigen/src/Core/functors/BinaryFunctors.h **** 
  26:./Eigen/src/Core/functors/BinaryFunctors.h **** /** \internal
  27:./Eigen/src/Core/functors/BinaryFunctors.h ****   * \brief Template functor to compute the sum of two scalars
  28:./Eigen/src/Core/functors/BinaryFunctors.h ****   *
  29:./Eigen/src/Core/functors/BinaryFunctors.h ****   * \sa class CwiseBinaryOp, MatrixBase::operator+, class VectorwiseOp, DenseBase::sum()
  30:./Eigen/src/Core/functors/BinaryFunctors.h ****   */
  31:./Eigen/src/Core/functors/BinaryFunctors.h **** template<typename LhsScalar,typename RhsScalar>
  32:./Eigen/src/Core/functors/BinaryFunctors.h **** struct scalar_sum_op : binary_op_base<LhsScalar,RhsScalar>
  33:./Eigen/src/Core/functors/BinaryFunctors.h **** {
  34:./Eigen/src/Core/functors/BinaryFunctors.h ****   typedef typename ScalarBinaryOpTraits<LhsScalar,RhsScalar,scalar_sum_op>::ReturnType result_type;
  35:./Eigen/src/Core/functors/BinaryFunctors.h **** #ifndef EIGEN_SCALAR_BINARY_OP_PLUGIN
  36:./Eigen/src/Core/functors/BinaryFunctors.h ****   EIGEN_EMPTY_STRUCT_CTOR(scalar_sum_op)
  37:./Eigen/src/Core/functors/BinaryFunctors.h **** #else
  38:./Eigen/src/Core/functors/BinaryFunctors.h ****   scalar_sum_op() {
  39:./Eigen/src/Core/functors/BinaryFunctors.h ****     EIGEN_SCALAR_BINARY_OP_PLUGIN
  40:./Eigen/src/Core/functors/BinaryFunctors.h ****   }
  41:./Eigen/src/Core/functors/BinaryFunctors.h **** #endif
  42:./Eigen/src/Core/functors/BinaryFunctors.h ****   EIGEN_DEVICE_FUNC EIGEN_STRONG_INLINE result_type operator() (const LhsScalar& a, const RhsScalar
  43:./Eigen/src/Core/functors/BinaryFunctors.h ****   template<typename Packet>
  44:./Eigen/src/Core/functors/BinaryFunctors.h ****   EIGEN_DEVICE_FUNC EIGEN_STRONG_INLINE Packet packetOp(const Packet& a, const Packet& b) const
  45:./Eigen/src/Core/functors/BinaryFunctors.h ****   { return internal::padd(a,b); }
  46:./Eigen/src/Core/functors/BinaryFunctors.h ****   template<typename Packet>
  47:./Eigen/src/Core/functors/BinaryFunctors.h ****   EIGEN_DEVICE_FUNC EIGEN_STRONG_INLINE result_type predux(const Packet& a) const
  48:./Eigen/src/Core/functors/BinaryFunctors.h ****   { return internal::predux(a); }
  49:./Eigen/src/Core/functors/BinaryFunctors.h **** };
  50:./Eigen/src/Core/functors/BinaryFunctors.h **** template<typename LhsScalar,typename RhsScalar>
  51:./Eigen/src/Core/functors/BinaryFunctors.h **** struct functor_traits<scalar_sum_op<LhsScalar,RhsScalar> > {
  52:./Eigen/src/Core/functors/BinaryFunctors.h ****   enum {
  53:./Eigen/src/Core/functors/BinaryFunctors.h ****     Cost = (int(NumTraits<LhsScalar>::AddCost) + int(NumTraits<RhsScalar>::AddCost)) / 2, // rough 
  54:./Eigen/src/Core/functors/BinaryFunctors.h ****     PacketAccess = is_same<LhsScalar,RhsScalar>::value && packet_traits<LhsScalar>::HasAdd && packe
  55:./Eigen/src/Core/functors/BinaryFunctors.h ****     // TODO vectorize mixed sum
  56:./Eigen/src/Core/functors/BinaryFunctors.h ****   };
ARM GAS  C:\Users\purdu\AppData\Local\Temp\ccYBYMxG.s 			page 33


  57:./Eigen/src/Core/functors/BinaryFunctors.h **** };
  58:./Eigen/src/Core/functors/BinaryFunctors.h **** 
  59:./Eigen/src/Core/functors/BinaryFunctors.h **** 
  60:./Eigen/src/Core/functors/BinaryFunctors.h **** template<>
  61:./Eigen/src/Core/functors/BinaryFunctors.h **** EIGEN_DEVICE_FUNC EIGEN_STRONG_INLINE bool scalar_sum_op<bool,bool>::operator() (const bool& a, con
  62:./Eigen/src/Core/functors/BinaryFunctors.h **** 
  63:./Eigen/src/Core/functors/BinaryFunctors.h **** 
  64:./Eigen/src/Core/functors/BinaryFunctors.h **** /** \internal
  65:./Eigen/src/Core/functors/BinaryFunctors.h ****   * \brief Template functor to compute the product of two scalars
  66:./Eigen/src/Core/functors/BinaryFunctors.h ****   *
  67:./Eigen/src/Core/functors/BinaryFunctors.h ****   * \sa class CwiseBinaryOp, Cwise::operator*(), class VectorwiseOp, MatrixBase::redux()
  68:./Eigen/src/Core/functors/BinaryFunctors.h ****   */
  69:./Eigen/src/Core/functors/BinaryFunctors.h **** template<typename LhsScalar,typename RhsScalar>
  70:./Eigen/src/Core/functors/BinaryFunctors.h **** struct scalar_product_op  : binary_op_base<LhsScalar,RhsScalar>
  71:./Eigen/src/Core/functors/BinaryFunctors.h **** {
  72:./Eigen/src/Core/functors/BinaryFunctors.h ****   typedef typename ScalarBinaryOpTraits<LhsScalar,RhsScalar,scalar_product_op>::ReturnType result_t
  73:./Eigen/src/Core/functors/BinaryFunctors.h **** #ifndef EIGEN_SCALAR_BINARY_OP_PLUGIN
  74:./Eigen/src/Core/functors/BinaryFunctors.h ****   EIGEN_EMPTY_STRUCT_CTOR(scalar_product_op)
 222              		.loc 9 74 3 is_stmt 1 view .LVU33
 223              		.loc 9 74 3 is_stmt 0 view .LVU34
 224              	.LBE27459:
 225              	.LBB27460:
 226              	.LBI27460:
 227              		.file 10 "./Eigen/src/Core/CwiseBinaryOp.h"
   1:./Eigen/src/Core/CwiseBinaryOp.h **** // This file is part of Eigen, a lightweight C++ template library
   2:./Eigen/src/Core/CwiseBinaryOp.h **** // for linear algebra.
   3:./Eigen/src/Core/CwiseBinaryOp.h **** //
   4:./Eigen/src/Core/CwiseBinaryOp.h **** // Copyright (C) 2008-2014 Gael Guennebaud <gael.guennebaud@inria.fr>
   5:./Eigen/src/Core/CwiseBinaryOp.h **** // Copyright (C) 2006-2008 Benoit Jacob <jacob.benoit.1@gmail.com>
   6:./Eigen/src/Core/CwiseBinaryOp.h **** //
   7:./Eigen/src/Core/CwiseBinaryOp.h **** // This Source Code Form is subject to the terms of the Mozilla
   8:./Eigen/src/Core/CwiseBinaryOp.h **** // Public License v. 2.0. If a copy of the MPL was not distributed
   9:./Eigen/src/Core/CwiseBinaryOp.h **** // with this file, You can obtain one at http://mozilla.org/MPL/2.0/.
  10:./Eigen/src/Core/CwiseBinaryOp.h **** 
  11:./Eigen/src/Core/CwiseBinaryOp.h **** #ifndef EIGEN_CWISE_BINARY_OP_H
  12:./Eigen/src/Core/CwiseBinaryOp.h **** #define EIGEN_CWISE_BINARY_OP_H
  13:./Eigen/src/Core/CwiseBinaryOp.h **** 
  14:./Eigen/src/Core/CwiseBinaryOp.h **** namespace Eigen {
  15:./Eigen/src/Core/CwiseBinaryOp.h **** 
  16:./Eigen/src/Core/CwiseBinaryOp.h **** namespace internal {
  17:./Eigen/src/Core/CwiseBinaryOp.h **** template<typename BinaryOp, typename Lhs, typename Rhs>
  18:./Eigen/src/Core/CwiseBinaryOp.h **** struct traits<CwiseBinaryOp<BinaryOp, Lhs, Rhs> >
  19:./Eigen/src/Core/CwiseBinaryOp.h **** {
  20:./Eigen/src/Core/CwiseBinaryOp.h ****   // we must not inherit from traits<Lhs> since it has
  21:./Eigen/src/Core/CwiseBinaryOp.h ****   // the potential to cause problems with MSVC
  22:./Eigen/src/Core/CwiseBinaryOp.h ****   typedef typename remove_all<Lhs>::type Ancestor;
  23:./Eigen/src/Core/CwiseBinaryOp.h ****   typedef typename traits<Ancestor>::XprKind XprKind;
  24:./Eigen/src/Core/CwiseBinaryOp.h ****   enum {
  25:./Eigen/src/Core/CwiseBinaryOp.h ****     RowsAtCompileTime = traits<Ancestor>::RowsAtCompileTime,
  26:./Eigen/src/Core/CwiseBinaryOp.h ****     ColsAtCompileTime = traits<Ancestor>::ColsAtCompileTime,
  27:./Eigen/src/Core/CwiseBinaryOp.h ****     MaxRowsAtCompileTime = traits<Ancestor>::MaxRowsAtCompileTime,
  28:./Eigen/src/Core/CwiseBinaryOp.h ****     MaxColsAtCompileTime = traits<Ancestor>::MaxColsAtCompileTime
  29:./Eigen/src/Core/CwiseBinaryOp.h ****   };
  30:./Eigen/src/Core/CwiseBinaryOp.h **** 
  31:./Eigen/src/Core/CwiseBinaryOp.h ****   // even though we require Lhs and Rhs to have the same scalar type (see CwiseBinaryOp constructor
  32:./Eigen/src/Core/CwiseBinaryOp.h ****   // we still want to handle the case when the result type is different.
  33:./Eigen/src/Core/CwiseBinaryOp.h ****   typedef typename result_of<
ARM GAS  C:\Users\purdu\AppData\Local\Temp\ccYBYMxG.s 			page 34


  34:./Eigen/src/Core/CwiseBinaryOp.h ****                      BinaryOp(
  35:./Eigen/src/Core/CwiseBinaryOp.h ****                        const typename Lhs::Scalar&,
  36:./Eigen/src/Core/CwiseBinaryOp.h ****                        const typename Rhs::Scalar&
  37:./Eigen/src/Core/CwiseBinaryOp.h ****                      )
  38:./Eigen/src/Core/CwiseBinaryOp.h ****                    >::type Scalar;
  39:./Eigen/src/Core/CwiseBinaryOp.h ****   typedef typename cwise_promote_storage_type<typename traits<Lhs>::StorageKind,
  40:./Eigen/src/Core/CwiseBinaryOp.h ****                                               typename traits<Rhs>::StorageKind,
  41:./Eigen/src/Core/CwiseBinaryOp.h ****                                               BinaryOp>::ret StorageKind;
  42:./Eigen/src/Core/CwiseBinaryOp.h ****   typedef typename promote_index_type<typename traits<Lhs>::StorageIndex,
  43:./Eigen/src/Core/CwiseBinaryOp.h ****                                       typename traits<Rhs>::StorageIndex>::type StorageIndex;
  44:./Eigen/src/Core/CwiseBinaryOp.h ****   typedef typename Lhs::Nested LhsNested;
  45:./Eigen/src/Core/CwiseBinaryOp.h ****   typedef typename Rhs::Nested RhsNested;
  46:./Eigen/src/Core/CwiseBinaryOp.h ****   typedef typename remove_reference<LhsNested>::type _LhsNested;
  47:./Eigen/src/Core/CwiseBinaryOp.h ****   typedef typename remove_reference<RhsNested>::type _RhsNested;
  48:./Eigen/src/Core/CwiseBinaryOp.h ****   enum {
  49:./Eigen/src/Core/CwiseBinaryOp.h ****     Flags = cwise_promote_storage_order<typename traits<Lhs>::StorageKind,typename traits<Rhs>::Sto
  50:./Eigen/src/Core/CwiseBinaryOp.h ****   };
  51:./Eigen/src/Core/CwiseBinaryOp.h **** };
  52:./Eigen/src/Core/CwiseBinaryOp.h **** } // end namespace internal
  53:./Eigen/src/Core/CwiseBinaryOp.h **** 
  54:./Eigen/src/Core/CwiseBinaryOp.h **** template<typename BinaryOp, typename Lhs, typename Rhs, typename StorageKind>
  55:./Eigen/src/Core/CwiseBinaryOp.h **** class CwiseBinaryOpImpl;
  56:./Eigen/src/Core/CwiseBinaryOp.h **** 
  57:./Eigen/src/Core/CwiseBinaryOp.h **** /** \class CwiseBinaryOp
  58:./Eigen/src/Core/CwiseBinaryOp.h ****   * \ingroup Core_Module
  59:./Eigen/src/Core/CwiseBinaryOp.h ****   *
  60:./Eigen/src/Core/CwiseBinaryOp.h ****   * \brief Generic expression where a coefficient-wise binary operator is applied to two expression
  61:./Eigen/src/Core/CwiseBinaryOp.h ****   *
  62:./Eigen/src/Core/CwiseBinaryOp.h ****   * \tparam BinaryOp template functor implementing the operator
  63:./Eigen/src/Core/CwiseBinaryOp.h ****   * \tparam LhsType the type of the left-hand side
  64:./Eigen/src/Core/CwiseBinaryOp.h ****   * \tparam RhsType the type of the right-hand side
  65:./Eigen/src/Core/CwiseBinaryOp.h ****   *
  66:./Eigen/src/Core/CwiseBinaryOp.h ****   * This class represents an expression  where a coefficient-wise binary operator is applied to two
  67:./Eigen/src/Core/CwiseBinaryOp.h ****   * It is the return type of binary operators, by which we mean only those binary operators where
  68:./Eigen/src/Core/CwiseBinaryOp.h ****   * both the left-hand side and the right-hand side are Eigen expressions.
  69:./Eigen/src/Core/CwiseBinaryOp.h ****   * For example, the return type of matrix1+matrix2 is a CwiseBinaryOp.
  70:./Eigen/src/Core/CwiseBinaryOp.h ****   *
  71:./Eigen/src/Core/CwiseBinaryOp.h ****   * Most of the time, this is the only way that it is used, so you typically don't have to name
  72:./Eigen/src/Core/CwiseBinaryOp.h ****   * CwiseBinaryOp types explicitly.
  73:./Eigen/src/Core/CwiseBinaryOp.h ****   *
  74:./Eigen/src/Core/CwiseBinaryOp.h ****   * \sa MatrixBase::binaryExpr(const MatrixBase<OtherDerived> &,const CustomBinaryOp &) const, clas
  75:./Eigen/src/Core/CwiseBinaryOp.h ****   */
  76:./Eigen/src/Core/CwiseBinaryOp.h **** template<typename BinaryOp, typename LhsType, typename RhsType>
  77:./Eigen/src/Core/CwiseBinaryOp.h **** class CwiseBinaryOp :
  78:./Eigen/src/Core/CwiseBinaryOp.h ****   public CwiseBinaryOpImpl<
  79:./Eigen/src/Core/CwiseBinaryOp.h ****           BinaryOp, LhsType, RhsType,
  80:./Eigen/src/Core/CwiseBinaryOp.h ****           typename internal::cwise_promote_storage_type<typename internal::traits<LhsType>::Storage
  81:./Eigen/src/Core/CwiseBinaryOp.h ****                                                         typename internal::traits<RhsType>::Storage
  82:./Eigen/src/Core/CwiseBinaryOp.h ****                                                         BinaryOp>::ret>,
  83:./Eigen/src/Core/CwiseBinaryOp.h ****   internal::no_assignment_operator
  84:./Eigen/src/Core/CwiseBinaryOp.h **** {
  85:./Eigen/src/Core/CwiseBinaryOp.h ****   public:
  86:./Eigen/src/Core/CwiseBinaryOp.h **** 
  87:./Eigen/src/Core/CwiseBinaryOp.h ****     typedef typename internal::remove_all<BinaryOp>::type Functor;
  88:./Eigen/src/Core/CwiseBinaryOp.h ****     typedef typename internal::remove_all<LhsType>::type Lhs;
  89:./Eigen/src/Core/CwiseBinaryOp.h ****     typedef typename internal::remove_all<RhsType>::type Rhs;
  90:./Eigen/src/Core/CwiseBinaryOp.h **** 
ARM GAS  C:\Users\purdu\AppData\Local\Temp\ccYBYMxG.s 			page 35


  91:./Eigen/src/Core/CwiseBinaryOp.h ****     typedef typename CwiseBinaryOpImpl<
  92:./Eigen/src/Core/CwiseBinaryOp.h ****         BinaryOp, LhsType, RhsType,
  93:./Eigen/src/Core/CwiseBinaryOp.h ****         typename internal::cwise_promote_storage_type<typename internal::traits<LhsType>::StorageKi
  94:./Eigen/src/Core/CwiseBinaryOp.h ****                                                       typename internal::traits<Rhs>::StorageKind,
  95:./Eigen/src/Core/CwiseBinaryOp.h ****                                                       BinaryOp>::ret>::Base Base;
  96:./Eigen/src/Core/CwiseBinaryOp.h ****     EIGEN_GENERIC_PUBLIC_INTERFACE(CwiseBinaryOp)
  97:./Eigen/src/Core/CwiseBinaryOp.h **** 
  98:./Eigen/src/Core/CwiseBinaryOp.h ****     typedef typename internal::ref_selector<LhsType>::type LhsNested;
  99:./Eigen/src/Core/CwiseBinaryOp.h ****     typedef typename internal::ref_selector<RhsType>::type RhsNested;
 100:./Eigen/src/Core/CwiseBinaryOp.h ****     typedef typename internal::remove_reference<LhsNested>::type _LhsNested;
 101:./Eigen/src/Core/CwiseBinaryOp.h ****     typedef typename internal::remove_reference<RhsNested>::type _RhsNested;
 102:./Eigen/src/Core/CwiseBinaryOp.h **** 
 103:./Eigen/src/Core/CwiseBinaryOp.h **** #if EIGEN_COMP_MSVC && EIGEN_HAS_CXX11
 104:./Eigen/src/Core/CwiseBinaryOp.h ****     //Required for Visual Studio or the Copy constructor will probably not get inlined!
 105:./Eigen/src/Core/CwiseBinaryOp.h ****     EIGEN_STRONG_INLINE
 106:./Eigen/src/Core/CwiseBinaryOp.h ****     CwiseBinaryOp(const CwiseBinaryOp<BinaryOp,LhsType,RhsType>&) = default;
 107:./Eigen/src/Core/CwiseBinaryOp.h **** #endif
 108:./Eigen/src/Core/CwiseBinaryOp.h **** 
 109:./Eigen/src/Core/CwiseBinaryOp.h ****     EIGEN_DEVICE_FUNC EIGEN_STRONG_INLINE
 110:./Eigen/src/Core/CwiseBinaryOp.h ****     CwiseBinaryOp(const Lhs& aLhs, const Rhs& aRhs, const BinaryOp& func = BinaryOp())
 228              		.loc 10 110 5 is_stmt 1 view .LVU35
 229              	.LBB27461:
 230              	.LBI27461:
 111:./Eigen/src/Core/CwiseBinaryOp.h ****       : m_lhs(aLhs), m_rhs(aRhs), m_functor(func)
 112:./Eigen/src/Core/CwiseBinaryOp.h ****     {
 113:./Eigen/src/Core/CwiseBinaryOp.h ****       EIGEN_CHECK_BINARY_COMPATIBILIY(BinaryOp,typename Lhs::Scalar,typename Rhs::Scalar);
 114:./Eigen/src/Core/CwiseBinaryOp.h ****       // require the sizes to match
 115:./Eigen/src/Core/CwiseBinaryOp.h ****       EIGEN_STATIC_ASSERT_SAME_MATRIX_SIZE(Lhs, Rhs)
 116:./Eigen/src/Core/CwiseBinaryOp.h ****       eigen_assert(aLhs.rows() == aRhs.rows() && aLhs.cols() == aRhs.cols());
 117:./Eigen/src/Core/CwiseBinaryOp.h ****     }
 118:./Eigen/src/Core/CwiseBinaryOp.h **** 
 119:./Eigen/src/Core/CwiseBinaryOp.h ****     EIGEN_DEVICE_FUNC EIGEN_STRONG_INLINE EIGEN_CONSTEXPR
 120:./Eigen/src/Core/CwiseBinaryOp.h ****     Index rows() const EIGEN_NOEXCEPT {
 121:./Eigen/src/Core/CwiseBinaryOp.h ****       // return the fixed size type if available to enable compile time optimizations
 122:./Eigen/src/Core/CwiseBinaryOp.h ****       return internal::traits<typename internal::remove_all<LhsNested>::type>::RowsAtCompileTime==D
 123:./Eigen/src/Core/CwiseBinaryOp.h ****     }
 124:./Eigen/src/Core/CwiseBinaryOp.h ****     EIGEN_DEVICE_FUNC EIGEN_STRONG_INLINE EIGEN_CONSTEXPR
 125:./Eigen/src/Core/CwiseBinaryOp.h ****     Index cols() const EIGEN_NOEXCEPT {
 126:./Eigen/src/Core/CwiseBinaryOp.h ****       // return the fixed size type if available to enable compile time optimizations
 127:./Eigen/src/Core/CwiseBinaryOp.h ****       return internal::traits<typename internal::remove_all<LhsNested>::type>::ColsAtCompileTime==D
 128:./Eigen/src/Core/CwiseBinaryOp.h ****     }
 129:./Eigen/src/Core/CwiseBinaryOp.h **** 
 130:./Eigen/src/Core/CwiseBinaryOp.h ****     /** \returns the left hand side nested expression */
 131:./Eigen/src/Core/CwiseBinaryOp.h ****     EIGEN_DEVICE_FUNC EIGEN_STRONG_INLINE
 132:./Eigen/src/Core/CwiseBinaryOp.h ****     const _LhsNested& lhs() const { return m_lhs; }
 133:./Eigen/src/Core/CwiseBinaryOp.h ****     /** \returns the right hand side nested expression */
 134:./Eigen/src/Core/CwiseBinaryOp.h ****     EIGEN_DEVICE_FUNC EIGEN_STRONG_INLINE
 135:./Eigen/src/Core/CwiseBinaryOp.h ****     const _RhsNested& rhs() const { return m_rhs; }
 136:./Eigen/src/Core/CwiseBinaryOp.h ****     /** \returns the functor representing the binary operation */
 137:./Eigen/src/Core/CwiseBinaryOp.h ****     EIGEN_DEVICE_FUNC EIGEN_STRONG_INLINE
 138:./Eigen/src/Core/CwiseBinaryOp.h ****     const BinaryOp& functor() const { return m_functor; }
 139:./Eigen/src/Core/CwiseBinaryOp.h **** 
 140:./Eigen/src/Core/CwiseBinaryOp.h ****   protected:
 141:./Eigen/src/Core/CwiseBinaryOp.h ****     LhsNested m_lhs;
 142:./Eigen/src/Core/CwiseBinaryOp.h ****     RhsNested m_rhs;
 143:./Eigen/src/Core/CwiseBinaryOp.h ****     const BinaryOp m_functor;
 144:./Eigen/src/Core/CwiseBinaryOp.h **** };
ARM GAS  C:\Users\purdu\AppData\Local\Temp\ccYBYMxG.s 			page 36


 145:./Eigen/src/Core/CwiseBinaryOp.h **** 
 146:./Eigen/src/Core/CwiseBinaryOp.h **** // Generic API dispatcher
 147:./Eigen/src/Core/CwiseBinaryOp.h **** template<typename BinaryOp, typename Lhs, typename Rhs, typename StorageKind>
 148:./Eigen/src/Core/CwiseBinaryOp.h **** class CwiseBinaryOpImpl
 231              		.loc 10 148 7 view .LVU36
 232              	.LBB27462:
 233              	.LBI27462:
 234              		.loc 6 485 5 view .LVU37
 235              	.LBB27463:
 236              	.LBI27463:
 237              		.loc 7 681 23 view .LVU38
 238              		.loc 7 681 23 is_stmt 0 view .LVU39
 239              	.LBE27463:
 240              	.LBE27462:
 241              	.LBE27461:
 242              	.LBB27464:
 243              	.LBI27464:
  60:./Eigen/src/Core/CwiseNullaryOp.h **** {
 244              		.loc 5 60 7 is_stmt 1 view .LVU40
 245              	.LBB27465:
 246              	.LBI27465:
  19:./Eigen/src/Core/functors/NullaryFunctors.h ****   EIGEN_DEVICE_FUNC EIGEN_STRONG_INLINE scalar_constant_op(const Scalar& other) : m_other(other) { 
 247              		.loc 4 19 41 view .LVU41
 248              	.LBB27466:
  19:./Eigen/src/Core/functors/NullaryFunctors.h ****   EIGEN_DEVICE_FUNC EIGEN_STRONG_INLINE scalar_constant_op(const Scalar& other) : m_other(other) { 
 249              		.loc 4 19 95 is_stmt 0 view .LVU42
 250 0014 C0E90423 		strd	r2, [r0, #16]
 251              	.LVL9:
  19:./Eigen/src/Core/functors/NullaryFunctors.h ****   EIGEN_DEVICE_FUNC EIGEN_STRONG_INLINE scalar_constant_op(const Scalar& other) : m_other(other) { 
 252              		.loc 4 19 95 view .LVU43
 253              	.LBE27466:
 254              	.LBE27465:
 255              	.LBE27464:
 256              	.LBB27467:
 257              	.LBI27467:
  77:./Eigen/src/Core/CwiseBinaryOp.h ****   public CwiseBinaryOpImpl<
 258              		.loc 10 77 7 is_stmt 1 view .LVU44
 259              	.LBB27468:
 260 0018 00F1180E 		add	lr, r0, #24
 261              	.LVL10:
  77:./Eigen/src/Core/CwiseBinaryOp.h ****   public CwiseBinaryOpImpl<
 262              		.loc 10 77 7 is_stmt 0 view .LVU45
 263 001c 6446     		mov	r4, ip
 264 001e 0FCC     		ldmia	r4!, {r0, r1, r2, r3}
 265              	.LVL11:
  77:./Eigen/src/Core/CwiseBinaryOp.h ****   public CwiseBinaryOpImpl<
 266              		.loc 10 77 7 view .LVU46
 267 0020 AEE80F00 		stmia	lr!, {r0, r1, r2, r3}
 268              	.LVL12:
  77:./Eigen/src/Core/CwiseBinaryOp.h ****   public CwiseBinaryOpImpl<
 269              		.loc 10 77 7 view .LVU47
 270 0024 94E80300 		ldm	r4, {r0, r1}
 271 0028 8EE80300 		stm	lr, {r0, r1}
 272 002c 05F1300E 		add	lr, r5, #48
 273              	.LVL13:
  77:./Eigen/src/Core/CwiseBinaryOp.h ****   public CwiseBinaryOpImpl<
 274              		.loc 10 77 7 view .LVU48
ARM GAS  C:\Users\purdu\AppData\Local\Temp\ccYBYMxG.s 			page 37


 275 0030 0CF1180C 		add	ip, ip, #24
 276              	.LVL14:
  77:./Eigen/src/Core/CwiseBinaryOp.h ****   public CwiseBinaryOpImpl<
 277              		.loc 10 77 7 view .LVU49
 278 0034 BCE80F00 		ldmia	ip!, {r0, r1, r2, r3}
 279              	.LVL15:
  77:./Eigen/src/Core/CwiseBinaryOp.h ****   public CwiseBinaryOpImpl<
 280              		.loc 10 77 7 view .LVU50
 281 0038 AEE80F00 		stmia	lr!, {r0, r1, r2, r3}
 282 003c 9CE80300 		ldm	ip, {r0, r1}
 283 0040 8EE80300 		stm	lr, {r0, r1}
 284              	.LVL16:
 285              	.LBB27469:
 286              	.LBI27469:
  75:./Eigen/src/Core/functors/BinaryFunctors.h **** #else
  76:./Eigen/src/Core/functors/BinaryFunctors.h ****   scalar_product_op() {
  77:./Eigen/src/Core/functors/BinaryFunctors.h ****     EIGEN_SCALAR_BINARY_OP_PLUGIN
  78:./Eigen/src/Core/functors/BinaryFunctors.h ****   }
  79:./Eigen/src/Core/functors/BinaryFunctors.h **** #endif
  80:./Eigen/src/Core/functors/BinaryFunctors.h ****   EIGEN_DEVICE_FUNC EIGEN_STRONG_INLINE result_type operator() (const LhsScalar& a, const RhsScalar
  81:./Eigen/src/Core/functors/BinaryFunctors.h ****   template<typename Packet>
  82:./Eigen/src/Core/functors/BinaryFunctors.h ****   EIGEN_DEVICE_FUNC EIGEN_STRONG_INLINE Packet packetOp(const Packet& a, const Packet& b) const
  83:./Eigen/src/Core/functors/BinaryFunctors.h ****   { return internal::pmul(a,b); }
  84:./Eigen/src/Core/functors/BinaryFunctors.h ****   template<typename Packet>
  85:./Eigen/src/Core/functors/BinaryFunctors.h ****   EIGEN_DEVICE_FUNC EIGEN_STRONG_INLINE result_type predux(const Packet& a) const
  86:./Eigen/src/Core/functors/BinaryFunctors.h ****   { return internal::predux_mul(a); }
  87:./Eigen/src/Core/functors/BinaryFunctors.h **** };
  88:./Eigen/src/Core/functors/BinaryFunctors.h **** template<typename LhsScalar,typename RhsScalar>
  89:./Eigen/src/Core/functors/BinaryFunctors.h **** struct functor_traits<scalar_product_op<LhsScalar,RhsScalar> > {
  90:./Eigen/src/Core/functors/BinaryFunctors.h ****   enum {
  91:./Eigen/src/Core/functors/BinaryFunctors.h ****     Cost = (int(NumTraits<LhsScalar>::MulCost) + int(NumTraits<RhsScalar>::MulCost))/2, // rough es
  92:./Eigen/src/Core/functors/BinaryFunctors.h ****     PacketAccess = is_same<LhsScalar,RhsScalar>::value && packet_traits<LhsScalar>::HasMul && packe
  93:./Eigen/src/Core/functors/BinaryFunctors.h ****     // TODO vectorize mixed product
  94:./Eigen/src/Core/functors/BinaryFunctors.h ****   };
  95:./Eigen/src/Core/functors/BinaryFunctors.h **** };
  96:./Eigen/src/Core/functors/BinaryFunctors.h **** 
  97:./Eigen/src/Core/functors/BinaryFunctors.h **** template<>
  98:./Eigen/src/Core/functors/BinaryFunctors.h **** EIGEN_DEVICE_FUNC EIGEN_STRONG_INLINE bool scalar_product_op<bool,bool>::operator() (const bool& a,
  99:./Eigen/src/Core/functors/BinaryFunctors.h **** 
 100:./Eigen/src/Core/functors/BinaryFunctors.h **** 
 101:./Eigen/src/Core/functors/BinaryFunctors.h **** /** \internal
 102:./Eigen/src/Core/functors/BinaryFunctors.h ****   * \brief Template functor to compute the conjugate product of two scalars
 103:./Eigen/src/Core/functors/BinaryFunctors.h ****   *
 104:./Eigen/src/Core/functors/BinaryFunctors.h ****   * This is a short cut for conj(x) * y which is needed for optimization purpose; in Eigen2 support
 105:./Eigen/src/Core/functors/BinaryFunctors.h ****   */
 106:./Eigen/src/Core/functors/BinaryFunctors.h **** template<typename LhsScalar,typename RhsScalar>
 107:./Eigen/src/Core/functors/BinaryFunctors.h **** struct scalar_conj_product_op  : binary_op_base<LhsScalar,RhsScalar>
 108:./Eigen/src/Core/functors/BinaryFunctors.h **** {
 109:./Eigen/src/Core/functors/BinaryFunctors.h **** 
 110:./Eigen/src/Core/functors/BinaryFunctors.h ****   enum {
 111:./Eigen/src/Core/functors/BinaryFunctors.h ****     Conj = NumTraits<LhsScalar>::IsComplex
 112:./Eigen/src/Core/functors/BinaryFunctors.h ****   };
 113:./Eigen/src/Core/functors/BinaryFunctors.h ****   
 114:./Eigen/src/Core/functors/BinaryFunctors.h ****   typedef typename ScalarBinaryOpTraits<LhsScalar,RhsScalar,scalar_conj_product_op>::ReturnType res
 115:./Eigen/src/Core/functors/BinaryFunctors.h ****   
 116:./Eigen/src/Core/functors/BinaryFunctors.h ****   EIGEN_EMPTY_STRUCT_CTOR(scalar_conj_product_op)
 117:./Eigen/src/Core/functors/BinaryFunctors.h ****   EIGEN_DEVICE_FUNC EIGEN_STRONG_INLINE result_type operator() (const LhsScalar& a, const RhsScalar
ARM GAS  C:\Users\purdu\AppData\Local\Temp\ccYBYMxG.s 			page 38


 118:./Eigen/src/Core/functors/BinaryFunctors.h ****   { return conj_helper<LhsScalar,RhsScalar,Conj,false>().pmul(a,b); }
 119:./Eigen/src/Core/functors/BinaryFunctors.h ****   
 120:./Eigen/src/Core/functors/BinaryFunctors.h ****   template<typename Packet>
 121:./Eigen/src/Core/functors/BinaryFunctors.h ****   EIGEN_DEVICE_FUNC EIGEN_STRONG_INLINE Packet packetOp(const Packet& a, const Packet& b) const
 122:./Eigen/src/Core/functors/BinaryFunctors.h ****   { return conj_helper<Packet,Packet,Conj,false>().pmul(a,b); }
 123:./Eigen/src/Core/functors/BinaryFunctors.h **** };
 124:./Eigen/src/Core/functors/BinaryFunctors.h **** template<typename LhsScalar,typename RhsScalar>
 125:./Eigen/src/Core/functors/BinaryFunctors.h **** struct functor_traits<scalar_conj_product_op<LhsScalar,RhsScalar> > {
 126:./Eigen/src/Core/functors/BinaryFunctors.h ****   enum {
 127:./Eigen/src/Core/functors/BinaryFunctors.h ****     Cost = NumTraits<LhsScalar>::MulCost,
 128:./Eigen/src/Core/functors/BinaryFunctors.h ****     PacketAccess = internal::is_same<LhsScalar, RhsScalar>::value && packet_traits<LhsScalar>::HasM
 129:./Eigen/src/Core/functors/BinaryFunctors.h ****   };
 130:./Eigen/src/Core/functors/BinaryFunctors.h **** };
 131:./Eigen/src/Core/functors/BinaryFunctors.h **** 
 132:./Eigen/src/Core/functors/BinaryFunctors.h **** /** \internal
 133:./Eigen/src/Core/functors/BinaryFunctors.h ****   * \brief Template functor to compute the min of two scalars
 134:./Eigen/src/Core/functors/BinaryFunctors.h ****   *
 135:./Eigen/src/Core/functors/BinaryFunctors.h ****   * \sa class CwiseBinaryOp, MatrixBase::cwiseMin, class VectorwiseOp, MatrixBase::minCoeff()
 136:./Eigen/src/Core/functors/BinaryFunctors.h ****   */
 137:./Eigen/src/Core/functors/BinaryFunctors.h **** template<typename LhsScalar,typename RhsScalar, int NaNPropagation>
 138:./Eigen/src/Core/functors/BinaryFunctors.h **** struct scalar_min_op : binary_op_base<LhsScalar,RhsScalar>
 139:./Eigen/src/Core/functors/BinaryFunctors.h **** {
 140:./Eigen/src/Core/functors/BinaryFunctors.h ****   typedef typename ScalarBinaryOpTraits<LhsScalar,RhsScalar,scalar_min_op>::ReturnType result_type;
 141:./Eigen/src/Core/functors/BinaryFunctors.h ****   EIGEN_EMPTY_STRUCT_CTOR(scalar_min_op)
 142:./Eigen/src/Core/functors/BinaryFunctors.h ****   EIGEN_DEVICE_FUNC EIGEN_STRONG_INLINE result_type operator() (const LhsScalar& a, const RhsScalar
 143:./Eigen/src/Core/functors/BinaryFunctors.h ****     return internal::pmin<NaNPropagation>(a, b);
 144:./Eigen/src/Core/functors/BinaryFunctors.h ****   }
 145:./Eigen/src/Core/functors/BinaryFunctors.h ****   template<typename Packet>
 146:./Eigen/src/Core/functors/BinaryFunctors.h ****   EIGEN_DEVICE_FUNC EIGEN_STRONG_INLINE Packet packetOp(const Packet& a, const Packet& b) const
 147:./Eigen/src/Core/functors/BinaryFunctors.h ****   {
 148:./Eigen/src/Core/functors/BinaryFunctors.h ****     return internal::pmin<NaNPropagation>(a,b);
 149:./Eigen/src/Core/functors/BinaryFunctors.h ****   }
 150:./Eigen/src/Core/functors/BinaryFunctors.h ****   template<typename Packet>
 151:./Eigen/src/Core/functors/BinaryFunctors.h ****   EIGEN_DEVICE_FUNC EIGEN_STRONG_INLINE result_type predux(const Packet& a) const
 152:./Eigen/src/Core/functors/BinaryFunctors.h ****   {
 153:./Eigen/src/Core/functors/BinaryFunctors.h ****     return internal::predux_min<NaNPropagation>(a);
 154:./Eigen/src/Core/functors/BinaryFunctors.h ****   }
 155:./Eigen/src/Core/functors/BinaryFunctors.h **** };
 156:./Eigen/src/Core/functors/BinaryFunctors.h **** 
 157:./Eigen/src/Core/functors/BinaryFunctors.h **** template<typename LhsScalar,typename RhsScalar, int NaNPropagation>
 158:./Eigen/src/Core/functors/BinaryFunctors.h **** struct functor_traits<scalar_min_op<LhsScalar,RhsScalar, NaNPropagation> > {
 159:./Eigen/src/Core/functors/BinaryFunctors.h ****   enum {
 160:./Eigen/src/Core/functors/BinaryFunctors.h ****     Cost = (NumTraits<LhsScalar>::AddCost+NumTraits<RhsScalar>::AddCost)/2,
 161:./Eigen/src/Core/functors/BinaryFunctors.h ****     PacketAccess = internal::is_same<LhsScalar, RhsScalar>::value && packet_traits<LhsScalar>::HasM
 162:./Eigen/src/Core/functors/BinaryFunctors.h ****   };
 163:./Eigen/src/Core/functors/BinaryFunctors.h **** };
 164:./Eigen/src/Core/functors/BinaryFunctors.h **** 
 165:./Eigen/src/Core/functors/BinaryFunctors.h **** /** \internal
 166:./Eigen/src/Core/functors/BinaryFunctors.h ****   * \brief Template functor to compute the max of two scalars
 167:./Eigen/src/Core/functors/BinaryFunctors.h ****   *
 168:./Eigen/src/Core/functors/BinaryFunctors.h ****   * \sa class CwiseBinaryOp, MatrixBase::cwiseMax, class VectorwiseOp, MatrixBase::maxCoeff()
 169:./Eigen/src/Core/functors/BinaryFunctors.h ****   */
 170:./Eigen/src/Core/functors/BinaryFunctors.h **** template<typename LhsScalar,typename RhsScalar, int NaNPropagation>
 171:./Eigen/src/Core/functors/BinaryFunctors.h **** struct scalar_max_op : binary_op_base<LhsScalar,RhsScalar>
 172:./Eigen/src/Core/functors/BinaryFunctors.h **** {
 173:./Eigen/src/Core/functors/BinaryFunctors.h ****   typedef typename ScalarBinaryOpTraits<LhsScalar,RhsScalar,scalar_max_op>::ReturnType result_type;
 174:./Eigen/src/Core/functors/BinaryFunctors.h ****   EIGEN_EMPTY_STRUCT_CTOR(scalar_max_op)
ARM GAS  C:\Users\purdu\AppData\Local\Temp\ccYBYMxG.s 			page 39


 175:./Eigen/src/Core/functors/BinaryFunctors.h ****   EIGEN_DEVICE_FUNC EIGEN_STRONG_INLINE result_type operator() (const LhsScalar& a, const RhsScalar
 176:./Eigen/src/Core/functors/BinaryFunctors.h ****     return internal::pmax<NaNPropagation>(a,b);
 177:./Eigen/src/Core/functors/BinaryFunctors.h ****   }
 178:./Eigen/src/Core/functors/BinaryFunctors.h ****   template<typename Packet>
 179:./Eigen/src/Core/functors/BinaryFunctors.h ****   EIGEN_DEVICE_FUNC EIGEN_STRONG_INLINE Packet packetOp(const Packet& a, const Packet& b) const
 180:./Eigen/src/Core/functors/BinaryFunctors.h ****   {
 181:./Eigen/src/Core/functors/BinaryFunctors.h ****     return internal::pmax<NaNPropagation>(a,b);
 182:./Eigen/src/Core/functors/BinaryFunctors.h ****   }
 183:./Eigen/src/Core/functors/BinaryFunctors.h ****   template<typename Packet>
 184:./Eigen/src/Core/functors/BinaryFunctors.h ****   EIGEN_DEVICE_FUNC EIGEN_STRONG_INLINE result_type predux(const Packet& a) const
 185:./Eigen/src/Core/functors/BinaryFunctors.h ****   {
 186:./Eigen/src/Core/functors/BinaryFunctors.h ****     return internal::predux_max<NaNPropagation>(a);
 187:./Eigen/src/Core/functors/BinaryFunctors.h ****   }
 188:./Eigen/src/Core/functors/BinaryFunctors.h **** };
 189:./Eigen/src/Core/functors/BinaryFunctors.h **** 
 190:./Eigen/src/Core/functors/BinaryFunctors.h **** template<typename LhsScalar,typename RhsScalar, int NaNPropagation>
 191:./Eigen/src/Core/functors/BinaryFunctors.h **** struct functor_traits<scalar_max_op<LhsScalar,RhsScalar, NaNPropagation> > {
 192:./Eigen/src/Core/functors/BinaryFunctors.h ****   enum {
 193:./Eigen/src/Core/functors/BinaryFunctors.h ****     Cost = (NumTraits<LhsScalar>::AddCost+NumTraits<RhsScalar>::AddCost)/2,
 194:./Eigen/src/Core/functors/BinaryFunctors.h ****     PacketAccess = internal::is_same<LhsScalar, RhsScalar>::value && packet_traits<LhsScalar>::HasM
 195:./Eigen/src/Core/functors/BinaryFunctors.h ****   };
 196:./Eigen/src/Core/functors/BinaryFunctors.h **** };
 197:./Eigen/src/Core/functors/BinaryFunctors.h **** 
 198:./Eigen/src/Core/functors/BinaryFunctors.h **** /** \internal
 199:./Eigen/src/Core/functors/BinaryFunctors.h ****   * \brief Template functors for comparison of two scalars
 200:./Eigen/src/Core/functors/BinaryFunctors.h ****   * \todo Implement packet-comparisons
 201:./Eigen/src/Core/functors/BinaryFunctors.h ****   */
 202:./Eigen/src/Core/functors/BinaryFunctors.h **** template<typename LhsScalar, typename RhsScalar, ComparisonName cmp> struct scalar_cmp_op;
 203:./Eigen/src/Core/functors/BinaryFunctors.h **** 
 204:./Eigen/src/Core/functors/BinaryFunctors.h **** template<typename LhsScalar, typename RhsScalar, ComparisonName cmp>
 205:./Eigen/src/Core/functors/BinaryFunctors.h **** struct functor_traits<scalar_cmp_op<LhsScalar,RhsScalar, cmp> > {
 206:./Eigen/src/Core/functors/BinaryFunctors.h ****   enum {
 207:./Eigen/src/Core/functors/BinaryFunctors.h ****     Cost = (NumTraits<LhsScalar>::AddCost+NumTraits<RhsScalar>::AddCost)/2,
 208:./Eigen/src/Core/functors/BinaryFunctors.h ****     PacketAccess = false
 209:./Eigen/src/Core/functors/BinaryFunctors.h ****   };
 210:./Eigen/src/Core/functors/BinaryFunctors.h **** };
 211:./Eigen/src/Core/functors/BinaryFunctors.h **** 
 212:./Eigen/src/Core/functors/BinaryFunctors.h **** template<ComparisonName Cmp, typename LhsScalar, typename RhsScalar>
 213:./Eigen/src/Core/functors/BinaryFunctors.h **** struct result_of<scalar_cmp_op<LhsScalar, RhsScalar, Cmp>(LhsScalar,RhsScalar)> {
 214:./Eigen/src/Core/functors/BinaryFunctors.h ****   typedef bool type;
 215:./Eigen/src/Core/functors/BinaryFunctors.h **** };
 216:./Eigen/src/Core/functors/BinaryFunctors.h **** 
 217:./Eigen/src/Core/functors/BinaryFunctors.h **** 
 218:./Eigen/src/Core/functors/BinaryFunctors.h **** template<typename LhsScalar, typename RhsScalar>
 219:./Eigen/src/Core/functors/BinaryFunctors.h **** struct scalar_cmp_op<LhsScalar,RhsScalar, cmp_EQ> : binary_op_base<LhsScalar,RhsScalar>
 220:./Eigen/src/Core/functors/BinaryFunctors.h **** {
 221:./Eigen/src/Core/functors/BinaryFunctors.h ****   typedef bool result_type;
 222:./Eigen/src/Core/functors/BinaryFunctors.h ****   EIGEN_EMPTY_STRUCT_CTOR(scalar_cmp_op)
 223:./Eigen/src/Core/functors/BinaryFunctors.h ****   EIGEN_DEVICE_FUNC EIGEN_STRONG_INLINE bool operator()(const LhsScalar& a, const RhsScalar& b) con
 224:./Eigen/src/Core/functors/BinaryFunctors.h **** };
 225:./Eigen/src/Core/functors/BinaryFunctors.h **** template<typename LhsScalar, typename RhsScalar>
 226:./Eigen/src/Core/functors/BinaryFunctors.h **** struct scalar_cmp_op<LhsScalar,RhsScalar, cmp_LT> : binary_op_base<LhsScalar,RhsScalar>
 227:./Eigen/src/Core/functors/BinaryFunctors.h **** {
 228:./Eigen/src/Core/functors/BinaryFunctors.h ****   typedef bool result_type;
 229:./Eigen/src/Core/functors/BinaryFunctors.h ****   EIGEN_EMPTY_STRUCT_CTOR(scalar_cmp_op)
 230:./Eigen/src/Core/functors/BinaryFunctors.h ****   EIGEN_DEVICE_FUNC EIGEN_STRONG_INLINE bool operator()(const LhsScalar& a, const RhsScalar& b) con
 231:./Eigen/src/Core/functors/BinaryFunctors.h **** };
ARM GAS  C:\Users\purdu\AppData\Local\Temp\ccYBYMxG.s 			page 40


 232:./Eigen/src/Core/functors/BinaryFunctors.h **** template<typename LhsScalar, typename RhsScalar>
 233:./Eigen/src/Core/functors/BinaryFunctors.h **** struct scalar_cmp_op<LhsScalar,RhsScalar, cmp_LE> : binary_op_base<LhsScalar,RhsScalar>
 234:./Eigen/src/Core/functors/BinaryFunctors.h **** {
 235:./Eigen/src/Core/functors/BinaryFunctors.h ****   typedef bool result_type;
 236:./Eigen/src/Core/functors/BinaryFunctors.h ****   EIGEN_EMPTY_STRUCT_CTOR(scalar_cmp_op)
 237:./Eigen/src/Core/functors/BinaryFunctors.h ****   EIGEN_DEVICE_FUNC EIGEN_STRONG_INLINE bool operator()(const LhsScalar& a, const RhsScalar& b) con
 238:./Eigen/src/Core/functors/BinaryFunctors.h **** };
 239:./Eigen/src/Core/functors/BinaryFunctors.h **** template<typename LhsScalar, typename RhsScalar>
 240:./Eigen/src/Core/functors/BinaryFunctors.h **** struct scalar_cmp_op<LhsScalar,RhsScalar, cmp_GT> : binary_op_base<LhsScalar,RhsScalar>
 241:./Eigen/src/Core/functors/BinaryFunctors.h **** {
 242:./Eigen/src/Core/functors/BinaryFunctors.h ****   typedef bool result_type;
 243:./Eigen/src/Core/functors/BinaryFunctors.h ****   EIGEN_EMPTY_STRUCT_CTOR(scalar_cmp_op)
 244:./Eigen/src/Core/functors/BinaryFunctors.h ****   EIGEN_DEVICE_FUNC EIGEN_STRONG_INLINE bool operator()(const LhsScalar& a, const RhsScalar& b) con
 245:./Eigen/src/Core/functors/BinaryFunctors.h **** };
 246:./Eigen/src/Core/functors/BinaryFunctors.h **** template<typename LhsScalar, typename RhsScalar>
 247:./Eigen/src/Core/functors/BinaryFunctors.h **** struct scalar_cmp_op<LhsScalar,RhsScalar, cmp_GE> : binary_op_base<LhsScalar,RhsScalar>
 248:./Eigen/src/Core/functors/BinaryFunctors.h **** {
 249:./Eigen/src/Core/functors/BinaryFunctors.h ****   typedef bool result_type;
 250:./Eigen/src/Core/functors/BinaryFunctors.h ****   EIGEN_EMPTY_STRUCT_CTOR(scalar_cmp_op)
 251:./Eigen/src/Core/functors/BinaryFunctors.h ****   EIGEN_DEVICE_FUNC EIGEN_STRONG_INLINE bool operator()(const LhsScalar& a, const RhsScalar& b) con
 252:./Eigen/src/Core/functors/BinaryFunctors.h **** };
 253:./Eigen/src/Core/functors/BinaryFunctors.h **** template<typename LhsScalar, typename RhsScalar>
 254:./Eigen/src/Core/functors/BinaryFunctors.h **** struct scalar_cmp_op<LhsScalar,RhsScalar, cmp_UNORD> : binary_op_base<LhsScalar,RhsScalar>
 255:./Eigen/src/Core/functors/BinaryFunctors.h **** {
 256:./Eigen/src/Core/functors/BinaryFunctors.h ****   typedef bool result_type;
 257:./Eigen/src/Core/functors/BinaryFunctors.h ****   EIGEN_EMPTY_STRUCT_CTOR(scalar_cmp_op)
 258:./Eigen/src/Core/functors/BinaryFunctors.h ****   EIGEN_DEVICE_FUNC EIGEN_STRONG_INLINE bool operator()(const LhsScalar& a, const RhsScalar& b) con
 259:./Eigen/src/Core/functors/BinaryFunctors.h **** };
 260:./Eigen/src/Core/functors/BinaryFunctors.h **** template<typename LhsScalar, typename RhsScalar>
 261:./Eigen/src/Core/functors/BinaryFunctors.h **** struct scalar_cmp_op<LhsScalar,RhsScalar, cmp_NEQ> : binary_op_base<LhsScalar,RhsScalar>
 262:./Eigen/src/Core/functors/BinaryFunctors.h **** {
 263:./Eigen/src/Core/functors/BinaryFunctors.h ****   typedef bool result_type;
 264:./Eigen/src/Core/functors/BinaryFunctors.h ****   EIGEN_EMPTY_STRUCT_CTOR(scalar_cmp_op)
 265:./Eigen/src/Core/functors/BinaryFunctors.h ****   EIGEN_DEVICE_FUNC EIGEN_STRONG_INLINE bool operator()(const LhsScalar& a, const RhsScalar& b) con
 266:./Eigen/src/Core/functors/BinaryFunctors.h **** };
 267:./Eigen/src/Core/functors/BinaryFunctors.h **** 
 268:./Eigen/src/Core/functors/BinaryFunctors.h **** /** \internal
 269:./Eigen/src/Core/functors/BinaryFunctors.h ****   * \brief Template functor to compute the hypot of two \b positive \b and \b real scalars
 270:./Eigen/src/Core/functors/BinaryFunctors.h ****   *
 271:./Eigen/src/Core/functors/BinaryFunctors.h ****   * \sa MatrixBase::stableNorm(), class Redux
 272:./Eigen/src/Core/functors/BinaryFunctors.h ****   */
 273:./Eigen/src/Core/functors/BinaryFunctors.h **** template<typename Scalar>
 274:./Eigen/src/Core/functors/BinaryFunctors.h **** struct scalar_hypot_op<Scalar,Scalar> : binary_op_base<Scalar,Scalar>
 275:./Eigen/src/Core/functors/BinaryFunctors.h **** {
 276:./Eigen/src/Core/functors/BinaryFunctors.h ****   EIGEN_EMPTY_STRUCT_CTOR(scalar_hypot_op)
 277:./Eigen/src/Core/functors/BinaryFunctors.h **** 
 278:./Eigen/src/Core/functors/BinaryFunctors.h ****   EIGEN_DEVICE_FUNC EIGEN_STRONG_INLINE const Scalar operator() (const Scalar &x, const Scalar &y) 
 279:./Eigen/src/Core/functors/BinaryFunctors.h ****   {
 280:./Eigen/src/Core/functors/BinaryFunctors.h ****     // This functor is used by hypotNorm only for which it is faster to first apply abs
 281:./Eigen/src/Core/functors/BinaryFunctors.h ****     // on all coefficients prior to reduction through hypot.
 282:./Eigen/src/Core/functors/BinaryFunctors.h ****     // This way we avoid calling abs on positive and real entries, and this also permits
 283:./Eigen/src/Core/functors/BinaryFunctors.h ****     // to seamlessly handle complexes. Otherwise we would have to handle both real and complexes
 284:./Eigen/src/Core/functors/BinaryFunctors.h ****     // through the same functor...
 285:./Eigen/src/Core/functors/BinaryFunctors.h ****     return internal::positive_real_hypot(x,y);
 286:./Eigen/src/Core/functors/BinaryFunctors.h ****   }
 287:./Eigen/src/Core/functors/BinaryFunctors.h **** };
 288:./Eigen/src/Core/functors/BinaryFunctors.h **** template<typename Scalar>
ARM GAS  C:\Users\purdu\AppData\Local\Temp\ccYBYMxG.s 			page 41


 289:./Eigen/src/Core/functors/BinaryFunctors.h **** struct functor_traits<scalar_hypot_op<Scalar,Scalar> > {
 290:./Eigen/src/Core/functors/BinaryFunctors.h ****   enum
 291:./Eigen/src/Core/functors/BinaryFunctors.h ****   {
 292:./Eigen/src/Core/functors/BinaryFunctors.h ****     Cost = 3 * NumTraits<Scalar>::AddCost +
 293:./Eigen/src/Core/functors/BinaryFunctors.h ****            2 * NumTraits<Scalar>::MulCost +
 294:./Eigen/src/Core/functors/BinaryFunctors.h ****            2 * scalar_div_cost<Scalar,false>::value,
 295:./Eigen/src/Core/functors/BinaryFunctors.h ****     PacketAccess = false
 296:./Eigen/src/Core/functors/BinaryFunctors.h ****   };
 297:./Eigen/src/Core/functors/BinaryFunctors.h **** };
 298:./Eigen/src/Core/functors/BinaryFunctors.h **** 
 299:./Eigen/src/Core/functors/BinaryFunctors.h **** /** \internal
 300:./Eigen/src/Core/functors/BinaryFunctors.h ****   * \brief Template functor to compute the pow of two scalars
 301:./Eigen/src/Core/functors/BinaryFunctors.h ****   * See the specification of pow in https://en.cppreference.com/w/cpp/numeric/math/pow
 302:./Eigen/src/Core/functors/BinaryFunctors.h ****   */
 303:./Eigen/src/Core/functors/BinaryFunctors.h **** template<typename Scalar, typename Exponent>
 304:./Eigen/src/Core/functors/BinaryFunctors.h **** struct scalar_pow_op  : binary_op_base<Scalar,Exponent>
 305:./Eigen/src/Core/functors/BinaryFunctors.h **** {
 306:./Eigen/src/Core/functors/BinaryFunctors.h ****   typedef typename ScalarBinaryOpTraits<Scalar,Exponent,scalar_pow_op>::ReturnType result_type;
 307:./Eigen/src/Core/functors/BinaryFunctors.h **** #ifndef EIGEN_SCALAR_BINARY_OP_PLUGIN
 308:./Eigen/src/Core/functors/BinaryFunctors.h ****   EIGEN_EMPTY_STRUCT_CTOR(scalar_pow_op)
 309:./Eigen/src/Core/functors/BinaryFunctors.h **** #else
 310:./Eigen/src/Core/functors/BinaryFunctors.h ****   scalar_pow_op() {
 311:./Eigen/src/Core/functors/BinaryFunctors.h ****     typedef Scalar LhsScalar;
 312:./Eigen/src/Core/functors/BinaryFunctors.h ****     typedef Exponent RhsScalar;
 313:./Eigen/src/Core/functors/BinaryFunctors.h ****     EIGEN_SCALAR_BINARY_OP_PLUGIN
 314:./Eigen/src/Core/functors/BinaryFunctors.h ****   }
 315:./Eigen/src/Core/functors/BinaryFunctors.h **** #endif
 316:./Eigen/src/Core/functors/BinaryFunctors.h **** 
 317:./Eigen/src/Core/functors/BinaryFunctors.h ****   EIGEN_DEVICE_FUNC
 318:./Eigen/src/Core/functors/BinaryFunctors.h ****   inline result_type operator() (const Scalar& a, const Exponent& b) const { return numext::pow(a, 
 319:./Eigen/src/Core/functors/BinaryFunctors.h **** 
 320:./Eigen/src/Core/functors/BinaryFunctors.h ****   template<typename Packet>
 321:./Eigen/src/Core/functors/BinaryFunctors.h ****   EIGEN_DEVICE_FUNC EIGEN_STRONG_INLINE const Packet packetOp(const Packet& a, const Packet& b) con
 322:./Eigen/src/Core/functors/BinaryFunctors.h ****   {
 323:./Eigen/src/Core/functors/BinaryFunctors.h ****     return generic_pow(a,b);
 324:./Eigen/src/Core/functors/BinaryFunctors.h ****   }
 325:./Eigen/src/Core/functors/BinaryFunctors.h **** };
 326:./Eigen/src/Core/functors/BinaryFunctors.h **** 
 327:./Eigen/src/Core/functors/BinaryFunctors.h **** template<typename Scalar, typename Exponent>
 328:./Eigen/src/Core/functors/BinaryFunctors.h **** struct functor_traits<scalar_pow_op<Scalar,Exponent> > {
 329:./Eigen/src/Core/functors/BinaryFunctors.h ****   enum {
 330:./Eigen/src/Core/functors/BinaryFunctors.h ****     Cost = 5 * NumTraits<Scalar>::MulCost,
 331:./Eigen/src/Core/functors/BinaryFunctors.h ****     PacketAccess = (!NumTraits<Scalar>::IsComplex && !NumTraits<Scalar>::IsInteger &&
 332:./Eigen/src/Core/functors/BinaryFunctors.h ****                     packet_traits<Scalar>::HasExp && packet_traits<Scalar>::HasLog &&
 333:./Eigen/src/Core/functors/BinaryFunctors.h ****                     packet_traits<Scalar>::HasRound && packet_traits<Scalar>::HasCmp &&
 334:./Eigen/src/Core/functors/BinaryFunctors.h ****                     // Temporarly disable packet access for half/bfloat16 until
 335:./Eigen/src/Core/functors/BinaryFunctors.h ****                     // accuracy is improved.
 336:./Eigen/src/Core/functors/BinaryFunctors.h ****                     !is_same<Scalar, half>::value && !is_same<Scalar, bfloat16>::value
 337:./Eigen/src/Core/functors/BinaryFunctors.h ****                     )
 338:./Eigen/src/Core/functors/BinaryFunctors.h ****   };
 339:./Eigen/src/Core/functors/BinaryFunctors.h **** };
 340:./Eigen/src/Core/functors/BinaryFunctors.h **** 
 341:./Eigen/src/Core/functors/BinaryFunctors.h **** //---------- non associative binary functors ----------
 342:./Eigen/src/Core/functors/BinaryFunctors.h **** 
 343:./Eigen/src/Core/functors/BinaryFunctors.h **** /** \internal
 344:./Eigen/src/Core/functors/BinaryFunctors.h ****   * \brief Template functor to compute the difference of two scalars
 345:./Eigen/src/Core/functors/BinaryFunctors.h ****   *
ARM GAS  C:\Users\purdu\AppData\Local\Temp\ccYBYMxG.s 			page 42


 346:./Eigen/src/Core/functors/BinaryFunctors.h ****   * \sa class CwiseBinaryOp, MatrixBase::operator-
 347:./Eigen/src/Core/functors/BinaryFunctors.h ****   */
 348:./Eigen/src/Core/functors/BinaryFunctors.h **** template<typename LhsScalar,typename RhsScalar>
 349:./Eigen/src/Core/functors/BinaryFunctors.h **** struct scalar_difference_op : binary_op_base<LhsScalar,RhsScalar>
 350:./Eigen/src/Core/functors/BinaryFunctors.h **** {
 351:./Eigen/src/Core/functors/BinaryFunctors.h ****   typedef typename ScalarBinaryOpTraits<LhsScalar,RhsScalar,scalar_difference_op>::ReturnType resul
 352:./Eigen/src/Core/functors/BinaryFunctors.h **** #ifndef EIGEN_SCALAR_BINARY_OP_PLUGIN
 353:./Eigen/src/Core/functors/BinaryFunctors.h ****   EIGEN_EMPTY_STRUCT_CTOR(scalar_difference_op)
 287              		.loc 9 353 3 is_stmt 1 view .LVU51
 288              		.loc 9 353 3 is_stmt 0 view .LVU52
 289              	.LBE27469:
 290              	.LBE27468:
 291              	.LBE27467:
 292              	.LBB27470:
 293              	.LBI27470:
  74:./Eigen/src/Core/functors/BinaryFunctors.h **** #else
 294              		.loc 9 74 3 is_stmt 1 view .LVU53
  74:./Eigen/src/Core/functors/BinaryFunctors.h **** #else
 295              		.loc 9 74 3 is_stmt 0 view .LVU54
 296              	.LBE27470:
 297              	.LBE27460:
 298              		.loc 3 50 1 view .LVU55
 299 0044 2846     		mov	r0, r5
 300 0046 07B0     		add	sp, sp, #28
 301              	.LCFI2:
 302              		.cfi_def_cfa_offset 12
 303              		@ sp needed
 304 0048 30BD     		pop	{r4, r5, pc}
 305              		.loc 3 50 1 view .LVU56
 306              		.cfi_endproc
 307              	.LFE8123:
 308              		.cantunwind
 309              		.fnend
 311              		.section	.text._ZN5Eigen13CwiseBinaryOpINS_8internal20scalar_difference_opIddEEKNS0_INS1_13scalar_
 312              		.align	1
 313              		.weak	_ZN5Eigen13CwiseBinaryOpINS_8internal20scalar_difference_opIddEEKNS0_INS1_13scalar_sum_opIdd
 314              		.syntax unified
 315              		.thumb
 316              		.thumb_func
 318              	_ZN5Eigen13CwiseBinaryOpINS_8internal20scalar_difference_opIddEEKNS0_INS1_13scalar_sum_opIddEEKNS_5
 319              		.fnstart
 320              	.LVL17:
 321              	.LFB8457:
 110:./Eigen/src/Core/CwiseBinaryOp.h ****       : m_lhs(aLhs), m_rhs(aRhs), m_functor(func)
 322              		.loc 10 110 5 is_stmt 1 view -0
 323              		.cfi_startproc
 324              		@ args = 0, pretend = 0, frame = 0
 325              		@ frame_needed = 0, uses_anonymous_args = 0
 110:./Eigen/src/Core/CwiseBinaryOp.h ****       : m_lhs(aLhs), m_rhs(aRhs), m_functor(func)
 326              		.loc 10 110 5 is_stmt 0 view .LVU58
 327 0000 70B5     		push	{r4, r5, r6, lr}
 328              	.LCFI3:
 329              		.cfi_def_cfa_offset 16
 330              		.cfi_offset 4, -16
 331              		.cfi_offset 5, -12
 332              		.cfi_offset 6, -8
 333              		.cfi_offset 14, -4
ARM GAS  C:\Users\purdu\AppData\Local\Temp\ccYBYMxG.s 			page 43


 334 0002 0646     		mov	r6, r0
 335 0004 8C46     		mov	ip, r1
 336 0006 9646     		mov	lr, r2
 337              	.LVL18:
 338              	.LBB27471:
 339              	.LBB27472:
 340              	.LBI27472:
 341              		.loc 10 148 7 is_stmt 1 view .LVU59
 342              	.LBB27473:
 343              	.LBI27473:
 344              		.loc 6 485 5 view .LVU60
 345              	.LBB27474:
 346              	.LBI27474:
 347              		.loc 7 681 23 view .LVU61
 348              		.loc 7 681 23 is_stmt 0 view .LVU62
 349              	.LBE27474:
 350              	.LBE27473:
 351              	.LBE27472:
 352              	.LBB27475:
 353              	.LBI27475:
  77:./Eigen/src/Core/CwiseBinaryOp.h ****   public CwiseBinaryOpImpl<
 354              		.loc 10 77 7 is_stmt 1 view .LVU63
 355              	.LBB27476:
 356 0008 041D     		adds	r4, r0, #4
 357              	.LVL19:
  77:./Eigen/src/Core/CwiseBinaryOp.h ****   public CwiseBinaryOpImpl<
 358              		.loc 10 77 7 is_stmt 0 view .LVU64
 359 000a 0D46     		mov	r5, r1
 360 000c 0FCD     		ldmia	r5!, {r0, r1, r2, r3}
 361              	.LVL20:
  77:./Eigen/src/Core/CwiseBinaryOp.h ****   public CwiseBinaryOpImpl<
 362              		.loc 10 77 7 view .LVU65
 363 000e 0FC4     		stmia	r4!, {r0, r1, r2, r3}
 364              	.LVL21:
  77:./Eigen/src/Core/CwiseBinaryOp.h ****   public CwiseBinaryOpImpl<
 365              		.loc 10 77 7 view .LVU66
 366 0010 95E80300 		ldm	r5, {r0, r1}
 367 0014 84E80300 		stm	r4, {r0, r1}
 368 0018 06F11C04 		add	r4, r6, #28
 369              	.LVL22:
  77:./Eigen/src/Core/CwiseBinaryOp.h ****   public CwiseBinaryOpImpl<
 370              		.loc 10 77 7 view .LVU67
 371 001c 0CF1180C 		add	ip, ip, #24
 372              	.LVL23:
  77:./Eigen/src/Core/CwiseBinaryOp.h ****   public CwiseBinaryOpImpl<
 373              		.loc 10 77 7 view .LVU68
 374 0020 BCE80F00 		ldmia	ip!, {r0, r1, r2, r3}
 375              	.LVL24:
  77:./Eigen/src/Core/CwiseBinaryOp.h ****   public CwiseBinaryOpImpl<
 376              		.loc 10 77 7 view .LVU69
 377 0024 0FC4     		stmia	r4!, {r0, r1, r2, r3}
 378 0026 9CE80700 		ldm	ip, {r0, r1, r2}
 379 002a 84E80700 		stm	r4, {r0, r1, r2}
 380              	.LVL25:
 381              	.LBB27477:
 382              	.LBI27477:
  36:./Eigen/src/Core/functors/BinaryFunctors.h **** #else
ARM GAS  C:\Users\purdu\AppData\Local\Temp\ccYBYMxG.s 			page 44


 383              		.loc 9 36 3 is_stmt 1 view .LVU70
  36:./Eigen/src/Core/functors/BinaryFunctors.h **** #else
 384              		.loc 9 36 3 is_stmt 0 view .LVU71
 385              	.LBE27477:
 386              	.LBE27476:
 387              	.LBE27475:
 111:./Eigen/src/Core/CwiseBinaryOp.h ****     {
 388              		.loc 10 111 22 view .LVU72
 389 002e 06F13C04 		add	r4, r6, #60
 390 0032 F446     		mov	ip, lr
 391              	.LVL26:
 111:./Eigen/src/Core/CwiseBinaryOp.h ****     {
 392              		.loc 10 111 22 view .LVU73
 393 0034 BCE80F00 		ldmia	ip!, {r0, r1, r2, r3}
 394 0038 0FC4     		stmia	r4!, {r0, r1, r2, r3}
 395 003a 9CE80700 		ldm	ip, {r0, r1, r2}
 396 003e 84E80700 		stm	r4, {r0, r1, r2}
 397              	.LVL27:
 398              	.LBB27478:
 399              	.LBI27478:
 400              		.loc 9 353 3 is_stmt 1 view .LVU74
 401              		.loc 9 353 3 is_stmt 0 view .LVU75
 402              	.LBE27478:
 403              	.LBE27471:
 117:./Eigen/src/Core/CwiseBinaryOp.h **** 
 404              		.loc 10 117 5 view .LVU76
 405 0042 3046     		mov	r0, r6
 406 0044 70BD     		pop	{r4, r5, r6, pc}
 117:./Eigen/src/Core/CwiseBinaryOp.h **** 
 407              		.loc 10 117 5 view .LVU77
 408              		.cfi_endproc
 409              	.LFE8457:
 410              		.cantunwind
 411              		.fnend
 413              		.weak	_ZN5Eigen13CwiseBinaryOpINS_8internal20scalar_difference_opIddEEKNS0_INS1_13scalar_sum_opIdd
 414              		.thumb_set _ZN5Eigen13CwiseBinaryOpINS_8internal20scalar_difference_opIddEEKNS0_INS1_13scalar_sum_
 415              		.global	__aeabi_dsub
 416              		.global	__aeabi_dmul
 417              		.section	.text._ZN5Eigen8internal31generic_dense_assignment_kernelINS0_9evaluatorINS_6MatrixIdLi4E
 418              		.align	1
 419              		.weak	_ZN5Eigen8internal31generic_dense_assignment_kernelINS0_9evaluatorINS_6MatrixIdLi4ELi9ELi0EL
 420              		.syntax unified
 421              		.thumb
 422              		.thumb_func
 424              	_ZN5Eigen8internal31generic_dense_assignment_kernelINS0_9evaluatorINS_6MatrixIdLi4ELi9ELi0ELi4ELi9E
 425              		.fnstart
 426              	.LVL28:
 427              	.LFB9890:
 428              		.file 11 "./Eigen/src/Core/AssignEvaluator.h"
   1:./Eigen/src/Core/AssignEvaluator.h **** // This file is part of Eigen, a lightweight C++ template library
   2:./Eigen/src/Core/AssignEvaluator.h **** // for linear algebra.
   3:./Eigen/src/Core/AssignEvaluator.h **** //
   4:./Eigen/src/Core/AssignEvaluator.h **** // Copyright (C) 2011 Benoit Jacob <jacob.benoit.1@gmail.com>
   5:./Eigen/src/Core/AssignEvaluator.h **** // Copyright (C) 2011-2014 Gael Guennebaud <gael.guennebaud@inria.fr>
   6:./Eigen/src/Core/AssignEvaluator.h **** // Copyright (C) 2011-2012 Jitse Niesen <jitse@maths.leeds.ac.uk>
   7:./Eigen/src/Core/AssignEvaluator.h **** //
   8:./Eigen/src/Core/AssignEvaluator.h **** // This Source Code Form is subject to the terms of the Mozilla
ARM GAS  C:\Users\purdu\AppData\Local\Temp\ccYBYMxG.s 			page 45


   9:./Eigen/src/Core/AssignEvaluator.h **** // Public License v. 2.0. If a copy of the MPL was not distributed
  10:./Eigen/src/Core/AssignEvaluator.h **** // with this file, You can obtain one at http://mozilla.org/MPL/2.0/.
  11:./Eigen/src/Core/AssignEvaluator.h **** 
  12:./Eigen/src/Core/AssignEvaluator.h **** #ifndef EIGEN_ASSIGN_EVALUATOR_H
  13:./Eigen/src/Core/AssignEvaluator.h **** #define EIGEN_ASSIGN_EVALUATOR_H
  14:./Eigen/src/Core/AssignEvaluator.h **** 
  15:./Eigen/src/Core/AssignEvaluator.h **** namespace Eigen {
  16:./Eigen/src/Core/AssignEvaluator.h **** 
  17:./Eigen/src/Core/AssignEvaluator.h **** // This implementation is based on Assign.h
  18:./Eigen/src/Core/AssignEvaluator.h **** 
  19:./Eigen/src/Core/AssignEvaluator.h **** namespace internal {
  20:./Eigen/src/Core/AssignEvaluator.h **** 
  21:./Eigen/src/Core/AssignEvaluator.h **** /***************************************************************************
  22:./Eigen/src/Core/AssignEvaluator.h **** * Part 1 : the logic deciding a strategy for traversal and unrolling       *
  23:./Eigen/src/Core/AssignEvaluator.h **** ***************************************************************************/
  24:./Eigen/src/Core/AssignEvaluator.h **** 
  25:./Eigen/src/Core/AssignEvaluator.h **** // copy_using_evaluator_traits is based on assign_traits
  26:./Eigen/src/Core/AssignEvaluator.h **** 
  27:./Eigen/src/Core/AssignEvaluator.h **** template <typename DstEvaluator, typename SrcEvaluator, typename AssignFunc, int MaxPacketSize = -1
  28:./Eigen/src/Core/AssignEvaluator.h **** struct copy_using_evaluator_traits
  29:./Eigen/src/Core/AssignEvaluator.h **** {
  30:./Eigen/src/Core/AssignEvaluator.h ****   typedef typename DstEvaluator::XprType Dst;
  31:./Eigen/src/Core/AssignEvaluator.h ****   typedef typename Dst::Scalar DstScalar;
  32:./Eigen/src/Core/AssignEvaluator.h **** 
  33:./Eigen/src/Core/AssignEvaluator.h ****   enum {
  34:./Eigen/src/Core/AssignEvaluator.h ****     DstFlags = DstEvaluator::Flags,
  35:./Eigen/src/Core/AssignEvaluator.h ****     SrcFlags = SrcEvaluator::Flags
  36:./Eigen/src/Core/AssignEvaluator.h ****   };
  37:./Eigen/src/Core/AssignEvaluator.h **** 
  38:./Eigen/src/Core/AssignEvaluator.h **** public:
  39:./Eigen/src/Core/AssignEvaluator.h ****   enum {
  40:./Eigen/src/Core/AssignEvaluator.h ****     DstAlignment = DstEvaluator::Alignment,
  41:./Eigen/src/Core/AssignEvaluator.h ****     SrcAlignment = SrcEvaluator::Alignment,
  42:./Eigen/src/Core/AssignEvaluator.h ****     DstHasDirectAccess = (DstFlags & DirectAccessBit) == DirectAccessBit,
  43:./Eigen/src/Core/AssignEvaluator.h ****     JointAlignment = EIGEN_PLAIN_ENUM_MIN(DstAlignment,SrcAlignment)
  44:./Eigen/src/Core/AssignEvaluator.h ****   };
  45:./Eigen/src/Core/AssignEvaluator.h **** 
  46:./Eigen/src/Core/AssignEvaluator.h **** private:
  47:./Eigen/src/Core/AssignEvaluator.h ****   enum {
  48:./Eigen/src/Core/AssignEvaluator.h ****     InnerSize = int(Dst::IsVectorAtCompileTime) ? int(Dst::SizeAtCompileTime)
  49:./Eigen/src/Core/AssignEvaluator.h ****               : int(DstFlags)&RowMajorBit ? int(Dst::ColsAtCompileTime)
  50:./Eigen/src/Core/AssignEvaluator.h ****               : int(Dst::RowsAtCompileTime),
  51:./Eigen/src/Core/AssignEvaluator.h ****     InnerMaxSize = int(Dst::IsVectorAtCompileTime) ? int(Dst::MaxSizeAtCompileTime)
  52:./Eigen/src/Core/AssignEvaluator.h ****               : int(DstFlags)&RowMajorBit ? int(Dst::MaxColsAtCompileTime)
  53:./Eigen/src/Core/AssignEvaluator.h ****               : int(Dst::MaxRowsAtCompileTime),
  54:./Eigen/src/Core/AssignEvaluator.h ****     RestrictedInnerSize = EIGEN_SIZE_MIN_PREFER_FIXED(InnerSize,MaxPacketSize),
  55:./Eigen/src/Core/AssignEvaluator.h ****     RestrictedLinearSize = EIGEN_SIZE_MIN_PREFER_FIXED(Dst::SizeAtCompileTime,MaxPacketSize),
  56:./Eigen/src/Core/AssignEvaluator.h ****     OuterStride = int(outer_stride_at_compile_time<Dst>::ret),
  57:./Eigen/src/Core/AssignEvaluator.h ****     MaxSizeAtCompileTime = Dst::SizeAtCompileTime
  58:./Eigen/src/Core/AssignEvaluator.h ****   };
  59:./Eigen/src/Core/AssignEvaluator.h **** 
  60:./Eigen/src/Core/AssignEvaluator.h ****   // TODO distinguish between linear traversal and inner-traversals
  61:./Eigen/src/Core/AssignEvaluator.h ****   typedef typename find_best_packet<DstScalar,RestrictedLinearSize>::type LinearPacketType;
  62:./Eigen/src/Core/AssignEvaluator.h ****   typedef typename find_best_packet<DstScalar,RestrictedInnerSize>::type InnerPacketType;
  63:./Eigen/src/Core/AssignEvaluator.h **** 
  64:./Eigen/src/Core/AssignEvaluator.h ****   enum {
  65:./Eigen/src/Core/AssignEvaluator.h ****     LinearPacketSize = unpacket_traits<LinearPacketType>::size,
ARM GAS  C:\Users\purdu\AppData\Local\Temp\ccYBYMxG.s 			page 46


  66:./Eigen/src/Core/AssignEvaluator.h ****     InnerPacketSize = unpacket_traits<InnerPacketType>::size
  67:./Eigen/src/Core/AssignEvaluator.h ****   };
  68:./Eigen/src/Core/AssignEvaluator.h **** 
  69:./Eigen/src/Core/AssignEvaluator.h **** public:
  70:./Eigen/src/Core/AssignEvaluator.h ****   enum {
  71:./Eigen/src/Core/AssignEvaluator.h ****     LinearRequiredAlignment = unpacket_traits<LinearPacketType>::alignment,
  72:./Eigen/src/Core/AssignEvaluator.h ****     InnerRequiredAlignment = unpacket_traits<InnerPacketType>::alignment
  73:./Eigen/src/Core/AssignEvaluator.h ****   };
  74:./Eigen/src/Core/AssignEvaluator.h **** 
  75:./Eigen/src/Core/AssignEvaluator.h **** private:
  76:./Eigen/src/Core/AssignEvaluator.h ****   enum {
  77:./Eigen/src/Core/AssignEvaluator.h ****     DstIsRowMajor = DstFlags&RowMajorBit,
  78:./Eigen/src/Core/AssignEvaluator.h ****     SrcIsRowMajor = SrcFlags&RowMajorBit,
  79:./Eigen/src/Core/AssignEvaluator.h ****     StorageOrdersAgree = (int(DstIsRowMajor) == int(SrcIsRowMajor)),
  80:./Eigen/src/Core/AssignEvaluator.h ****     MightVectorize = bool(StorageOrdersAgree)
  81:./Eigen/src/Core/AssignEvaluator.h ****                   && (int(DstFlags) & int(SrcFlags) & ActualPacketAccessBit)
  82:./Eigen/src/Core/AssignEvaluator.h ****                   && bool(functor_traits<AssignFunc>::PacketAccess),
  83:./Eigen/src/Core/AssignEvaluator.h ****     MayInnerVectorize  = MightVectorize
  84:./Eigen/src/Core/AssignEvaluator.h ****                        && int(InnerSize)!=Dynamic && int(InnerSize)%int(InnerPacketSize)==0
  85:./Eigen/src/Core/AssignEvaluator.h ****                        && int(OuterStride)!=Dynamic && int(OuterStride)%int(InnerPacketSize)==0
  86:./Eigen/src/Core/AssignEvaluator.h ****                        && (EIGEN_UNALIGNED_VECTORIZE  || int(JointAlignment)>=int(InnerRequiredAlig
  87:./Eigen/src/Core/AssignEvaluator.h ****     MayLinearize = bool(StorageOrdersAgree) && (int(DstFlags) & int(SrcFlags) & LinearAccessBit),
  88:./Eigen/src/Core/AssignEvaluator.h ****     MayLinearVectorize = bool(MightVectorize) && bool(MayLinearize) && bool(DstHasDirectAccess)
  89:./Eigen/src/Core/AssignEvaluator.h ****                        && (EIGEN_UNALIGNED_VECTORIZE || (int(DstAlignment)>=int(LinearRequiredAlign
  90:./Eigen/src/Core/AssignEvaluator.h ****       /* If the destination isn't aligned, we have to do runtime checks and we don't unroll,
  91:./Eigen/src/Core/AssignEvaluator.h ****          so it's only good for large enough sizes. */
  92:./Eigen/src/Core/AssignEvaluator.h ****     MaySliceVectorize  = bool(MightVectorize) && bool(DstHasDirectAccess)
  93:./Eigen/src/Core/AssignEvaluator.h ****                        && (int(InnerMaxSize)==Dynamic || int(InnerMaxSize)>=(EIGEN_UNALIGNED_VECTOR
  94:./Eigen/src/Core/AssignEvaluator.h ****       /* slice vectorization can be slow, so we only want it if the slices are big, which is
  95:./Eigen/src/Core/AssignEvaluator.h ****          indicated by InnerMaxSize rather than InnerSize, think of the case of a dynamic block
  96:./Eigen/src/Core/AssignEvaluator.h ****          in a fixed-size matrix
  97:./Eigen/src/Core/AssignEvaluator.h ****          However, with EIGEN_UNALIGNED_VECTORIZE and unrolling, slice vectorization is still worth 
  98:./Eigen/src/Core/AssignEvaluator.h ****   };
  99:./Eigen/src/Core/AssignEvaluator.h **** 
 100:./Eigen/src/Core/AssignEvaluator.h **** public:
 101:./Eigen/src/Core/AssignEvaluator.h ****   enum {
 102:./Eigen/src/Core/AssignEvaluator.h ****     Traversal =  int(Dst::SizeAtCompileTime) == 0 ? int(AllAtOnceTraversal) // If compile-size is z
 103:./Eigen/src/Core/AssignEvaluator.h ****               : (int(MayLinearVectorize) && (LinearPacketSize>InnerPacketSize)) ? int(LinearVectori
 104:./Eigen/src/Core/AssignEvaluator.h ****               : int(MayInnerVectorize)   ? int(InnerVectorizedTraversal)
 105:./Eigen/src/Core/AssignEvaluator.h ****               : int(MayLinearVectorize)  ? int(LinearVectorizedTraversal)
 106:./Eigen/src/Core/AssignEvaluator.h ****               : int(MaySliceVectorize)   ? int(SliceVectorizedTraversal)
 107:./Eigen/src/Core/AssignEvaluator.h ****               : int(MayLinearize)        ? int(LinearTraversal)
 108:./Eigen/src/Core/AssignEvaluator.h ****                                          : int(DefaultTraversal),
 109:./Eigen/src/Core/AssignEvaluator.h ****     Vectorized = int(Traversal) == InnerVectorizedTraversal
 110:./Eigen/src/Core/AssignEvaluator.h ****               || int(Traversal) == LinearVectorizedTraversal
 111:./Eigen/src/Core/AssignEvaluator.h ****               || int(Traversal) == SliceVectorizedTraversal
 112:./Eigen/src/Core/AssignEvaluator.h ****   };
 113:./Eigen/src/Core/AssignEvaluator.h **** 
 114:./Eigen/src/Core/AssignEvaluator.h ****   typedef typename conditional<int(Traversal)==LinearVectorizedTraversal, LinearPacketType, InnerPa
 115:./Eigen/src/Core/AssignEvaluator.h **** 
 116:./Eigen/src/Core/AssignEvaluator.h **** private:
 117:./Eigen/src/Core/AssignEvaluator.h ****   enum {
 118:./Eigen/src/Core/AssignEvaluator.h ****     ActualPacketSize    = int(Traversal)==LinearVectorizedTraversal ? LinearPacketSize
 119:./Eigen/src/Core/AssignEvaluator.h ****                         : Vectorized ? InnerPacketSize
 120:./Eigen/src/Core/AssignEvaluator.h ****                         : 1,
 121:./Eigen/src/Core/AssignEvaluator.h ****     UnrollingLimit      = EIGEN_UNROLLING_LIMIT * ActualPacketSize,
 122:./Eigen/src/Core/AssignEvaluator.h ****     MayUnrollCompletely = int(Dst::SizeAtCompileTime) != Dynamic
ARM GAS  C:\Users\purdu\AppData\Local\Temp\ccYBYMxG.s 			page 47


 123:./Eigen/src/Core/AssignEvaluator.h ****                        && int(Dst::SizeAtCompileTime) * (int(DstEvaluator::CoeffReadCost)+int(SrcEv
 124:./Eigen/src/Core/AssignEvaluator.h ****     MayUnrollInner      = int(InnerSize) != Dynamic
 125:./Eigen/src/Core/AssignEvaluator.h ****                        && int(InnerSize) * (int(DstEvaluator::CoeffReadCost)+int(SrcEvaluator::Coef
 126:./Eigen/src/Core/AssignEvaluator.h ****   };
 127:./Eigen/src/Core/AssignEvaluator.h **** 
 128:./Eigen/src/Core/AssignEvaluator.h **** public:
 129:./Eigen/src/Core/AssignEvaluator.h ****   enum {
 130:./Eigen/src/Core/AssignEvaluator.h ****     Unrolling = (int(Traversal) == int(InnerVectorizedTraversal) || int(Traversal) == int(DefaultTr
 131:./Eigen/src/Core/AssignEvaluator.h ****                 ? (
 132:./Eigen/src/Core/AssignEvaluator.h ****                     int(MayUnrollCompletely) ? int(CompleteUnrolling)
 133:./Eigen/src/Core/AssignEvaluator.h ****                   : int(MayUnrollInner)      ? int(InnerUnrolling)
 134:./Eigen/src/Core/AssignEvaluator.h ****                                              : int(NoUnrolling)
 135:./Eigen/src/Core/AssignEvaluator.h ****                   )
 136:./Eigen/src/Core/AssignEvaluator.h ****               : int(Traversal) == int(LinearVectorizedTraversal)
 137:./Eigen/src/Core/AssignEvaluator.h ****                 ? ( bool(MayUnrollCompletely) && ( EIGEN_UNALIGNED_VECTORIZE || (int(DstAlignment)>
 138:./Eigen/src/Core/AssignEvaluator.h ****                           ? int(CompleteUnrolling)
 139:./Eigen/src/Core/AssignEvaluator.h ****                           : int(NoUnrolling) )
 140:./Eigen/src/Core/AssignEvaluator.h ****               : int(Traversal) == int(LinearTraversal)
 141:./Eigen/src/Core/AssignEvaluator.h ****                 ? ( bool(MayUnrollCompletely) ? int(CompleteUnrolling)
 142:./Eigen/src/Core/AssignEvaluator.h ****                                               : int(NoUnrolling) )
 143:./Eigen/src/Core/AssignEvaluator.h **** #if EIGEN_UNALIGNED_VECTORIZE
 144:./Eigen/src/Core/AssignEvaluator.h ****               : int(Traversal) == int(SliceVectorizedTraversal)
 145:./Eigen/src/Core/AssignEvaluator.h ****                 ? ( bool(MayUnrollInner) ? int(InnerUnrolling)
 146:./Eigen/src/Core/AssignEvaluator.h ****                                          : int(NoUnrolling) )
 147:./Eigen/src/Core/AssignEvaluator.h **** #endif
 148:./Eigen/src/Core/AssignEvaluator.h ****               : int(NoUnrolling)
 149:./Eigen/src/Core/AssignEvaluator.h ****   };
 150:./Eigen/src/Core/AssignEvaluator.h **** 
 151:./Eigen/src/Core/AssignEvaluator.h **** #ifdef EIGEN_DEBUG_ASSIGN
 152:./Eigen/src/Core/AssignEvaluator.h ****   static void debug()
 153:./Eigen/src/Core/AssignEvaluator.h ****   {
 154:./Eigen/src/Core/AssignEvaluator.h ****     std::cerr << "DstXpr: " << typeid(typename DstEvaluator::XprType).name() << std::endl;
 155:./Eigen/src/Core/AssignEvaluator.h ****     std::cerr << "SrcXpr: " << typeid(typename SrcEvaluator::XprType).name() << std::endl;
 156:./Eigen/src/Core/AssignEvaluator.h ****     std::cerr.setf(std::ios::hex, std::ios::basefield);
 157:./Eigen/src/Core/AssignEvaluator.h ****     std::cerr << "DstFlags" << " = " << DstFlags << " (" << demangle_flags(DstFlags) << " )" << std
 158:./Eigen/src/Core/AssignEvaluator.h ****     std::cerr << "SrcFlags" << " = " << SrcFlags << " (" << demangle_flags(SrcFlags) << " )" << std
 159:./Eigen/src/Core/AssignEvaluator.h ****     std::cerr.unsetf(std::ios::hex);
 160:./Eigen/src/Core/AssignEvaluator.h ****     EIGEN_DEBUG_VAR(DstAlignment)
 161:./Eigen/src/Core/AssignEvaluator.h ****     EIGEN_DEBUG_VAR(SrcAlignment)
 162:./Eigen/src/Core/AssignEvaluator.h ****     EIGEN_DEBUG_VAR(LinearRequiredAlignment)
 163:./Eigen/src/Core/AssignEvaluator.h ****     EIGEN_DEBUG_VAR(InnerRequiredAlignment)
 164:./Eigen/src/Core/AssignEvaluator.h ****     EIGEN_DEBUG_VAR(JointAlignment)
 165:./Eigen/src/Core/AssignEvaluator.h ****     EIGEN_DEBUG_VAR(InnerSize)
 166:./Eigen/src/Core/AssignEvaluator.h ****     EIGEN_DEBUG_VAR(InnerMaxSize)
 167:./Eigen/src/Core/AssignEvaluator.h ****     EIGEN_DEBUG_VAR(LinearPacketSize)
 168:./Eigen/src/Core/AssignEvaluator.h ****     EIGEN_DEBUG_VAR(InnerPacketSize)
 169:./Eigen/src/Core/AssignEvaluator.h ****     EIGEN_DEBUG_VAR(ActualPacketSize)
 170:./Eigen/src/Core/AssignEvaluator.h ****     EIGEN_DEBUG_VAR(StorageOrdersAgree)
 171:./Eigen/src/Core/AssignEvaluator.h ****     EIGEN_DEBUG_VAR(MightVectorize)
 172:./Eigen/src/Core/AssignEvaluator.h ****     EIGEN_DEBUG_VAR(MayLinearize)
 173:./Eigen/src/Core/AssignEvaluator.h ****     EIGEN_DEBUG_VAR(MayInnerVectorize)
 174:./Eigen/src/Core/AssignEvaluator.h ****     EIGEN_DEBUG_VAR(MayLinearVectorize)
 175:./Eigen/src/Core/AssignEvaluator.h ****     EIGEN_DEBUG_VAR(MaySliceVectorize)
 176:./Eigen/src/Core/AssignEvaluator.h ****     std::cerr << "Traversal" << " = " << Traversal << " (" << demangle_traversal(Traversal) << ")" 
 177:./Eigen/src/Core/AssignEvaluator.h ****     EIGEN_DEBUG_VAR(SrcEvaluator::CoeffReadCost)
 178:./Eigen/src/Core/AssignEvaluator.h ****     EIGEN_DEBUG_VAR(DstEvaluator::CoeffReadCost)
 179:./Eigen/src/Core/AssignEvaluator.h ****     EIGEN_DEBUG_VAR(Dst::SizeAtCompileTime)
ARM GAS  C:\Users\purdu\AppData\Local\Temp\ccYBYMxG.s 			page 48


 180:./Eigen/src/Core/AssignEvaluator.h ****     EIGEN_DEBUG_VAR(UnrollingLimit)
 181:./Eigen/src/Core/AssignEvaluator.h ****     EIGEN_DEBUG_VAR(MayUnrollCompletely)
 182:./Eigen/src/Core/AssignEvaluator.h ****     EIGEN_DEBUG_VAR(MayUnrollInner)
 183:./Eigen/src/Core/AssignEvaluator.h ****     std::cerr << "Unrolling" << " = " << Unrolling << " (" << demangle_unrolling(Unrolling) << ")" 
 184:./Eigen/src/Core/AssignEvaluator.h ****     std::cerr << std::endl;
 185:./Eigen/src/Core/AssignEvaluator.h ****   }
 186:./Eigen/src/Core/AssignEvaluator.h **** #endif
 187:./Eigen/src/Core/AssignEvaluator.h **** };
 188:./Eigen/src/Core/AssignEvaluator.h **** 
 189:./Eigen/src/Core/AssignEvaluator.h **** /***************************************************************************
 190:./Eigen/src/Core/AssignEvaluator.h **** * Part 2 : meta-unrollers
 191:./Eigen/src/Core/AssignEvaluator.h **** ***************************************************************************/
 192:./Eigen/src/Core/AssignEvaluator.h **** 
 193:./Eigen/src/Core/AssignEvaluator.h **** /************************
 194:./Eigen/src/Core/AssignEvaluator.h **** *** Default traversal ***
 195:./Eigen/src/Core/AssignEvaluator.h **** ************************/
 196:./Eigen/src/Core/AssignEvaluator.h **** 
 197:./Eigen/src/Core/AssignEvaluator.h **** template<typename Kernel, int Index, int Stop>
 198:./Eigen/src/Core/AssignEvaluator.h **** struct copy_using_evaluator_DefaultTraversal_CompleteUnrolling
 199:./Eigen/src/Core/AssignEvaluator.h **** {
 200:./Eigen/src/Core/AssignEvaluator.h ****   // FIXME: this is not very clean, perhaps this information should be provided by the kernel?
 201:./Eigen/src/Core/AssignEvaluator.h ****   typedef typename Kernel::DstEvaluatorType DstEvaluatorType;
 202:./Eigen/src/Core/AssignEvaluator.h ****   typedef typename DstEvaluatorType::XprType DstXprType;
 203:./Eigen/src/Core/AssignEvaluator.h **** 
 204:./Eigen/src/Core/AssignEvaluator.h ****   enum {
 205:./Eigen/src/Core/AssignEvaluator.h ****     outer = Index / DstXprType::InnerSizeAtCompileTime,
 206:./Eigen/src/Core/AssignEvaluator.h ****     inner = Index % DstXprType::InnerSizeAtCompileTime
 207:./Eigen/src/Core/AssignEvaluator.h ****   };
 208:./Eigen/src/Core/AssignEvaluator.h **** 
 209:./Eigen/src/Core/AssignEvaluator.h ****   EIGEN_DEVICE_FUNC static EIGEN_STRONG_INLINE void run(Kernel &kernel)
 210:./Eigen/src/Core/AssignEvaluator.h ****   {
 211:./Eigen/src/Core/AssignEvaluator.h ****     kernel.assignCoeffByOuterInner(outer, inner);
 212:./Eigen/src/Core/AssignEvaluator.h ****     copy_using_evaluator_DefaultTraversal_CompleteUnrolling<Kernel, Index+1, Stop>::run(kernel);
 213:./Eigen/src/Core/AssignEvaluator.h ****   }
 214:./Eigen/src/Core/AssignEvaluator.h **** };
 215:./Eigen/src/Core/AssignEvaluator.h **** 
 216:./Eigen/src/Core/AssignEvaluator.h **** template<typename Kernel, int Stop>
 217:./Eigen/src/Core/AssignEvaluator.h **** struct copy_using_evaluator_DefaultTraversal_CompleteUnrolling<Kernel, Stop, Stop>
 218:./Eigen/src/Core/AssignEvaluator.h **** {
 219:./Eigen/src/Core/AssignEvaluator.h ****   EIGEN_DEVICE_FUNC static EIGEN_STRONG_INLINE void run(Kernel&) { }
 220:./Eigen/src/Core/AssignEvaluator.h **** };
 221:./Eigen/src/Core/AssignEvaluator.h **** 
 222:./Eigen/src/Core/AssignEvaluator.h **** template<typename Kernel, int Index_, int Stop>
 223:./Eigen/src/Core/AssignEvaluator.h **** struct copy_using_evaluator_DefaultTraversal_InnerUnrolling
 224:./Eigen/src/Core/AssignEvaluator.h **** {
 225:./Eigen/src/Core/AssignEvaluator.h ****   EIGEN_DEVICE_FUNC static EIGEN_STRONG_INLINE void run(Kernel &kernel, Index outer)
 226:./Eigen/src/Core/AssignEvaluator.h ****   {
 227:./Eigen/src/Core/AssignEvaluator.h ****     kernel.assignCoeffByOuterInner(outer, Index_);
 228:./Eigen/src/Core/AssignEvaluator.h ****     copy_using_evaluator_DefaultTraversal_InnerUnrolling<Kernel, Index_+1, Stop>::run(kernel, outer
 229:./Eigen/src/Core/AssignEvaluator.h ****   }
 230:./Eigen/src/Core/AssignEvaluator.h **** };
 231:./Eigen/src/Core/AssignEvaluator.h **** 
 232:./Eigen/src/Core/AssignEvaluator.h **** template<typename Kernel, int Stop>
 233:./Eigen/src/Core/AssignEvaluator.h **** struct copy_using_evaluator_DefaultTraversal_InnerUnrolling<Kernel, Stop, Stop>
 234:./Eigen/src/Core/AssignEvaluator.h **** {
 235:./Eigen/src/Core/AssignEvaluator.h ****   EIGEN_DEVICE_FUNC static EIGEN_STRONG_INLINE void run(Kernel&, Index) { }
 236:./Eigen/src/Core/AssignEvaluator.h **** };
ARM GAS  C:\Users\purdu\AppData\Local\Temp\ccYBYMxG.s 			page 49


 237:./Eigen/src/Core/AssignEvaluator.h **** 
 238:./Eigen/src/Core/AssignEvaluator.h **** /***********************
 239:./Eigen/src/Core/AssignEvaluator.h **** *** Linear traversal ***
 240:./Eigen/src/Core/AssignEvaluator.h **** ***********************/
 241:./Eigen/src/Core/AssignEvaluator.h **** 
 242:./Eigen/src/Core/AssignEvaluator.h **** template<typename Kernel, int Index, int Stop>
 243:./Eigen/src/Core/AssignEvaluator.h **** struct copy_using_evaluator_LinearTraversal_CompleteUnrolling
 244:./Eigen/src/Core/AssignEvaluator.h **** {
 245:./Eigen/src/Core/AssignEvaluator.h ****   EIGEN_DEVICE_FUNC static EIGEN_STRONG_INLINE void run(Kernel& kernel)
 246:./Eigen/src/Core/AssignEvaluator.h ****   {
 247:./Eigen/src/Core/AssignEvaluator.h ****     kernel.assignCoeff(Index);
 248:./Eigen/src/Core/AssignEvaluator.h ****     copy_using_evaluator_LinearTraversal_CompleteUnrolling<Kernel, Index+1, Stop>::run(kernel);
 249:./Eigen/src/Core/AssignEvaluator.h ****   }
 250:./Eigen/src/Core/AssignEvaluator.h **** };
 251:./Eigen/src/Core/AssignEvaluator.h **** 
 252:./Eigen/src/Core/AssignEvaluator.h **** template<typename Kernel, int Stop>
 253:./Eigen/src/Core/AssignEvaluator.h **** struct copy_using_evaluator_LinearTraversal_CompleteUnrolling<Kernel, Stop, Stop>
 254:./Eigen/src/Core/AssignEvaluator.h **** {
 255:./Eigen/src/Core/AssignEvaluator.h ****   EIGEN_DEVICE_FUNC static EIGEN_STRONG_INLINE void run(Kernel&) { }
 256:./Eigen/src/Core/AssignEvaluator.h **** };
 257:./Eigen/src/Core/AssignEvaluator.h **** 
 258:./Eigen/src/Core/AssignEvaluator.h **** /**************************
 259:./Eigen/src/Core/AssignEvaluator.h **** *** Inner vectorization ***
 260:./Eigen/src/Core/AssignEvaluator.h **** **************************/
 261:./Eigen/src/Core/AssignEvaluator.h **** 
 262:./Eigen/src/Core/AssignEvaluator.h **** template<typename Kernel, int Index, int Stop>
 263:./Eigen/src/Core/AssignEvaluator.h **** struct copy_using_evaluator_innervec_CompleteUnrolling
 264:./Eigen/src/Core/AssignEvaluator.h **** {
 265:./Eigen/src/Core/AssignEvaluator.h ****   // FIXME: this is not very clean, perhaps this information should be provided by the kernel?
 266:./Eigen/src/Core/AssignEvaluator.h ****   typedef typename Kernel::DstEvaluatorType DstEvaluatorType;
 267:./Eigen/src/Core/AssignEvaluator.h ****   typedef typename DstEvaluatorType::XprType DstXprType;
 268:./Eigen/src/Core/AssignEvaluator.h ****   typedef typename Kernel::PacketType PacketType;
 269:./Eigen/src/Core/AssignEvaluator.h **** 
 270:./Eigen/src/Core/AssignEvaluator.h ****   enum {
 271:./Eigen/src/Core/AssignEvaluator.h ****     outer = Index / DstXprType::InnerSizeAtCompileTime,
 272:./Eigen/src/Core/AssignEvaluator.h ****     inner = Index % DstXprType::InnerSizeAtCompileTime,
 273:./Eigen/src/Core/AssignEvaluator.h ****     SrcAlignment = Kernel::AssignmentTraits::SrcAlignment,
 274:./Eigen/src/Core/AssignEvaluator.h ****     DstAlignment = Kernel::AssignmentTraits::DstAlignment
 275:./Eigen/src/Core/AssignEvaluator.h ****   };
 276:./Eigen/src/Core/AssignEvaluator.h **** 
 277:./Eigen/src/Core/AssignEvaluator.h ****   EIGEN_DEVICE_FUNC static EIGEN_STRONG_INLINE void run(Kernel &kernel)
 278:./Eigen/src/Core/AssignEvaluator.h ****   {
 279:./Eigen/src/Core/AssignEvaluator.h ****     kernel.template assignPacketByOuterInner<DstAlignment, SrcAlignment, PacketType>(outer, inner);
 280:./Eigen/src/Core/AssignEvaluator.h ****     enum { NextIndex = Index + unpacket_traits<PacketType>::size };
 281:./Eigen/src/Core/AssignEvaluator.h ****     copy_using_evaluator_innervec_CompleteUnrolling<Kernel, NextIndex, Stop>::run(kernel);
 282:./Eigen/src/Core/AssignEvaluator.h ****   }
 283:./Eigen/src/Core/AssignEvaluator.h **** };
 284:./Eigen/src/Core/AssignEvaluator.h **** 
 285:./Eigen/src/Core/AssignEvaluator.h **** template<typename Kernel, int Stop>
 286:./Eigen/src/Core/AssignEvaluator.h **** struct copy_using_evaluator_innervec_CompleteUnrolling<Kernel, Stop, Stop>
 287:./Eigen/src/Core/AssignEvaluator.h **** {
 288:./Eigen/src/Core/AssignEvaluator.h ****   EIGEN_DEVICE_FUNC static EIGEN_STRONG_INLINE void run(Kernel&) { }
 289:./Eigen/src/Core/AssignEvaluator.h **** };
 290:./Eigen/src/Core/AssignEvaluator.h **** 
 291:./Eigen/src/Core/AssignEvaluator.h **** template<typename Kernel, int Index_, int Stop, int SrcAlignment, int DstAlignment>
 292:./Eigen/src/Core/AssignEvaluator.h **** struct copy_using_evaluator_innervec_InnerUnrolling
 293:./Eigen/src/Core/AssignEvaluator.h **** {
ARM GAS  C:\Users\purdu\AppData\Local\Temp\ccYBYMxG.s 			page 50


 294:./Eigen/src/Core/AssignEvaluator.h ****   typedef typename Kernel::PacketType PacketType;
 295:./Eigen/src/Core/AssignEvaluator.h ****   EIGEN_DEVICE_FUNC static EIGEN_STRONG_INLINE void run(Kernel &kernel, Index outer)
 296:./Eigen/src/Core/AssignEvaluator.h ****   {
 297:./Eigen/src/Core/AssignEvaluator.h ****     kernel.template assignPacketByOuterInner<DstAlignment, SrcAlignment, PacketType>(outer, Index_)
 298:./Eigen/src/Core/AssignEvaluator.h ****     enum { NextIndex = Index_ + unpacket_traits<PacketType>::size };
 299:./Eigen/src/Core/AssignEvaluator.h ****     copy_using_evaluator_innervec_InnerUnrolling<Kernel, NextIndex, Stop, SrcAlignment, DstAlignmen
 300:./Eigen/src/Core/AssignEvaluator.h ****   }
 301:./Eigen/src/Core/AssignEvaluator.h **** };
 302:./Eigen/src/Core/AssignEvaluator.h **** 
 303:./Eigen/src/Core/AssignEvaluator.h **** template<typename Kernel, int Stop, int SrcAlignment, int DstAlignment>
 304:./Eigen/src/Core/AssignEvaluator.h **** struct copy_using_evaluator_innervec_InnerUnrolling<Kernel, Stop, Stop, SrcAlignment, DstAlignment>
 305:./Eigen/src/Core/AssignEvaluator.h **** {
 306:./Eigen/src/Core/AssignEvaluator.h ****   EIGEN_DEVICE_FUNC static EIGEN_STRONG_INLINE void run(Kernel &, Index) { }
 307:./Eigen/src/Core/AssignEvaluator.h **** };
 308:./Eigen/src/Core/AssignEvaluator.h **** 
 309:./Eigen/src/Core/AssignEvaluator.h **** /***************************************************************************
 310:./Eigen/src/Core/AssignEvaluator.h **** * Part 3 : implementation of all cases
 311:./Eigen/src/Core/AssignEvaluator.h **** ***************************************************************************/
 312:./Eigen/src/Core/AssignEvaluator.h **** 
 313:./Eigen/src/Core/AssignEvaluator.h **** // dense_assignment_loop is based on assign_impl
 314:./Eigen/src/Core/AssignEvaluator.h **** 
 315:./Eigen/src/Core/AssignEvaluator.h **** template<typename Kernel,
 316:./Eigen/src/Core/AssignEvaluator.h ****          int Traversal = Kernel::AssignmentTraits::Traversal,
 317:./Eigen/src/Core/AssignEvaluator.h ****          int Unrolling = Kernel::AssignmentTraits::Unrolling>
 318:./Eigen/src/Core/AssignEvaluator.h **** struct dense_assignment_loop;
 319:./Eigen/src/Core/AssignEvaluator.h **** 
 320:./Eigen/src/Core/AssignEvaluator.h **** /************************
 321:./Eigen/src/Core/AssignEvaluator.h **** ***** Special Cases *****
 322:./Eigen/src/Core/AssignEvaluator.h **** ************************/
 323:./Eigen/src/Core/AssignEvaluator.h **** 
 324:./Eigen/src/Core/AssignEvaluator.h **** // Zero-sized assignment is a no-op.
 325:./Eigen/src/Core/AssignEvaluator.h **** template<typename Kernel, int Unrolling>
 326:./Eigen/src/Core/AssignEvaluator.h **** struct dense_assignment_loop<Kernel, AllAtOnceTraversal, Unrolling>
 327:./Eigen/src/Core/AssignEvaluator.h **** {
 328:./Eigen/src/Core/AssignEvaluator.h ****   EIGEN_DEVICE_FUNC static void EIGEN_STRONG_INLINE run(Kernel& /*kernel*/)
 329:./Eigen/src/Core/AssignEvaluator.h ****   {
 330:./Eigen/src/Core/AssignEvaluator.h ****     typedef typename Kernel::DstEvaluatorType::XprType DstXprType;
 331:./Eigen/src/Core/AssignEvaluator.h ****     EIGEN_STATIC_ASSERT(int(DstXprType::SizeAtCompileTime) == 0,
 332:./Eigen/src/Core/AssignEvaluator.h ****       EIGEN_INTERNAL_ERROR_PLEASE_FILE_A_BUG_REPORT)
 333:./Eigen/src/Core/AssignEvaluator.h ****   }
 334:./Eigen/src/Core/AssignEvaluator.h **** };
 335:./Eigen/src/Core/AssignEvaluator.h **** 
 336:./Eigen/src/Core/AssignEvaluator.h **** /************************
 337:./Eigen/src/Core/AssignEvaluator.h **** *** Default traversal ***
 338:./Eigen/src/Core/AssignEvaluator.h **** ************************/
 339:./Eigen/src/Core/AssignEvaluator.h **** 
 340:./Eigen/src/Core/AssignEvaluator.h **** template<typename Kernel>
 341:./Eigen/src/Core/AssignEvaluator.h **** struct dense_assignment_loop<Kernel, DefaultTraversal, NoUnrolling>
 342:./Eigen/src/Core/AssignEvaluator.h **** {
 343:./Eigen/src/Core/AssignEvaluator.h ****   EIGEN_DEVICE_FUNC static void EIGEN_STRONG_INLINE run(Kernel &kernel)
 344:./Eigen/src/Core/AssignEvaluator.h ****   {
 345:./Eigen/src/Core/AssignEvaluator.h ****     for(Index outer = 0; outer < kernel.outerSize(); ++outer) {
 346:./Eigen/src/Core/AssignEvaluator.h ****       for(Index inner = 0; inner < kernel.innerSize(); ++inner) {
 347:./Eigen/src/Core/AssignEvaluator.h ****         kernel.assignCoeffByOuterInner(outer, inner);
 348:./Eigen/src/Core/AssignEvaluator.h ****       }
 349:./Eigen/src/Core/AssignEvaluator.h ****     }
 350:./Eigen/src/Core/AssignEvaluator.h ****   }
ARM GAS  C:\Users\purdu\AppData\Local\Temp\ccYBYMxG.s 			page 51


 351:./Eigen/src/Core/AssignEvaluator.h **** };
 352:./Eigen/src/Core/AssignEvaluator.h **** 
 353:./Eigen/src/Core/AssignEvaluator.h **** template<typename Kernel>
 354:./Eigen/src/Core/AssignEvaluator.h **** struct dense_assignment_loop<Kernel, DefaultTraversal, CompleteUnrolling>
 355:./Eigen/src/Core/AssignEvaluator.h **** {
 356:./Eigen/src/Core/AssignEvaluator.h ****   EIGEN_DEVICE_FUNC static EIGEN_STRONG_INLINE void run(Kernel &kernel)
 357:./Eigen/src/Core/AssignEvaluator.h ****   {
 358:./Eigen/src/Core/AssignEvaluator.h ****     typedef typename Kernel::DstEvaluatorType::XprType DstXprType;
 359:./Eigen/src/Core/AssignEvaluator.h ****     copy_using_evaluator_DefaultTraversal_CompleteUnrolling<Kernel, 0, DstXprType::SizeAtCompileTim
 360:./Eigen/src/Core/AssignEvaluator.h ****   }
 361:./Eigen/src/Core/AssignEvaluator.h **** };
 362:./Eigen/src/Core/AssignEvaluator.h **** 
 363:./Eigen/src/Core/AssignEvaluator.h **** template<typename Kernel>
 364:./Eigen/src/Core/AssignEvaluator.h **** struct dense_assignment_loop<Kernel, DefaultTraversal, InnerUnrolling>
 365:./Eigen/src/Core/AssignEvaluator.h **** {
 366:./Eigen/src/Core/AssignEvaluator.h ****   EIGEN_DEVICE_FUNC static EIGEN_STRONG_INLINE void run(Kernel &kernel)
 367:./Eigen/src/Core/AssignEvaluator.h ****   {
 368:./Eigen/src/Core/AssignEvaluator.h ****     typedef typename Kernel::DstEvaluatorType::XprType DstXprType;
 369:./Eigen/src/Core/AssignEvaluator.h **** 
 370:./Eigen/src/Core/AssignEvaluator.h ****     const Index outerSize = kernel.outerSize();
 371:./Eigen/src/Core/AssignEvaluator.h ****     for(Index outer = 0; outer < outerSize; ++outer)
 372:./Eigen/src/Core/AssignEvaluator.h ****       copy_using_evaluator_DefaultTraversal_InnerUnrolling<Kernel, 0, DstXprType::InnerSizeAtCompil
 373:./Eigen/src/Core/AssignEvaluator.h ****   }
 374:./Eigen/src/Core/AssignEvaluator.h **** };
 375:./Eigen/src/Core/AssignEvaluator.h **** 
 376:./Eigen/src/Core/AssignEvaluator.h **** /***************************
 377:./Eigen/src/Core/AssignEvaluator.h **** *** Linear vectorization ***
 378:./Eigen/src/Core/AssignEvaluator.h **** ***************************/
 379:./Eigen/src/Core/AssignEvaluator.h **** 
 380:./Eigen/src/Core/AssignEvaluator.h **** 
 381:./Eigen/src/Core/AssignEvaluator.h **** // The goal of unaligned_dense_assignment_loop is simply to factorize the handling
 382:./Eigen/src/Core/AssignEvaluator.h **** // of the non vectorizable beginning and ending parts
 383:./Eigen/src/Core/AssignEvaluator.h **** 
 384:./Eigen/src/Core/AssignEvaluator.h **** template <bool IsAligned = false>
 385:./Eigen/src/Core/AssignEvaluator.h **** struct unaligned_dense_assignment_loop
 386:./Eigen/src/Core/AssignEvaluator.h **** {
 387:./Eigen/src/Core/AssignEvaluator.h ****   // if IsAligned = true, then do nothing
 388:./Eigen/src/Core/AssignEvaluator.h ****   template <typename Kernel>
 389:./Eigen/src/Core/AssignEvaluator.h ****   EIGEN_DEVICE_FUNC static EIGEN_STRONG_INLINE void run(Kernel&, Index, Index) {}
 390:./Eigen/src/Core/AssignEvaluator.h **** };
 391:./Eigen/src/Core/AssignEvaluator.h **** 
 392:./Eigen/src/Core/AssignEvaluator.h **** template <>
 393:./Eigen/src/Core/AssignEvaluator.h **** struct unaligned_dense_assignment_loop<false>
 394:./Eigen/src/Core/AssignEvaluator.h **** {
 395:./Eigen/src/Core/AssignEvaluator.h ****   // MSVC must not inline this functions. If it does, it fails to optimize the
 396:./Eigen/src/Core/AssignEvaluator.h ****   // packet access path.
 397:./Eigen/src/Core/AssignEvaluator.h ****   // FIXME check which version exhibits this issue
 398:./Eigen/src/Core/AssignEvaluator.h **** #if EIGEN_COMP_MSVC
 399:./Eigen/src/Core/AssignEvaluator.h ****   template <typename Kernel>
 400:./Eigen/src/Core/AssignEvaluator.h ****   static EIGEN_DONT_INLINE void run(Kernel &kernel,
 401:./Eigen/src/Core/AssignEvaluator.h ****                                     Index start,
 402:./Eigen/src/Core/AssignEvaluator.h ****                                     Index end)
 403:./Eigen/src/Core/AssignEvaluator.h **** #else
 404:./Eigen/src/Core/AssignEvaluator.h ****   template <typename Kernel>
 405:./Eigen/src/Core/AssignEvaluator.h ****   EIGEN_DEVICE_FUNC static EIGEN_STRONG_INLINE void run(Kernel &kernel,
 406:./Eigen/src/Core/AssignEvaluator.h ****                                       Index start,
 407:./Eigen/src/Core/AssignEvaluator.h ****                                       Index end)
ARM GAS  C:\Users\purdu\AppData\Local\Temp\ccYBYMxG.s 			page 52


 408:./Eigen/src/Core/AssignEvaluator.h **** #endif
 409:./Eigen/src/Core/AssignEvaluator.h ****   {
 410:./Eigen/src/Core/AssignEvaluator.h ****     for (Index index = start; index < end; ++index)
 411:./Eigen/src/Core/AssignEvaluator.h ****       kernel.assignCoeff(index);
 412:./Eigen/src/Core/AssignEvaluator.h ****   }
 413:./Eigen/src/Core/AssignEvaluator.h **** };
 414:./Eigen/src/Core/AssignEvaluator.h **** 
 415:./Eigen/src/Core/AssignEvaluator.h **** template<typename Kernel>
 416:./Eigen/src/Core/AssignEvaluator.h **** struct dense_assignment_loop<Kernel, LinearVectorizedTraversal, NoUnrolling>
 417:./Eigen/src/Core/AssignEvaluator.h **** {
 418:./Eigen/src/Core/AssignEvaluator.h ****   EIGEN_DEVICE_FUNC static EIGEN_STRONG_INLINE void run(Kernel &kernel)
 419:./Eigen/src/Core/AssignEvaluator.h ****   {
 420:./Eigen/src/Core/AssignEvaluator.h ****     const Index size = kernel.size();
 421:./Eigen/src/Core/AssignEvaluator.h ****     typedef typename Kernel::Scalar Scalar;
 422:./Eigen/src/Core/AssignEvaluator.h ****     typedef typename Kernel::PacketType PacketType;
 423:./Eigen/src/Core/AssignEvaluator.h ****     enum {
 424:./Eigen/src/Core/AssignEvaluator.h ****       requestedAlignment = Kernel::AssignmentTraits::LinearRequiredAlignment,
 425:./Eigen/src/Core/AssignEvaluator.h ****       packetSize = unpacket_traits<PacketType>::size,
 426:./Eigen/src/Core/AssignEvaluator.h ****       dstIsAligned = int(Kernel::AssignmentTraits::DstAlignment)>=int(requestedAlignment),
 427:./Eigen/src/Core/AssignEvaluator.h ****       dstAlignment = packet_traits<Scalar>::AlignedOnScalar ? int(requestedAlignment)
 428:./Eigen/src/Core/AssignEvaluator.h ****                                                             : int(Kernel::AssignmentTraits::DstAlig
 429:./Eigen/src/Core/AssignEvaluator.h ****       srcAlignment = Kernel::AssignmentTraits::JointAlignment
 430:./Eigen/src/Core/AssignEvaluator.h ****     };
 431:./Eigen/src/Core/AssignEvaluator.h ****     const Index alignedStart = dstIsAligned ? 0 : internal::first_aligned<requestedAlignment>(kerne
 432:./Eigen/src/Core/AssignEvaluator.h ****     const Index alignedEnd = alignedStart + ((size-alignedStart)/packetSize)*packetSize;
 433:./Eigen/src/Core/AssignEvaluator.h **** 
 434:./Eigen/src/Core/AssignEvaluator.h ****     unaligned_dense_assignment_loop<dstIsAligned!=0>::run(kernel, 0, alignedStart);
 435:./Eigen/src/Core/AssignEvaluator.h **** 
 436:./Eigen/src/Core/AssignEvaluator.h ****     for(Index index = alignedStart; index < alignedEnd; index += packetSize)
 437:./Eigen/src/Core/AssignEvaluator.h ****       kernel.template assignPacket<dstAlignment, srcAlignment, PacketType>(index);
 438:./Eigen/src/Core/AssignEvaluator.h **** 
 439:./Eigen/src/Core/AssignEvaluator.h ****     unaligned_dense_assignment_loop<>::run(kernel, alignedEnd, size);
 440:./Eigen/src/Core/AssignEvaluator.h ****   }
 441:./Eigen/src/Core/AssignEvaluator.h **** };
 442:./Eigen/src/Core/AssignEvaluator.h **** 
 443:./Eigen/src/Core/AssignEvaluator.h **** template<typename Kernel>
 444:./Eigen/src/Core/AssignEvaluator.h **** struct dense_assignment_loop<Kernel, LinearVectorizedTraversal, CompleteUnrolling>
 445:./Eigen/src/Core/AssignEvaluator.h **** {
 446:./Eigen/src/Core/AssignEvaluator.h ****   EIGEN_DEVICE_FUNC static EIGEN_STRONG_INLINE void run(Kernel &kernel)
 447:./Eigen/src/Core/AssignEvaluator.h ****   {
 448:./Eigen/src/Core/AssignEvaluator.h ****     typedef typename Kernel::DstEvaluatorType::XprType DstXprType;
 449:./Eigen/src/Core/AssignEvaluator.h ****     typedef typename Kernel::PacketType PacketType;
 450:./Eigen/src/Core/AssignEvaluator.h **** 
 451:./Eigen/src/Core/AssignEvaluator.h ****     enum { size = DstXprType::SizeAtCompileTime,
 452:./Eigen/src/Core/AssignEvaluator.h ****            packetSize =unpacket_traits<PacketType>::size,
 453:./Eigen/src/Core/AssignEvaluator.h ****            alignedSize = (int(size)/packetSize)*packetSize };
 454:./Eigen/src/Core/AssignEvaluator.h **** 
 455:./Eigen/src/Core/AssignEvaluator.h ****     copy_using_evaluator_innervec_CompleteUnrolling<Kernel, 0, alignedSize>::run(kernel);
 456:./Eigen/src/Core/AssignEvaluator.h ****     copy_using_evaluator_DefaultTraversal_CompleteUnrolling<Kernel, alignedSize, size>::run(kernel)
 457:./Eigen/src/Core/AssignEvaluator.h ****   }
 458:./Eigen/src/Core/AssignEvaluator.h **** };
 459:./Eigen/src/Core/AssignEvaluator.h **** 
 460:./Eigen/src/Core/AssignEvaluator.h **** /**************************
 461:./Eigen/src/Core/AssignEvaluator.h **** *** Inner vectorization ***
 462:./Eigen/src/Core/AssignEvaluator.h **** **************************/
 463:./Eigen/src/Core/AssignEvaluator.h **** 
 464:./Eigen/src/Core/AssignEvaluator.h **** template<typename Kernel>
ARM GAS  C:\Users\purdu\AppData\Local\Temp\ccYBYMxG.s 			page 53


 465:./Eigen/src/Core/AssignEvaluator.h **** struct dense_assignment_loop<Kernel, InnerVectorizedTraversal, NoUnrolling>
 466:./Eigen/src/Core/AssignEvaluator.h **** {
 467:./Eigen/src/Core/AssignEvaluator.h ****   typedef typename Kernel::PacketType PacketType;
 468:./Eigen/src/Core/AssignEvaluator.h ****   enum {
 469:./Eigen/src/Core/AssignEvaluator.h ****     SrcAlignment = Kernel::AssignmentTraits::SrcAlignment,
 470:./Eigen/src/Core/AssignEvaluator.h ****     DstAlignment = Kernel::AssignmentTraits::DstAlignment
 471:./Eigen/src/Core/AssignEvaluator.h ****   };
 472:./Eigen/src/Core/AssignEvaluator.h ****   EIGEN_DEVICE_FUNC static EIGEN_STRONG_INLINE void run(Kernel &kernel)
 473:./Eigen/src/Core/AssignEvaluator.h ****   {
 474:./Eigen/src/Core/AssignEvaluator.h ****     const Index innerSize = kernel.innerSize();
 475:./Eigen/src/Core/AssignEvaluator.h ****     const Index outerSize = kernel.outerSize();
 476:./Eigen/src/Core/AssignEvaluator.h ****     const Index packetSize = unpacket_traits<PacketType>::size;
 477:./Eigen/src/Core/AssignEvaluator.h ****     for(Index outer = 0; outer < outerSize; ++outer)
 478:./Eigen/src/Core/AssignEvaluator.h ****       for(Index inner = 0; inner < innerSize; inner+=packetSize)
 479:./Eigen/src/Core/AssignEvaluator.h ****         kernel.template assignPacketByOuterInner<DstAlignment, SrcAlignment, PacketType>(outer, inn
 480:./Eigen/src/Core/AssignEvaluator.h ****   }
 481:./Eigen/src/Core/AssignEvaluator.h **** };
 482:./Eigen/src/Core/AssignEvaluator.h **** 
 483:./Eigen/src/Core/AssignEvaluator.h **** template<typename Kernel>
 484:./Eigen/src/Core/AssignEvaluator.h **** struct dense_assignment_loop<Kernel, InnerVectorizedTraversal, CompleteUnrolling>
 485:./Eigen/src/Core/AssignEvaluator.h **** {
 486:./Eigen/src/Core/AssignEvaluator.h ****   EIGEN_DEVICE_FUNC static EIGEN_STRONG_INLINE void run(Kernel &kernel)
 487:./Eigen/src/Core/AssignEvaluator.h ****   {
 488:./Eigen/src/Core/AssignEvaluator.h ****     typedef typename Kernel::DstEvaluatorType::XprType DstXprType;
 489:./Eigen/src/Core/AssignEvaluator.h ****     copy_using_evaluator_innervec_CompleteUnrolling<Kernel, 0, DstXprType::SizeAtCompileTime>::run(
 490:./Eigen/src/Core/AssignEvaluator.h ****   }
 491:./Eigen/src/Core/AssignEvaluator.h **** };
 492:./Eigen/src/Core/AssignEvaluator.h **** 
 493:./Eigen/src/Core/AssignEvaluator.h **** template<typename Kernel>
 494:./Eigen/src/Core/AssignEvaluator.h **** struct dense_assignment_loop<Kernel, InnerVectorizedTraversal, InnerUnrolling>
 495:./Eigen/src/Core/AssignEvaluator.h **** {
 496:./Eigen/src/Core/AssignEvaluator.h ****   EIGEN_DEVICE_FUNC static EIGEN_STRONG_INLINE void run(Kernel &kernel)
 497:./Eigen/src/Core/AssignEvaluator.h ****   {
 498:./Eigen/src/Core/AssignEvaluator.h ****     typedef typename Kernel::DstEvaluatorType::XprType DstXprType;
 499:./Eigen/src/Core/AssignEvaluator.h ****     typedef typename Kernel::AssignmentTraits Traits;
 500:./Eigen/src/Core/AssignEvaluator.h ****     const Index outerSize = kernel.outerSize();
 501:./Eigen/src/Core/AssignEvaluator.h ****     for(Index outer = 0; outer < outerSize; ++outer)
 502:./Eigen/src/Core/AssignEvaluator.h ****       copy_using_evaluator_innervec_InnerUnrolling<Kernel, 0, DstXprType::InnerSizeAtCompileTime,
 503:./Eigen/src/Core/AssignEvaluator.h ****                                                    Traits::SrcAlignment, Traits::DstAlignment>::run
 504:./Eigen/src/Core/AssignEvaluator.h ****   }
 505:./Eigen/src/Core/AssignEvaluator.h **** };
 506:./Eigen/src/Core/AssignEvaluator.h **** 
 507:./Eigen/src/Core/AssignEvaluator.h **** /***********************
 508:./Eigen/src/Core/AssignEvaluator.h **** *** Linear traversal ***
 509:./Eigen/src/Core/AssignEvaluator.h **** ***********************/
 510:./Eigen/src/Core/AssignEvaluator.h **** 
 511:./Eigen/src/Core/AssignEvaluator.h **** template<typename Kernel>
 512:./Eigen/src/Core/AssignEvaluator.h **** struct dense_assignment_loop<Kernel, LinearTraversal, NoUnrolling>
 513:./Eigen/src/Core/AssignEvaluator.h **** {
 514:./Eigen/src/Core/AssignEvaluator.h ****   EIGEN_DEVICE_FUNC static EIGEN_STRONG_INLINE void run(Kernel &kernel)
 515:./Eigen/src/Core/AssignEvaluator.h ****   {
 516:./Eigen/src/Core/AssignEvaluator.h ****     const Index size = kernel.size();
 517:./Eigen/src/Core/AssignEvaluator.h ****     for(Index i = 0; i < size; ++i)
 518:./Eigen/src/Core/AssignEvaluator.h ****       kernel.assignCoeff(i);
 519:./Eigen/src/Core/AssignEvaluator.h ****   }
 520:./Eigen/src/Core/AssignEvaluator.h **** };
 521:./Eigen/src/Core/AssignEvaluator.h **** 
ARM GAS  C:\Users\purdu\AppData\Local\Temp\ccYBYMxG.s 			page 54


 522:./Eigen/src/Core/AssignEvaluator.h **** template<typename Kernel>
 523:./Eigen/src/Core/AssignEvaluator.h **** struct dense_assignment_loop<Kernel, LinearTraversal, CompleteUnrolling>
 524:./Eigen/src/Core/AssignEvaluator.h **** {
 525:./Eigen/src/Core/AssignEvaluator.h ****   EIGEN_DEVICE_FUNC static EIGEN_STRONG_INLINE void run(Kernel &kernel)
 526:./Eigen/src/Core/AssignEvaluator.h ****   {
 527:./Eigen/src/Core/AssignEvaluator.h ****     typedef typename Kernel::DstEvaluatorType::XprType DstXprType;
 528:./Eigen/src/Core/AssignEvaluator.h ****     copy_using_evaluator_LinearTraversal_CompleteUnrolling<Kernel, 0, DstXprType::SizeAtCompileTime
 529:./Eigen/src/Core/AssignEvaluator.h ****   }
 530:./Eigen/src/Core/AssignEvaluator.h **** };
 531:./Eigen/src/Core/AssignEvaluator.h **** 
 532:./Eigen/src/Core/AssignEvaluator.h **** /**************************
 533:./Eigen/src/Core/AssignEvaluator.h **** *** Slice vectorization ***
 534:./Eigen/src/Core/AssignEvaluator.h **** ***************************/
 535:./Eigen/src/Core/AssignEvaluator.h **** 
 536:./Eigen/src/Core/AssignEvaluator.h **** template<typename Kernel>
 537:./Eigen/src/Core/AssignEvaluator.h **** struct dense_assignment_loop<Kernel, SliceVectorizedTraversal, NoUnrolling>
 538:./Eigen/src/Core/AssignEvaluator.h **** {
 539:./Eigen/src/Core/AssignEvaluator.h ****   EIGEN_DEVICE_FUNC static EIGEN_STRONG_INLINE void run(Kernel &kernel)
 540:./Eigen/src/Core/AssignEvaluator.h ****   {
 541:./Eigen/src/Core/AssignEvaluator.h ****     typedef typename Kernel::Scalar Scalar;
 542:./Eigen/src/Core/AssignEvaluator.h ****     typedef typename Kernel::PacketType PacketType;
 543:./Eigen/src/Core/AssignEvaluator.h ****     enum {
 544:./Eigen/src/Core/AssignEvaluator.h ****       packetSize = unpacket_traits<PacketType>::size,
 545:./Eigen/src/Core/AssignEvaluator.h ****       requestedAlignment = int(Kernel::AssignmentTraits::InnerRequiredAlignment),
 546:./Eigen/src/Core/AssignEvaluator.h ****       alignable = packet_traits<Scalar>::AlignedOnScalar || int(Kernel::AssignmentTraits::DstAlignm
 547:./Eigen/src/Core/AssignEvaluator.h ****       dstIsAligned = int(Kernel::AssignmentTraits::DstAlignment)>=int(requestedAlignment),
 548:./Eigen/src/Core/AssignEvaluator.h ****       dstAlignment = alignable ? int(requestedAlignment)
 549:./Eigen/src/Core/AssignEvaluator.h ****                                : int(Kernel::AssignmentTraits::DstAlignment)
 550:./Eigen/src/Core/AssignEvaluator.h ****     };
 551:./Eigen/src/Core/AssignEvaluator.h ****     const Scalar *dst_ptr = kernel.dstDataPtr();
 552:./Eigen/src/Core/AssignEvaluator.h ****     if((!bool(dstIsAligned)) && (UIntPtr(dst_ptr) % sizeof(Scalar))>0)
 553:./Eigen/src/Core/AssignEvaluator.h ****     {
 554:./Eigen/src/Core/AssignEvaluator.h ****       // the pointer is not aligned-on scalar, so alignment is not possible
 555:./Eigen/src/Core/AssignEvaluator.h ****       return dense_assignment_loop<Kernel,DefaultTraversal,NoUnrolling>::run(kernel);
 556:./Eigen/src/Core/AssignEvaluator.h ****     }
 557:./Eigen/src/Core/AssignEvaluator.h ****     const Index packetAlignedMask = packetSize - 1;
 558:./Eigen/src/Core/AssignEvaluator.h ****     const Index innerSize = kernel.innerSize();
 559:./Eigen/src/Core/AssignEvaluator.h ****     const Index outerSize = kernel.outerSize();
 560:./Eigen/src/Core/AssignEvaluator.h ****     const Index alignedStep = alignable ? (packetSize - kernel.outerStride() % packetSize) & packet
 561:./Eigen/src/Core/AssignEvaluator.h ****     Index alignedStart = ((!alignable) || bool(dstIsAligned)) ? 0 : internal::first_aligned<request
 562:./Eigen/src/Core/AssignEvaluator.h **** 
 563:./Eigen/src/Core/AssignEvaluator.h ****     for(Index outer = 0; outer < outerSize; ++outer)
 564:./Eigen/src/Core/AssignEvaluator.h ****     {
 565:./Eigen/src/Core/AssignEvaluator.h ****       const Index alignedEnd = alignedStart + ((innerSize-alignedStart) & ~packetAlignedMask);
 566:./Eigen/src/Core/AssignEvaluator.h ****       // do the non-vectorizable part of the assignment
 567:./Eigen/src/Core/AssignEvaluator.h ****       for(Index inner = 0; inner<alignedStart ; ++inner)
 568:./Eigen/src/Core/AssignEvaluator.h ****         kernel.assignCoeffByOuterInner(outer, inner);
 569:./Eigen/src/Core/AssignEvaluator.h **** 
 570:./Eigen/src/Core/AssignEvaluator.h ****       // do the vectorizable part of the assignment
 571:./Eigen/src/Core/AssignEvaluator.h ****       for(Index inner = alignedStart; inner<alignedEnd; inner+=packetSize)
 572:./Eigen/src/Core/AssignEvaluator.h ****         kernel.template assignPacketByOuterInner<dstAlignment, Unaligned, PacketType>(outer, inner)
 573:./Eigen/src/Core/AssignEvaluator.h **** 
 574:./Eigen/src/Core/AssignEvaluator.h ****       // do the non-vectorizable part of the assignment
 575:./Eigen/src/Core/AssignEvaluator.h ****       for(Index inner = alignedEnd; inner<innerSize ; ++inner)
 576:./Eigen/src/Core/AssignEvaluator.h ****         kernel.assignCoeffByOuterInner(outer, inner);
 577:./Eigen/src/Core/AssignEvaluator.h **** 
 578:./Eigen/src/Core/AssignEvaluator.h ****       alignedStart = numext::mini((alignedStart+alignedStep)%packetSize, innerSize);
ARM GAS  C:\Users\purdu\AppData\Local\Temp\ccYBYMxG.s 			page 55


 579:./Eigen/src/Core/AssignEvaluator.h ****     }
 580:./Eigen/src/Core/AssignEvaluator.h ****   }
 581:./Eigen/src/Core/AssignEvaluator.h **** };
 582:./Eigen/src/Core/AssignEvaluator.h **** 
 583:./Eigen/src/Core/AssignEvaluator.h **** #if EIGEN_UNALIGNED_VECTORIZE
 584:./Eigen/src/Core/AssignEvaluator.h **** template<typename Kernel>
 585:./Eigen/src/Core/AssignEvaluator.h **** struct dense_assignment_loop<Kernel, SliceVectorizedTraversal, InnerUnrolling>
 586:./Eigen/src/Core/AssignEvaluator.h **** {
 587:./Eigen/src/Core/AssignEvaluator.h ****   EIGEN_DEVICE_FUNC static EIGEN_STRONG_INLINE void run(Kernel &kernel)
 588:./Eigen/src/Core/AssignEvaluator.h ****   {
 589:./Eigen/src/Core/AssignEvaluator.h ****     typedef typename Kernel::DstEvaluatorType::XprType DstXprType;
 590:./Eigen/src/Core/AssignEvaluator.h ****     typedef typename Kernel::PacketType PacketType;
 591:./Eigen/src/Core/AssignEvaluator.h **** 
 592:./Eigen/src/Core/AssignEvaluator.h ****     enum { innerSize = DstXprType::InnerSizeAtCompileTime,
 593:./Eigen/src/Core/AssignEvaluator.h ****            packetSize =unpacket_traits<PacketType>::size,
 594:./Eigen/src/Core/AssignEvaluator.h ****            vectorizableSize = (int(innerSize) / int(packetSize)) * int(packetSize),
 595:./Eigen/src/Core/AssignEvaluator.h ****            size = DstXprType::SizeAtCompileTime };
 596:./Eigen/src/Core/AssignEvaluator.h **** 
 597:./Eigen/src/Core/AssignEvaluator.h ****     for(Index outer = 0; outer < kernel.outerSize(); ++outer)
 598:./Eigen/src/Core/AssignEvaluator.h ****     {
 599:./Eigen/src/Core/AssignEvaluator.h ****       copy_using_evaluator_innervec_InnerUnrolling<Kernel, 0, vectorizableSize, 0, 0>::run(kernel, 
 600:./Eigen/src/Core/AssignEvaluator.h ****       copy_using_evaluator_DefaultTraversal_InnerUnrolling<Kernel, vectorizableSize, innerSize>::ru
 601:./Eigen/src/Core/AssignEvaluator.h ****     }
 602:./Eigen/src/Core/AssignEvaluator.h ****   }
 603:./Eigen/src/Core/AssignEvaluator.h **** };
 604:./Eigen/src/Core/AssignEvaluator.h **** #endif
 605:./Eigen/src/Core/AssignEvaluator.h **** 
 606:./Eigen/src/Core/AssignEvaluator.h **** 
 607:./Eigen/src/Core/AssignEvaluator.h **** /***************************************************************************
 608:./Eigen/src/Core/AssignEvaluator.h **** * Part 4 : Generic dense assignment kernel
 609:./Eigen/src/Core/AssignEvaluator.h **** ***************************************************************************/
 610:./Eigen/src/Core/AssignEvaluator.h **** 
 611:./Eigen/src/Core/AssignEvaluator.h **** // This class generalize the assignment of a coefficient (or packet) from one dense evaluator
 612:./Eigen/src/Core/AssignEvaluator.h **** // to another dense writable evaluator.
 613:./Eigen/src/Core/AssignEvaluator.h **** // It is parametrized by the two evaluators, and the actual assignment functor.
 614:./Eigen/src/Core/AssignEvaluator.h **** // This abstraction level permits to keep the evaluation loops as simple and as generic as possible
 615:./Eigen/src/Core/AssignEvaluator.h **** // One can customize the assignment using this generic dense_assignment_kernel with different
 616:./Eigen/src/Core/AssignEvaluator.h **** // functors, or by completely overloading it, by-passing a functor.
 617:./Eigen/src/Core/AssignEvaluator.h **** template<typename DstEvaluatorTypeT, typename SrcEvaluatorTypeT, typename Functor, int Version = Sp
 618:./Eigen/src/Core/AssignEvaluator.h **** class generic_dense_assignment_kernel
 619:./Eigen/src/Core/AssignEvaluator.h **** {
