ARM GAS  C:\Users\purdu\AppData\Local\Temp\ccO8XaM9.s 			page 1


   1              		.cpu cortex-m4
   2              		.arch armv7e-m
   3              		.fpu fpv4-sp-d16
   4              		.eabi_attribute 27, 1
   5              		.eabi_attribute 28, 1
   6              		.eabi_attribute 20, 1
   7              		.eabi_attribute 21, 1
   8              		.eabi_attribute 23, 3
   9              		.eabi_attribute 24, 1
  10              		.eabi_attribute 25, 1
  11              		.eabi_attribute 26, 1
  12              		.eabi_attribute 30, 1
  13              		.eabi_attribute 34, 1
  14              		.eabi_attribute 18, 4
  15              		.file	"I2C_Setup.c"
  16              		.text
  17              	.Ltext0:
  18              		.cfi_sections	.debug_frame
  19              		.file 1 "BSP/BSP.c/I2C_Setup.c"
  20              		.section	.text.I2C_Read_8_Bytes,"ax",%progbits
  21              		.align	1
  22              		.global	I2C_Read_8_Bytes
  23              		.syntax unified
  24              		.thumb
  25              		.thumb_func
  27              	I2C_Read_8_Bytes:
  28              	.LVL0:
  29              	.LFB162:
   1:BSP/BSP.c/I2C_Setup.c **** /**
   2:BSP/BSP.c/I2C_Setup.c ****  * @file I2C_Setup.c
   3:BSP/BSP.c/I2C_Setup.c ****  * @author Leo Liu
   4:BSP/BSP.c/I2C_Setup.c ****  * @brief 
   5:BSP/BSP.c/I2C_Setup.c ****  * @version 1.0
   6:BSP/BSP.c/I2C_Setup.c ****  * @date 2022/07/14
   7:BSP/BSP.c/I2C_Setup.c ****  * 
   8:BSP/BSP.c/I2C_Setup.c ****  * @copyright Copyright (c) 2022
   9:BSP/BSP.c/I2C_Setup.c ****  * 
  10:BSP/BSP.c/I2C_Setup.c ****  */
  11:BSP/BSP.c/I2C_Setup.c ****  
  12:BSP/BSP.c/I2C_Setup.c **** #include "I2C_Setup.h"
  13:BSP/BSP.c/I2C_Setup.c **** 
  14:BSP/BSP.c/I2C_Setup.c **** void I2C_Read_8_Bytes(uint8_t devAddr, uint8_t regAddr, uint8_t length, uint8_t *data);
  15:BSP/BSP.c/I2C_Setup.c **** void I2C_Write_8_Bytes(uint8_t devAddr, uint8_t regAddr, uint8_t length, uint8_t	*data);
  16:BSP/BSP.c/I2C_Setup.c **** void I2C_Read_16_Bytes(uint16_t devAddr, uint16_t regAddr, uint8_t length, uint8_t *data);
  17:BSP/BSP.c/I2C_Setup.c **** void I2C_Write_16_Bytes(uint16_t devAddr, uint16_t regAddr, uint8_t length, uint8_t	*data);
  18:BSP/BSP.c/I2C_Setup.c **** 
  19:BSP/BSP.c/I2C_Setup.c **** //I2C read and write functions based on register bit length
  20:BSP/BSP.c/I2C_Setup.c **** 
  21:BSP/BSP.c/I2C_Setup.c **** void I2C_Read_8_Bytes(uint8_t devAddr, uint8_t regAddr, uint8_t length, uint8_t *data)
  22:BSP/BSP.c/I2C_Setup.c **** {
  30              		.loc 1 22 1 view -0
  31              		.cfi_startproc
  32              		@ args = 0, pretend = 0, frame = 0
  33              		@ frame_needed = 0, uses_anonymous_args = 0
  34              		.loc 1 22 1 is_stmt 0 view .LVU1
  35 0000 10B5     		push	{r4, lr}
  36              	.LCFI0:
ARM GAS  C:\Users\purdu\AppData\Local\Temp\ccO8XaM9.s 			page 2


  37              		.cfi_def_cfa_offset 8
  38              		.cfi_offset 4, -8
  39              		.cfi_offset 14, -4
  40 0002 84B0     		sub	sp, sp, #16
  41              	.LCFI1:
  42              		.cfi_def_cfa_offset 24
  23:BSP/BSP.c/I2C_Setup.c **** 	HAL_I2C_Mem_Read(&hi2c2, devAddr<<1, regAddr, I2C_MEMADD_SIZE_8BIT, data, length, I2C_TIMEOUT);
  43              		.loc 1 23 2 is_stmt 1 view .LVU2
  44 0004 6424     		movs	r4, #100
  45 0006 0294     		str	r4, [sp, #8]
  46 0008 0192     		str	r2, [sp, #4]
  47 000a 0093     		str	r3, [sp]
  48 000c 0123     		movs	r3, #1
  49              	.LVL1:
  50              		.loc 1 23 2 is_stmt 0 view .LVU3
  51 000e 0A46     		mov	r2, r1
  52              	.LVL2:
  53              		.loc 1 23 2 view .LVU4
  54 0010 00FA03F1 		lsl	r1, r0, r3
  55              	.LVL3:
  56              		.loc 1 23 2 view .LVU5
  57 0014 0248     		ldr	r0, .L3
  58              	.LVL4:
  59              		.loc 1 23 2 view .LVU6
  60 0016 FFF7FEFF 		bl	HAL_I2C_Mem_Read
  61              	.LVL5:
  24:BSP/BSP.c/I2C_Setup.c **** }
  62              		.loc 1 24 1 view .LVU7
  63 001a 04B0     		add	sp, sp, #16
  64              	.LCFI2:
  65              		.cfi_def_cfa_offset 8
  66              		@ sp needed
  67 001c 10BD     		pop	{r4, pc}
  68              	.L4:
  69 001e 00BF     		.align	2
  70              	.L3:
  71 0020 00000000 		.word	hi2c2
  72              		.cfi_endproc
  73              	.LFE162:
  75              		.section	.text.I2C_Write_8_Bytes,"ax",%progbits
  76              		.align	1
  77              		.global	I2C_Write_8_Bytes
  78              		.syntax unified
  79              		.thumb
  80              		.thumb_func
  82              	I2C_Write_8_Bytes:
  83              	.LVL6:
  84              	.LFB163:
  25:BSP/BSP.c/I2C_Setup.c **** 
  26:BSP/BSP.c/I2C_Setup.c **** void I2C_Write_8_Bytes(uint8_t devAddr, uint8_t regAddr, uint8_t length, uint8_t	*data)
  27:BSP/BSP.c/I2C_Setup.c **** {
  85              		.loc 1 27 1 is_stmt 1 view -0
  86              		.cfi_startproc
  87              		@ args = 0, pretend = 0, frame = 0
  88              		@ frame_needed = 0, uses_anonymous_args = 0
  89              		.loc 1 27 1 is_stmt 0 view .LVU9
  90 0000 10B5     		push	{r4, lr}
ARM GAS  C:\Users\purdu\AppData\Local\Temp\ccO8XaM9.s 			page 3


  91              	.LCFI3:
  92              		.cfi_def_cfa_offset 8
  93              		.cfi_offset 4, -8
  94              		.cfi_offset 14, -4
  95 0002 84B0     		sub	sp, sp, #16
  96              	.LCFI4:
  97              		.cfi_def_cfa_offset 24
  28:BSP/BSP.c/I2C_Setup.c **** 	HAL_I2C_Mem_Read(&hi2c2, devAddr<<1, regAddr, I2C_MEMADD_SIZE_8BIT, data, length, I2C_TIMEOUT);
  98              		.loc 1 28 2 is_stmt 1 view .LVU10
  99 0004 6424     		movs	r4, #100
 100 0006 0294     		str	r4, [sp, #8]
 101 0008 0192     		str	r2, [sp, #4]
 102 000a 0093     		str	r3, [sp]
 103 000c 0123     		movs	r3, #1
 104              	.LVL7:
 105              		.loc 1 28 2 is_stmt 0 view .LVU11
 106 000e 0A46     		mov	r2, r1
 107              	.LVL8:
 108              		.loc 1 28 2 view .LVU12
 109 0010 00FA03F1 		lsl	r1, r0, r3
 110              	.LVL9:
 111              		.loc 1 28 2 view .LVU13
 112 0014 0248     		ldr	r0, .L7
 113              	.LVL10:
 114              		.loc 1 28 2 view .LVU14
 115 0016 FFF7FEFF 		bl	HAL_I2C_Mem_Read
 116              	.LVL11:
  29:BSP/BSP.c/I2C_Setup.c **** }
 117              		.loc 1 29 1 view .LVU15
 118 001a 04B0     		add	sp, sp, #16
 119              	.LCFI5:
 120              		.cfi_def_cfa_offset 8
 121              		@ sp needed
 122 001c 10BD     		pop	{r4, pc}
 123              	.L8:
 124 001e 00BF     		.align	2
 125              	.L7:
 126 0020 00000000 		.word	hi2c2
 127              		.cfi_endproc
 128              	.LFE163:
 130              		.section	.text.I2C_Read_16_Bytes,"ax",%progbits
 131              		.align	1
 132              		.global	I2C_Read_16_Bytes
 133              		.syntax unified
 134              		.thumb
 135              		.thumb_func
 137              	I2C_Read_16_Bytes:
 138              	.LVL12:
 139              	.LFB164:
  30:BSP/BSP.c/I2C_Setup.c **** 
  31:BSP/BSP.c/I2C_Setup.c **** void I2C_Read_16_Bytes(uint16_t devAddr, uint16_t regAddr, uint8_t length, uint8_t *data)
  32:BSP/BSP.c/I2C_Setup.c **** {
 140              		.loc 1 32 1 is_stmt 1 view -0
 141              		.cfi_startproc
 142              		@ args = 0, pretend = 0, frame = 0
 143              		@ frame_needed = 0, uses_anonymous_args = 0
 144              		.loc 1 32 1 is_stmt 0 view .LVU17
ARM GAS  C:\Users\purdu\AppData\Local\Temp\ccO8XaM9.s 			page 4


 145 0000 10B5     		push	{r4, lr}
 146              	.LCFI6:
 147              		.cfi_def_cfa_offset 8
 148              		.cfi_offset 4, -8
 149              		.cfi_offset 14, -4
 150 0002 84B0     		sub	sp, sp, #16
 151              	.LCFI7:
 152              		.cfi_def_cfa_offset 24
  33:BSP/BSP.c/I2C_Setup.c **** 	HAL_I2C_Mem_Read(&hi2c2, devAddr<<1, regAddr, I2C_MEMADD_SIZE_16BIT, data, length, I2C_TIMEOUT);
 153              		.loc 1 33 2 is_stmt 1 view .LVU18
 154 0004 4000     		lsls	r0, r0, #1
 155              	.LVL13:
 156              		.loc 1 33 2 is_stmt 0 view .LVU19
 157 0006 80B2     		uxth	r0, r0
 158 0008 6424     		movs	r4, #100
 159 000a 0294     		str	r4, [sp, #8]
 160 000c 0192     		str	r2, [sp, #4]
 161 000e 0093     		str	r3, [sp]
 162 0010 1023     		movs	r3, #16
 163              	.LVL14:
 164              		.loc 1 33 2 view .LVU20
 165 0012 0A46     		mov	r2, r1
 166              	.LVL15:
 167              		.loc 1 33 2 view .LVU21
 168 0014 0146     		mov	r1, r0
 169              	.LVL16:
 170              		.loc 1 33 2 view .LVU22
 171 0016 0248     		ldr	r0, .L11
 172 0018 FFF7FEFF 		bl	HAL_I2C_Mem_Read
 173              	.LVL17:
  34:BSP/BSP.c/I2C_Setup.c **** }
 174              		.loc 1 34 1 view .LVU23
 175 001c 04B0     		add	sp, sp, #16
 176              	.LCFI8:
 177              		.cfi_def_cfa_offset 8
 178              		@ sp needed
 179 001e 10BD     		pop	{r4, pc}
 180              	.L12:
 181              		.align	2
 182              	.L11:
 183 0020 00000000 		.word	hi2c2
 184              		.cfi_endproc
 185              	.LFE164:
 187              		.section	.text.I2C_Write_16_Bytes,"ax",%progbits
 188              		.align	1
 189              		.global	I2C_Write_16_Bytes
 190              		.syntax unified
 191              		.thumb
 192              		.thumb_func
 194              	I2C_Write_16_Bytes:
 195              	.LVL18:
 196              	.LFB165:
  35:BSP/BSP.c/I2C_Setup.c **** 
  36:BSP/BSP.c/I2C_Setup.c **** void I2C_Write_16_Bytes(uint16_t devAddr, uint16_t regAddr, uint8_t length, uint8_t *data)
  37:BSP/BSP.c/I2C_Setup.c **** {
 197              		.loc 1 37 1 is_stmt 1 view -0
 198              		.cfi_startproc
ARM GAS  C:\Users\purdu\AppData\Local\Temp\ccO8XaM9.s 			page 5


 199              		@ args = 0, pretend = 0, frame = 0
 200              		@ frame_needed = 0, uses_anonymous_args = 0
 201              		.loc 1 37 1 is_stmt 0 view .LVU25
 202 0000 10B5     		push	{r4, lr}
 203              	.LCFI9:
 204              		.cfi_def_cfa_offset 8
 205              		.cfi_offset 4, -8
 206              		.cfi_offset 14, -4
 207 0002 84B0     		sub	sp, sp, #16
 208              	.LCFI10:
 209              		.cfi_def_cfa_offset 24
  38:BSP/BSP.c/I2C_Setup.c **** 	HAL_I2C_Mem_Write(&hi2c2, devAddr<<1, regAddr, I2C_MEMADD_SIZE_16BIT, data, length, I2C_TIMEOUT);
 210              		.loc 1 38 2 is_stmt 1 view .LVU26
 211 0004 4000     		lsls	r0, r0, #1
 212              	.LVL19:
 213              		.loc 1 38 2 is_stmt 0 view .LVU27
 214 0006 80B2     		uxth	r0, r0
 215 0008 6424     		movs	r4, #100
 216 000a 0294     		str	r4, [sp, #8]
 217 000c 0192     		str	r2, [sp, #4]
 218 000e 0093     		str	r3, [sp]
 219 0010 1023     		movs	r3, #16
 220              	.LVL20:
 221              		.loc 1 38 2 view .LVU28
 222 0012 0A46     		mov	r2, r1
 223              	.LVL21:
 224              		.loc 1 38 2 view .LVU29
 225 0014 0146     		mov	r1, r0
 226              	.LVL22:
 227              		.loc 1 38 2 view .LVU30
 228 0016 0248     		ldr	r0, .L15
 229 0018 FFF7FEFF 		bl	HAL_I2C_Mem_Write
 230              	.LVL23:
  39:BSP/BSP.c/I2C_Setup.c **** }
 231              		.loc 1 39 1 view .LVU31
 232 001c 04B0     		add	sp, sp, #16
 233              	.LCFI11:
 234              		.cfi_def_cfa_offset 8
 235              		@ sp needed
 236 001e 10BD     		pop	{r4, pc}
 237              	.L16:
 238              		.align	2
 239              	.L15:
 240 0020 00000000 		.word	hi2c2
 241              		.cfi_endproc
 242              	.LFE165:
 244              		.text
 245              	.Letext0:
 246              		.file 2 "c:\\msys64\\mingw64\\arm-none-eabi\\include\\machine\\_default_types.h"
 247              		.file 3 "c:\\msys64\\mingw64\\arm-none-eabi\\include\\sys\\_stdint.h"
 248              		.file 4 "Drivers/CMSIS/Device/ST/STM32F4xx/Include/stm32f427xx.h"
 249              		.file 5 "Drivers/STM32F4xx_HAL_Driver/Inc/stm32f4xx_hal_def.h"
 250              		.file 6 "Drivers/STM32F4xx_HAL_Driver/Inc/stm32f4xx_hal_dma.h"
 251              		.file 7 "Drivers/STM32F4xx_HAL_Driver/Inc/stm32f4xx_hal_i2c.h"
 252              		.file 8 "Core/Inc/i2c.h"
ARM GAS  C:\Users\purdu\AppData\Local\Temp\ccO8XaM9.s 			page 6

