ARM GAS  C:\Users\purdu\AppData\Local\Temp\ccbDfyie.s 			page 1


   1              		.cpu cortex-m4
   2              		.arch armv7e-m
   3              		.fpu fpv4-sp-d16
   4              		.eabi_attribute 27, 1
   5              		.eabi_attribute 28, 1
   6              		.eabi_attribute 20, 1
   7              		.eabi_attribute 21, 1
   8              		.eabi_attribute 23, 3
   9              		.eabi_attribute 24, 1
  10              		.eabi_attribute 25, 1
  11              		.eabi_attribute 26, 1
  12              		.eabi_attribute 30, 1
  13              		.eabi_attribute 34, 1
  14              		.eabi_attribute 18, 4
  15              		.file	"stm32f4xx_it.c"
  16              		.text
  17              	.Ltext0:
  18              		.cfi_sections	.debug_frame
  19              		.file 1 "Core/Src/stm32f4xx_it.c"
  20              		.section	.text.NMI_Handler,"ax",%progbits
  21              		.align	1
  22              		.global	NMI_Handler
  23              		.syntax unified
  24              		.thumb
  25              		.thumb_func
  27              	NMI_Handler:
  28              	.LFB162:
   1:Core/Src/stm32f4xx_it.c **** /* USER CODE BEGIN Header */
   2:Core/Src/stm32f4xx_it.c **** /**
   3:Core/Src/stm32f4xx_it.c ****   ******************************************************************************
   4:Core/Src/stm32f4xx_it.c ****   * @file    stm32f4xx_it.c
   5:Core/Src/stm32f4xx_it.c ****   * @brief   Interrupt Service Routines.
   6:Core/Src/stm32f4xx_it.c ****   ******************************************************************************
   7:Core/Src/stm32f4xx_it.c ****   * @attention
   8:Core/Src/stm32f4xx_it.c ****   *
   9:Core/Src/stm32f4xx_it.c ****   * Copyright (c) 2022 STMicroelectronics.
  10:Core/Src/stm32f4xx_it.c ****   * All rights reserved.
  11:Core/Src/stm32f4xx_it.c ****   *
  12:Core/Src/stm32f4xx_it.c ****   * This software is licensed under terms that can be found in the LICENSE file
  13:Core/Src/stm32f4xx_it.c ****   * in the root directory of this software component.
  14:Core/Src/stm32f4xx_it.c ****   * If no LICENSE file comes with this software, it is provided AS-IS.
  15:Core/Src/stm32f4xx_it.c ****   *
  16:Core/Src/stm32f4xx_it.c ****   ******************************************************************************
  17:Core/Src/stm32f4xx_it.c ****   */
  18:Core/Src/stm32f4xx_it.c **** /* USER CODE END Header */
  19:Core/Src/stm32f4xx_it.c **** 
  20:Core/Src/stm32f4xx_it.c **** /* Includes ------------------------------------------------------------------*/
  21:Core/Src/stm32f4xx_it.c **** #include "main.h"
  22:Core/Src/stm32f4xx_it.c **** #include "stm32f4xx_it.h"
  23:Core/Src/stm32f4xx_it.c **** /* Private includes ----------------------------------------------------------*/
  24:Core/Src/stm32f4xx_it.c **** /* USER CODE BEGIN Includes */
  25:Core/Src/stm32f4xx_it.c **** #include "DR16_Remote.h"
  26:Core/Src/stm32f4xx_it.c **** #include "CAN_Setup.h"
  27:Core/Src/stm32f4xx_it.c **** #include "Control_Board_A.h"
  28:Core/Src/stm32f4xx_it.c **** #include "Referee_System.h"
  29:Core/Src/stm32f4xx_it.c **** /* USER CODE END Includes */
  30:Core/Src/stm32f4xx_it.c **** 
ARM GAS  C:\Users\purdu\AppData\Local\Temp\ccbDfyie.s 			page 2


  31:Core/Src/stm32f4xx_it.c **** /* Private typedef -----------------------------------------------------------*/
  32:Core/Src/stm32f4xx_it.c **** /* USER CODE BEGIN TD */
  33:Core/Src/stm32f4xx_it.c **** 
  34:Core/Src/stm32f4xx_it.c **** /* USER CODE END TD */
  35:Core/Src/stm32f4xx_it.c **** 
  36:Core/Src/stm32f4xx_it.c **** /* Private define ------------------------------------------------------------*/
  37:Core/Src/stm32f4xx_it.c **** /* USER CODE BEGIN PD */
  38:Core/Src/stm32f4xx_it.c **** 
  39:Core/Src/stm32f4xx_it.c **** /* USER CODE END PD */
  40:Core/Src/stm32f4xx_it.c **** 
  41:Core/Src/stm32f4xx_it.c **** /* Private macro -------------------------------------------------------------*/
  42:Core/Src/stm32f4xx_it.c **** /* USER CODE BEGIN PM */
  43:Core/Src/stm32f4xx_it.c **** 
  44:Core/Src/stm32f4xx_it.c **** /* USER CODE END PM */
  45:Core/Src/stm32f4xx_it.c **** 
  46:Core/Src/stm32f4xx_it.c **** /* Private variables ---------------------------------------------------------*/
  47:Core/Src/stm32f4xx_it.c **** /* USER CODE BEGIN PV */
  48:Core/Src/stm32f4xx_it.c **** 
  49:Core/Src/stm32f4xx_it.c **** /* USER CODE END PV */
  50:Core/Src/stm32f4xx_it.c **** 
  51:Core/Src/stm32f4xx_it.c **** /* Private function prototypes -----------------------------------------------*/
  52:Core/Src/stm32f4xx_it.c **** /* USER CODE BEGIN PFP */
  53:Core/Src/stm32f4xx_it.c **** 
  54:Core/Src/stm32f4xx_it.c **** /* USER CODE END PFP */
  55:Core/Src/stm32f4xx_it.c **** 
  56:Core/Src/stm32f4xx_it.c **** /* Private user code ---------------------------------------------------------*/
  57:Core/Src/stm32f4xx_it.c **** /* USER CODE BEGIN 0 */
  58:Core/Src/stm32f4xx_it.c **** 
  59:Core/Src/stm32f4xx_it.c **** /* USER CODE END 0 */
  60:Core/Src/stm32f4xx_it.c **** 
  61:Core/Src/stm32f4xx_it.c **** /* External variables --------------------------------------------------------*/
  62:Core/Src/stm32f4xx_it.c **** extern CAN_HandleTypeDef hcan1;
  63:Core/Src/stm32f4xx_it.c **** extern CAN_HandleTypeDef hcan2;
  64:Core/Src/stm32f4xx_it.c **** extern DMA_HandleTypeDef hdma_uart7_rx;
  65:Core/Src/stm32f4xx_it.c **** extern DMA_HandleTypeDef hdma_uart8_rx;
  66:Core/Src/stm32f4xx_it.c **** extern DMA_HandleTypeDef hdma_uart8_tx;
  67:Core/Src/stm32f4xx_it.c **** extern DMA_HandleTypeDef hdma_usart1_rx;
  68:Core/Src/stm32f4xx_it.c **** extern DMA_HandleTypeDef hdma_usart6_rx;
  69:Core/Src/stm32f4xx_it.c **** extern UART_HandleTypeDef huart7;
  70:Core/Src/stm32f4xx_it.c **** extern UART_HandleTypeDef huart1;
  71:Core/Src/stm32f4xx_it.c **** extern UART_HandleTypeDef huart6;
  72:Core/Src/stm32f4xx_it.c **** extern TIM_HandleTypeDef htim6;
  73:Core/Src/stm32f4xx_it.c **** 
  74:Core/Src/stm32f4xx_it.c **** /* USER CODE BEGIN EV */
  75:Core/Src/stm32f4xx_it.c **** 
  76:Core/Src/stm32f4xx_it.c **** /* USER CODE END EV */
  77:Core/Src/stm32f4xx_it.c **** 
  78:Core/Src/stm32f4xx_it.c **** /******************************************************************************/
  79:Core/Src/stm32f4xx_it.c **** /*           Cortex-M4 Processor Interruption and Exception Handlers          */
  80:Core/Src/stm32f4xx_it.c **** /******************************************************************************/
  81:Core/Src/stm32f4xx_it.c **** /**
  82:Core/Src/stm32f4xx_it.c ****   * @brief This function handles Non maskable interrupt.
  83:Core/Src/stm32f4xx_it.c ****   */
  84:Core/Src/stm32f4xx_it.c **** void NMI_Handler(void)
  85:Core/Src/stm32f4xx_it.c **** {
  29              		.loc 1 85 1 view -0
  30              		.cfi_startproc
ARM GAS  C:\Users\purdu\AppData\Local\Temp\ccbDfyie.s 			page 3


  31              		@ Volatile: function does not return.
  32              		@ args = 0, pretend = 0, frame = 0
  33              		@ frame_needed = 0, uses_anonymous_args = 0
  34              		@ link register save eliminated.
  35              	.L2:
  86:Core/Src/stm32f4xx_it.c ****   /* USER CODE BEGIN NonMaskableInt_IRQn 0 */
  87:Core/Src/stm32f4xx_it.c **** 
  88:Core/Src/stm32f4xx_it.c ****   /* USER CODE END NonMaskableInt_IRQn 0 */
  89:Core/Src/stm32f4xx_it.c ****   /* USER CODE BEGIN NonMaskableInt_IRQn 1 */
  90:Core/Src/stm32f4xx_it.c ****   while (1)
  36              		.loc 1 90 3 discriminator 1 view .LVU1
  91:Core/Src/stm32f4xx_it.c ****   {
  92:Core/Src/stm32f4xx_it.c ****   }
  37              		.loc 1 92 3 discriminator 1 view .LVU2
  90:Core/Src/stm32f4xx_it.c ****   {
  38              		.loc 1 90 9 discriminator 1 view .LVU3
  39 0000 FEE7     		b	.L2
  40              		.cfi_endproc
  41              	.LFE162:
  43              		.section	.text.HardFault_Handler,"ax",%progbits
  44              		.align	1
  45              		.global	HardFault_Handler
  46              		.syntax unified
  47              		.thumb
  48              		.thumb_func
  50              	HardFault_Handler:
  51              	.LFB163:
  93:Core/Src/stm32f4xx_it.c ****   /* USER CODE END NonMaskableInt_IRQn 1 */
  94:Core/Src/stm32f4xx_it.c **** }
  95:Core/Src/stm32f4xx_it.c **** 
  96:Core/Src/stm32f4xx_it.c **** /**
  97:Core/Src/stm32f4xx_it.c ****   * @brief This function handles Hard fault interrupt.
  98:Core/Src/stm32f4xx_it.c ****   */
  99:Core/Src/stm32f4xx_it.c **** void HardFault_Handler(void)
 100:Core/Src/stm32f4xx_it.c **** {
  52              		.loc 1 100 1 view -0
  53              		.cfi_startproc
  54              		@ Volatile: function does not return.
  55              		@ args = 0, pretend = 0, frame = 0
  56              		@ frame_needed = 0, uses_anonymous_args = 0
  57              		@ link register save eliminated.
  58              	.L4:
 101:Core/Src/stm32f4xx_it.c ****   /* USER CODE BEGIN HardFault_IRQn 0 */
 102:Core/Src/stm32f4xx_it.c **** 
 103:Core/Src/stm32f4xx_it.c ****   /* USER CODE END HardFault_IRQn 0 */
 104:Core/Src/stm32f4xx_it.c ****   while (1)
  59              		.loc 1 104 3 discriminator 1 view .LVU5
 105:Core/Src/stm32f4xx_it.c ****   {
 106:Core/Src/stm32f4xx_it.c ****     /* USER CODE BEGIN W1_HardFault_IRQn 0 */
 107:Core/Src/stm32f4xx_it.c ****     /* USER CODE END W1_HardFault_IRQn 0 */
 108:Core/Src/stm32f4xx_it.c ****   }
  60              		.loc 1 108 3 discriminator 1 view .LVU6
 104:Core/Src/stm32f4xx_it.c ****   {
  61              		.loc 1 104 9 discriminator 1 view .LVU7
  62 0000 FEE7     		b	.L4
  63              		.cfi_endproc
  64              	.LFE163:
ARM GAS  C:\Users\purdu\AppData\Local\Temp\ccbDfyie.s 			page 4


  66              		.section	.text.MemManage_Handler,"ax",%progbits
  67              		.align	1
  68              		.global	MemManage_Handler
  69              		.syntax unified
  70              		.thumb
  71              		.thumb_func
  73              	MemManage_Handler:
  74              	.LFB164:
 109:Core/Src/stm32f4xx_it.c **** }
 110:Core/Src/stm32f4xx_it.c **** 
 111:Core/Src/stm32f4xx_it.c **** /**
 112:Core/Src/stm32f4xx_it.c ****   * @brief This function handles Memory management fault.
 113:Core/Src/stm32f4xx_it.c ****   */
 114:Core/Src/stm32f4xx_it.c **** void MemManage_Handler(void)
 115:Core/Src/stm32f4xx_it.c **** {
  75              		.loc 1 115 1 view -0
  76              		.cfi_startproc
  77              		@ Volatile: function does not return.
  78              		@ args = 0, pretend = 0, frame = 0
  79              		@ frame_needed = 0, uses_anonymous_args = 0
  80              		@ link register save eliminated.
  81              	.L6:
 116:Core/Src/stm32f4xx_it.c ****   /* USER CODE BEGIN MemoryManagement_IRQn 0 */
 117:Core/Src/stm32f4xx_it.c **** 
 118:Core/Src/stm32f4xx_it.c ****   /* USER CODE END MemoryManagement_IRQn 0 */
 119:Core/Src/stm32f4xx_it.c ****   while (1)
  82              		.loc 1 119 3 discriminator 1 view .LVU9
 120:Core/Src/stm32f4xx_it.c ****   {
 121:Core/Src/stm32f4xx_it.c ****     /* USER CODE BEGIN W1_MemoryManagement_IRQn 0 */
 122:Core/Src/stm32f4xx_it.c ****     /* USER CODE END W1_MemoryManagement_IRQn 0 */
 123:Core/Src/stm32f4xx_it.c ****   }
  83              		.loc 1 123 3 discriminator 1 view .LVU10
 119:Core/Src/stm32f4xx_it.c ****   {
  84              		.loc 1 119 9 discriminator 1 view .LVU11
  85 0000 FEE7     		b	.L6
  86              		.cfi_endproc
  87              	.LFE164:
  89              		.section	.text.BusFault_Handler,"ax",%progbits
  90              		.align	1
  91              		.global	BusFault_Handler
  92              		.syntax unified
  93              		.thumb
  94              		.thumb_func
  96              	BusFault_Handler:
  97              	.LFB165:
 124:Core/Src/stm32f4xx_it.c **** }
 125:Core/Src/stm32f4xx_it.c **** 
 126:Core/Src/stm32f4xx_it.c **** /**
 127:Core/Src/stm32f4xx_it.c ****   * @brief This function handles Pre-fetch fault, memory access fault.
 128:Core/Src/stm32f4xx_it.c ****   */
 129:Core/Src/stm32f4xx_it.c **** void BusFault_Handler(void)
 130:Core/Src/stm32f4xx_it.c **** {
  98              		.loc 1 130 1 view -0
  99              		.cfi_startproc
 100              		@ Volatile: function does not return.
 101              		@ args = 0, pretend = 0, frame = 0
 102              		@ frame_needed = 0, uses_anonymous_args = 0
ARM GAS  C:\Users\purdu\AppData\Local\Temp\ccbDfyie.s 			page 5


 103              		@ link register save eliminated.
 104              	.L8:
 131:Core/Src/stm32f4xx_it.c ****   /* USER CODE BEGIN BusFault_IRQn 0 */
 132:Core/Src/stm32f4xx_it.c **** 
 133:Core/Src/stm32f4xx_it.c ****   /* USER CODE END BusFault_IRQn 0 */
 134:Core/Src/stm32f4xx_it.c ****   while (1)
 105              		.loc 1 134 3 discriminator 1 view .LVU13
 135:Core/Src/stm32f4xx_it.c ****   {
 136:Core/Src/stm32f4xx_it.c ****     /* USER CODE BEGIN W1_BusFault_IRQn 0 */
 137:Core/Src/stm32f4xx_it.c ****     /* USER CODE END W1_BusFault_IRQn 0 */
 138:Core/Src/stm32f4xx_it.c ****   }
 106              		.loc 1 138 3 discriminator 1 view .LVU14
 134:Core/Src/stm32f4xx_it.c ****   {
 107              		.loc 1 134 9 discriminator 1 view .LVU15
 108 0000 FEE7     		b	.L8
 109              		.cfi_endproc
 110              	.LFE165:
 112              		.section	.text.UsageFault_Handler,"ax",%progbits
 113              		.align	1
 114              		.global	UsageFault_Handler
 115              		.syntax unified
 116              		.thumb
 117              		.thumb_func
 119              	UsageFault_Handler:
 120              	.LFB166:
 139:Core/Src/stm32f4xx_it.c **** }
 140:Core/Src/stm32f4xx_it.c **** 
 141:Core/Src/stm32f4xx_it.c **** /**
 142:Core/Src/stm32f4xx_it.c ****   * @brief This function handles Undefined instruction or illegal state.
 143:Core/Src/stm32f4xx_it.c ****   */
 144:Core/Src/stm32f4xx_it.c **** void UsageFault_Handler(void)
 145:Core/Src/stm32f4xx_it.c **** {
 121              		.loc 1 145 1 view -0
 122              		.cfi_startproc
 123              		@ Volatile: function does not return.
 124              		@ args = 0, pretend = 0, frame = 0
 125              		@ frame_needed = 0, uses_anonymous_args = 0
 126              		@ link register save eliminated.
 127              	.L10:
 146:Core/Src/stm32f4xx_it.c ****   /* USER CODE BEGIN UsageFault_IRQn 0 */
 147:Core/Src/stm32f4xx_it.c **** 
 148:Core/Src/stm32f4xx_it.c ****   /* USER CODE END UsageFault_IRQn 0 */
 149:Core/Src/stm32f4xx_it.c ****   while (1)
 128              		.loc 1 149 3 discriminator 1 view .LVU17
 150:Core/Src/stm32f4xx_it.c ****   {
 151:Core/Src/stm32f4xx_it.c ****     /* USER CODE BEGIN W1_UsageFault_IRQn 0 */
 152:Core/Src/stm32f4xx_it.c ****     /* USER CODE END W1_UsageFault_IRQn 0 */
 153:Core/Src/stm32f4xx_it.c ****   }
 129              		.loc 1 153 3 discriminator 1 view .LVU18
 149:Core/Src/stm32f4xx_it.c ****   {
 130              		.loc 1 149 9 discriminator 1 view .LVU19
 131 0000 FEE7     		b	.L10
 132              		.cfi_endproc
 133              	.LFE166:
 135              		.section	.text.DebugMon_Handler,"ax",%progbits
 136              		.align	1
 137              		.global	DebugMon_Handler
ARM GAS  C:\Users\purdu\AppData\Local\Temp\ccbDfyie.s 			page 6


 138              		.syntax unified
 139              		.thumb
 140              		.thumb_func
 142              	DebugMon_Handler:
 143              	.LFB167:
 154:Core/Src/stm32f4xx_it.c **** }
 155:Core/Src/stm32f4xx_it.c **** 
 156:Core/Src/stm32f4xx_it.c **** /**
 157:Core/Src/stm32f4xx_it.c ****   * @brief This function handles Debug monitor.
 158:Core/Src/stm32f4xx_it.c ****   */
 159:Core/Src/stm32f4xx_it.c **** void DebugMon_Handler(void)
 160:Core/Src/stm32f4xx_it.c **** {
 144              		.loc 1 160 1 view -0
 145              		.cfi_startproc
 146              		@ args = 0, pretend = 0, frame = 0
 147              		@ frame_needed = 0, uses_anonymous_args = 0
 148              		@ link register save eliminated.
 161:Core/Src/stm32f4xx_it.c ****   /* USER CODE BEGIN DebugMonitor_IRQn 0 */
 162:Core/Src/stm32f4xx_it.c **** 
 163:Core/Src/stm32f4xx_it.c ****   /* USER CODE END DebugMonitor_IRQn 0 */
 164:Core/Src/stm32f4xx_it.c ****   /* USER CODE BEGIN DebugMonitor_IRQn 1 */
 165:Core/Src/stm32f4xx_it.c **** 
 166:Core/Src/stm32f4xx_it.c ****   /* USER CODE END DebugMonitor_IRQn 1 */
 167:Core/Src/stm32f4xx_it.c **** }
 149              		.loc 1 167 1 view .LVU21
 150 0000 7047     		bx	lr
 151              		.cfi_endproc
 152              	.LFE167:
 154              		.section	.text.DMA1_Stream0_IRQHandler,"ax",%progbits
 155              		.align	1
 156              		.global	DMA1_Stream0_IRQHandler
 157              		.syntax unified
 158              		.thumb
 159              		.thumb_func
 161              	DMA1_Stream0_IRQHandler:
 162              	.LFB168:
 168:Core/Src/stm32f4xx_it.c **** 
 169:Core/Src/stm32f4xx_it.c **** /******************************************************************************/
 170:Core/Src/stm32f4xx_it.c **** /* STM32F4xx Peripheral Interrupt Handlers                                    */
 171:Core/Src/stm32f4xx_it.c **** /* Add here the Interrupt Handlers for the used peripherals.                  */
 172:Core/Src/stm32f4xx_it.c **** /* For the available peripheral interrupt handler names,                      */
 173:Core/Src/stm32f4xx_it.c **** /* please refer to the startup file (startup_stm32f4xx.s).                    */
 174:Core/Src/stm32f4xx_it.c **** /******************************************************************************/
 175:Core/Src/stm32f4xx_it.c **** 
 176:Core/Src/stm32f4xx_it.c **** /**
 177:Core/Src/stm32f4xx_it.c ****   * @brief This function handles DMA1 stream0 global interrupt.
 178:Core/Src/stm32f4xx_it.c ****   */
 179:Core/Src/stm32f4xx_it.c **** void DMA1_Stream0_IRQHandler(void)
 180:Core/Src/stm32f4xx_it.c **** {
 163              		.loc 1 180 1 view -0
 164              		.cfi_startproc
 165              		@ args = 0, pretend = 0, frame = 0
 166              		@ frame_needed = 0, uses_anonymous_args = 0
 167 0000 08B5     		push	{r3, lr}
 168              	.LCFI0:
 169              		.cfi_def_cfa_offset 8
 170              		.cfi_offset 3, -8
ARM GAS  C:\Users\purdu\AppData\Local\Temp\ccbDfyie.s 			page 7


 171              		.cfi_offset 14, -4
 181:Core/Src/stm32f4xx_it.c ****   /* USER CODE BEGIN DMA1_Stream0_IRQn 0 */
 182:Core/Src/stm32f4xx_it.c **** 	
 183:Core/Src/stm32f4xx_it.c ****   /* USER CODE END DMA1_Stream0_IRQn 0 */
 184:Core/Src/stm32f4xx_it.c ****   HAL_DMA_IRQHandler(&hdma_uart8_tx);
 172              		.loc 1 184 3 view .LVU23
 173 0002 0248     		ldr	r0, .L14
 174 0004 FFF7FEFF 		bl	HAL_DMA_IRQHandler
 175              	.LVL0:
 185:Core/Src/stm32f4xx_it.c ****   /* USER CODE BEGIN DMA1_Stream0_IRQn 1 */
 186:Core/Src/stm32f4xx_it.c **** 
 187:Core/Src/stm32f4xx_it.c ****   /* USER CODE END DMA1_Stream0_IRQn 1 */
 188:Core/Src/stm32f4xx_it.c **** }
 176              		.loc 1 188 1 is_stmt 0 view .LVU24
 177 0008 08BD     		pop	{r3, pc}
 178              	.L15:
 179 000a 00BF     		.align	2
 180              	.L14:
 181 000c 00000000 		.word	hdma_uart8_tx
 182              		.cfi_endproc
 183              	.LFE168:
 185              		.section	.text.DMA1_Stream3_IRQHandler,"ax",%progbits
 186              		.align	1
 187              		.global	DMA1_Stream3_IRQHandler
 188              		.syntax unified
 189              		.thumb
 190              		.thumb_func
 192              	DMA1_Stream3_IRQHandler:
 193              	.LFB169:
 189:Core/Src/stm32f4xx_it.c **** 
 190:Core/Src/stm32f4xx_it.c **** /**
 191:Core/Src/stm32f4xx_it.c ****   * @brief This function handles DMA1 stream3 global interrupt.
 192:Core/Src/stm32f4xx_it.c ****   */
 193:Core/Src/stm32f4xx_it.c **** void DMA1_Stream3_IRQHandler(void)
 194:Core/Src/stm32f4xx_it.c **** {
 194              		.loc 1 194 1 is_stmt 1 view -0
 195              		.cfi_startproc
 196              		@ args = 0, pretend = 0, frame = 0
 197              		@ frame_needed = 0, uses_anonymous_args = 0
 198              		@ link register save eliminated.
 195:Core/Src/stm32f4xx_it.c ****   /* USER CODE BEGIN DMA1_Stream3_IRQn 0 */
 196:Core/Src/stm32f4xx_it.c **** 
 197:Core/Src/stm32f4xx_it.c ****   /* USER CODE END DMA1_Stream3_IRQn 0 */
 198:Core/Src/stm32f4xx_it.c ****   /* USER CODE BEGIN DMA1_Stream3_IRQn 1 */
 199:Core/Src/stm32f4xx_it.c **** 
 200:Core/Src/stm32f4xx_it.c ****   /* USER CODE END DMA1_Stream3_IRQn 1 */
 201:Core/Src/stm32f4xx_it.c **** }
 199              		.loc 1 201 1 view .LVU26
 200 0000 7047     		bx	lr
 201              		.cfi_endproc
 202              	.LFE169:
 204              		.section	.text.DMA1_Stream6_IRQHandler,"ax",%progbits
 205              		.align	1
 206              		.global	DMA1_Stream6_IRQHandler
 207              		.syntax unified
 208              		.thumb
 209              		.thumb_func
ARM GAS  C:\Users\purdu\AppData\Local\Temp\ccbDfyie.s 			page 8


 211              	DMA1_Stream6_IRQHandler:
 212              	.LFB170:
 202:Core/Src/stm32f4xx_it.c **** 
 203:Core/Src/stm32f4xx_it.c **** /**
 204:Core/Src/stm32f4xx_it.c ****   * @brief This function handles DMA1 stream6 global interrupt.
 205:Core/Src/stm32f4xx_it.c ****   */
 206:Core/Src/stm32f4xx_it.c **** void DMA1_Stream6_IRQHandler(void)
 207:Core/Src/stm32f4xx_it.c **** {
 213              		.loc 1 207 1 view -0
 214              		.cfi_startproc
 215              		@ args = 0, pretend = 0, frame = 0
 216              		@ frame_needed = 0, uses_anonymous_args = 0
 217 0000 08B5     		push	{r3, lr}
 218              	.LCFI1:
 219              		.cfi_def_cfa_offset 8
 220              		.cfi_offset 3, -8
 221              		.cfi_offset 14, -4
 208:Core/Src/stm32f4xx_it.c ****   /* USER CODE BEGIN DMA1_Stream6_IRQn 0 */
 209:Core/Src/stm32f4xx_it.c **** 
 210:Core/Src/stm32f4xx_it.c ****   /* USER CODE END DMA1_Stream6_IRQn 0 */
 211:Core/Src/stm32f4xx_it.c ****   HAL_DMA_IRQHandler(&hdma_uart8_rx);
 222              		.loc 1 211 3 view .LVU28
 223 0002 0248     		ldr	r0, .L19
 224 0004 FFF7FEFF 		bl	HAL_DMA_IRQHandler
 225              	.LVL1:
 212:Core/Src/stm32f4xx_it.c ****   /* USER CODE BEGIN DMA1_Stream6_IRQn 1 */
 213:Core/Src/stm32f4xx_it.c **** 
 214:Core/Src/stm32f4xx_it.c ****   /* USER CODE END DMA1_Stream6_IRQn 1 */
 215:Core/Src/stm32f4xx_it.c **** }
 226              		.loc 1 215 1 is_stmt 0 view .LVU29
 227 0008 08BD     		pop	{r3, pc}
 228              	.L20:
 229 000a 00BF     		.align	2
 230              	.L19:
 231 000c 00000000 		.word	hdma_uart8_rx
 232              		.cfi_endproc
 233              	.LFE170:
 235              		.section	.text.CAN1_RX0_IRQHandler,"ax",%progbits
 236              		.align	1
 237              		.global	CAN1_RX0_IRQHandler
 238              		.syntax unified
 239              		.thumb
 240              		.thumb_func
 242              	CAN1_RX0_IRQHandler:
 243              	.LFB171:
 216:Core/Src/stm32f4xx_it.c **** 
 217:Core/Src/stm32f4xx_it.c **** /**
 218:Core/Src/stm32f4xx_it.c ****   * @brief This function handles CAN1 RX0 interrupts.
 219:Core/Src/stm32f4xx_it.c ****   */
 220:Core/Src/stm32f4xx_it.c **** void CAN1_RX0_IRQHandler(void)
 221:Core/Src/stm32f4xx_it.c **** {
 244              		.loc 1 221 1 is_stmt 1 view -0
 245              		.cfi_startproc
 246              		@ args = 0, pretend = 0, frame = 0
 247              		@ frame_needed = 0, uses_anonymous_args = 0
 248 0000 08B5     		push	{r3, lr}
 249              	.LCFI2:
ARM GAS  C:\Users\purdu\AppData\Local\Temp\ccbDfyie.s 			page 9


 250              		.cfi_def_cfa_offset 8
 251              		.cfi_offset 3, -8
 252              		.cfi_offset 14, -4
 222:Core/Src/stm32f4xx_it.c ****   /* USER CODE BEGIN CAN1_RX0_IRQn 0 */
 223:Core/Src/stm32f4xx_it.c **** 	if(__HAL_CAN_GET_IT_SOURCE(&hcan1, CAN_IT_RX_FIFO0_MSG_PENDING))
 253              		.loc 1 223 2 view .LVU31
 254              		.loc 1 223 5 is_stmt 0 view .LVU32
 255 0002 074B     		ldr	r3, .L24
 256 0004 1B68     		ldr	r3, [r3]
 257 0006 5B69     		ldr	r3, [r3, #20]
 258              		.loc 1 223 4 view .LVU33
 259 0008 13F0020F 		tst	r3, #2
 260 000c 06D0     		beq	.L21
 224:Core/Src/stm32f4xx_it.c ****   {
 225:Core/Src/stm32f4xx_it.c ****     CAN_Func.CAN_RxMessage_Export_Data(&hcan1, CAN1_ReceiveHandle, CAN1_Type);
 261              		.loc 1 225 5 is_stmt 1 view .LVU34
 262              		.loc 1 225 13 is_stmt 0 view .LVU35
 263 000e 054B     		ldr	r3, .L24+4
 264 0010 5B68     		ldr	r3, [r3, #4]
 265              		.loc 1 225 5 view .LVU36
 266 0012 0122     		movs	r2, #1
 267 0014 0449     		ldr	r1, .L24+8
 268 0016 0968     		ldr	r1, [r1]
 269 0018 0148     		ldr	r0, .L24
 270 001a 9847     		blx	r3
 271              	.LVL2:
 226:Core/Src/stm32f4xx_it.c ****     __HAL_CAN_CLEAR_FLAG(&hcan1, CAN_IT_RX_FIFO0_MSG_PENDING);
 272              		.loc 1 226 5 is_stmt 1 view .LVU37
 273              	.L21:
 227:Core/Src/stm32f4xx_it.c ****   }
 228:Core/Src/stm32f4xx_it.c ****   /* USER CODE END CAN1_RX0_IRQn 0 */
 229:Core/Src/stm32f4xx_it.c ****   /* USER CODE BEGIN CAN1_RX0_IRQn 1 */
 230:Core/Src/stm32f4xx_it.c **** 
 231:Core/Src/stm32f4xx_it.c ****   /* USER CODE END CAN1_RX0_IRQn 1 */
 232:Core/Src/stm32f4xx_it.c **** }
 274              		.loc 1 232 1 is_stmt 0 view .LVU38
 275 001c 08BD     		pop	{r3, pc}
 276              	.L25:
 277 001e 00BF     		.align	2
 278              	.L24:
 279 0020 00000000 		.word	hcan1
 280 0024 00000000 		.word	CAN_Func
 281 0028 00000000 		.word	CAN1_ReceiveHandle
 282              		.cfi_endproc
 283              	.LFE171:
 285              		.section	.text.USART1_IRQHandler,"ax",%progbits
 286              		.align	1
 287              		.global	USART1_IRQHandler
 288              		.syntax unified
 289              		.thumb
 290              		.thumb_func
 292              	USART1_IRQHandler:
 293              	.LFB172:
 233:Core/Src/stm32f4xx_it.c **** 
 234:Core/Src/stm32f4xx_it.c **** /**
 235:Core/Src/stm32f4xx_it.c ****   * @brief This function handles USART1 global interrupt.
 236:Core/Src/stm32f4xx_it.c ****   */
ARM GAS  C:\Users\purdu\AppData\Local\Temp\ccbDfyie.s 			page 10


 237:Core/Src/stm32f4xx_it.c **** void USART1_IRQHandler(void)
 238:Core/Src/stm32f4xx_it.c **** {
 294              		.loc 1 238 1 is_stmt 1 view -0
 295              		.cfi_startproc
 296              		@ args = 0, pretend = 0, frame = 8
 297              		@ frame_needed = 0, uses_anonymous_args = 0
 239:Core/Src/stm32f4xx_it.c ****   /* USER CODE BEGIN USART1_IRQn 0 */
 240:Core/Src/stm32f4xx_it.c **** 	if (__HAL_UART_GET_FLAG(&huart1, UART_FLAG_IDLE) && __HAL_UART_GET_IT_SOURCE(&huart1, UART_IT_IDLE
 298              		.loc 1 240 2 view .LVU40
 299              		.loc 1 240 6 is_stmt 0 view .LVU41
 300 0000 0D4B     		ldr	r3, .L32
 301 0002 1B68     		ldr	r3, [r3]
 302 0004 1A68     		ldr	r2, [r3]
 303              		.loc 1 240 5 view .LVU42
 304 0006 12F0100F 		tst	r2, #16
 305 000a 14D0     		beq	.L29
 306              		.loc 1 240 54 discriminator 1 view .LVU43
 307 000c DB68     		ldr	r3, [r3, #12]
 308              		.loc 1 240 51 discriminator 1 view .LVU44
 309 000e 13F0100F 		tst	r3, #16
 310 0012 10D0     		beq	.L29
 238:Core/Src/stm32f4xx_it.c ****   /* USER CODE BEGIN USART1_IRQn 0 */
 311              		.loc 1 238 1 view .LVU45
 312 0014 10B5     		push	{r4, lr}
 313              	.LCFI3:
 314              		.cfi_def_cfa_offset 8
 315              		.cfi_offset 4, -8
 316              		.cfi_offset 14, -4
 317 0016 82B0     		sub	sp, sp, #8
 318              	.LCFI4:
 319              		.cfi_def_cfa_offset 16
 241:Core/Src/stm32f4xx_it.c ****   {
 242:Core/Src/stm32f4xx_it.c **** 		DR16_Func.DR16_Handler(&huart1);
 320              		.loc 1 242 3 is_stmt 1 view .LVU46
 321              		.loc 1 242 12 is_stmt 0 view .LVU47
 322 0018 084B     		ldr	r3, .L32+4
 323 001a 1B68     		ldr	r3, [r3]
 324              		.loc 1 242 3 view .LVU48
 325 001c 064C     		ldr	r4, .L32
 326 001e 2046     		mov	r0, r4
 327 0020 9847     		blx	r3
 328              	.LVL3:
 243:Core/Src/stm32f4xx_it.c ****     __HAL_UART_CLEAR_IDLEFLAG(&huart1);
 329              		.loc 1 243 5 is_stmt 1 view .LVU49
 330              	.LBB2:
 331              		.loc 1 243 5 view .LVU50
 332 0022 0023     		movs	r3, #0
 333 0024 0193     		str	r3, [sp, #4]
 334              		.loc 1 243 5 view .LVU51
 335 0026 2368     		ldr	r3, [r4]
 336 0028 1A68     		ldr	r2, [r3]
 337 002a 0192     		str	r2, [sp, #4]
 338              		.loc 1 243 5 view .LVU52
 339 002c 5B68     		ldr	r3, [r3, #4]
 340 002e 0193     		str	r3, [sp, #4]
 341              		.loc 1 243 5 view .LVU53
 342 0030 019B     		ldr	r3, [sp, #4]
ARM GAS  C:\Users\purdu\AppData\Local\Temp\ccbDfyie.s 			page 11


 343              	.LBE2:
 344              		.loc 1 243 5 view .LVU54
 244:Core/Src/stm32f4xx_it.c ****   }
 245:Core/Src/stm32f4xx_it.c ****   /* USER CODE END USART1_IRQn 0 */
 246:Core/Src/stm32f4xx_it.c ****   /* USER CODE BEGIN USART1_IRQn 1 */
 247:Core/Src/stm32f4xx_it.c **** 
 248:Core/Src/stm32f4xx_it.c ****   /* USER CODE END USART1_IRQn 1 */
 249:Core/Src/stm32f4xx_it.c **** }
 345              		.loc 1 249 1 is_stmt 0 view .LVU55
 346 0032 02B0     		add	sp, sp, #8
 347              	.LCFI5:
 348              		.cfi_def_cfa_offset 8
 349              		@ sp needed
 350 0034 10BD     		pop	{r4, pc}
 351              	.L29:
 352              	.LCFI6:
 353              		.cfi_def_cfa_offset 0
 354              		.cfi_restore 4
 355              		.cfi_restore 14
 356 0036 7047     		bx	lr
 357              	.L33:
 358              		.align	2
 359              	.L32:
 360 0038 00000000 		.word	huart1
 361 003c 00000000 		.word	DR16_Func
 362              		.cfi_endproc
 363              	.LFE172:
 365              		.section	.text.TIM6_DAC_IRQHandler,"ax",%progbits
 366              		.align	1
 367              		.global	TIM6_DAC_IRQHandler
 368              		.syntax unified
 369              		.thumb
 370              		.thumb_func
 372              	TIM6_DAC_IRQHandler:
 373              	.LFB173:
 250:Core/Src/stm32f4xx_it.c **** 
 251:Core/Src/stm32f4xx_it.c **** /**
 252:Core/Src/stm32f4xx_it.c ****   * @brief This function handles TIM6 global interrupt, DAC1 and DAC2 underrun error interrupts.
 253:Core/Src/stm32f4xx_it.c ****   */
 254:Core/Src/stm32f4xx_it.c **** void TIM6_DAC_IRQHandler(void)
 255:Core/Src/stm32f4xx_it.c **** {
 374              		.loc 1 255 1 is_stmt 1 view -0
 375              		.cfi_startproc
 376              		@ args = 0, pretend = 0, frame = 0
 377              		@ frame_needed = 0, uses_anonymous_args = 0
 378 0000 08B5     		push	{r3, lr}
 379              	.LCFI7:
 380              		.cfi_def_cfa_offset 8
 381              		.cfi_offset 3, -8
 382              		.cfi_offset 14, -4
 256:Core/Src/stm32f4xx_it.c ****   /* USER CODE BEGIN TIM6_DAC_IRQn 0 */
 257:Core/Src/stm32f4xx_it.c **** 
 258:Core/Src/stm32f4xx_it.c ****   /* USER CODE END TIM6_DAC_IRQn 0 */
 259:Core/Src/stm32f4xx_it.c ****   HAL_TIM_IRQHandler(&htim6);
 383              		.loc 1 259 3 view .LVU57
 384 0002 0248     		ldr	r0, .L36
 385 0004 FFF7FEFF 		bl	HAL_TIM_IRQHandler
ARM GAS  C:\Users\purdu\AppData\Local\Temp\ccbDfyie.s 			page 12


 386              	.LVL4:
 260:Core/Src/stm32f4xx_it.c ****   /* USER CODE BEGIN TIM6_DAC_IRQn 1 */
 261:Core/Src/stm32f4xx_it.c **** 
 262:Core/Src/stm32f4xx_it.c ****   /* USER CODE END TIM6_DAC_IRQn 1 */
 263:Core/Src/stm32f4xx_it.c **** }
 387              		.loc 1 263 1 is_stmt 0 view .LVU58
 388 0008 08BD     		pop	{r3, pc}
 389              	.L37:
 390 000a 00BF     		.align	2
 391              	.L36:
 392 000c 00000000 		.word	htim6
 393              		.cfi_endproc
 394              	.LFE173:
 396              		.section	.text.DMA2_Stream1_IRQHandler,"ax",%progbits
 397              		.align	1
 398              		.global	DMA2_Stream1_IRQHandler
 399              		.syntax unified
 400              		.thumb
 401              		.thumb_func
 403              	DMA2_Stream1_IRQHandler:
 404              	.LFB174:
 264:Core/Src/stm32f4xx_it.c **** 
 265:Core/Src/stm32f4xx_it.c **** /**
 266:Core/Src/stm32f4xx_it.c ****   * @brief This function handles DMA2 stream1 global interrupt.
 267:Core/Src/stm32f4xx_it.c ****   */
 268:Core/Src/stm32f4xx_it.c **** void DMA2_Stream1_IRQHandler(void)
 269:Core/Src/stm32f4xx_it.c **** {
 405              		.loc 1 269 1 is_stmt 1 view -0
 406              		.cfi_startproc
 407              		@ args = 0, pretend = 0, frame = 0
 408              		@ frame_needed = 0, uses_anonymous_args = 0
 409              		@ link register save eliminated.
 270:Core/Src/stm32f4xx_it.c ****   /* USER CODE BEGIN DMA2_Stream1_IRQn 0 */
 271:Core/Src/stm32f4xx_it.c **** 
 272:Core/Src/stm32f4xx_it.c ****   /* USER CODE END DMA2_Stream1_IRQn 0 */
 273:Core/Src/stm32f4xx_it.c ****   /* USER CODE BEGIN DMA2_Stream1_IRQn 1 */
 274:Core/Src/stm32f4xx_it.c **** 
 275:Core/Src/stm32f4xx_it.c ****   /* USER CODE END DMA2_Stream1_IRQn 1 */
 276:Core/Src/stm32f4xx_it.c **** }
 410              		.loc 1 276 1 view .LVU60
 411 0000 7047     		bx	lr
 412              		.cfi_endproc
 413              	.LFE174:
 415              		.section	.text.DMA2_Stream2_IRQHandler,"ax",%progbits
 416              		.align	1
 417              		.global	DMA2_Stream2_IRQHandler
 418              		.syntax unified
 419              		.thumb
 420              		.thumb_func
 422              	DMA2_Stream2_IRQHandler:
 423              	.LFB175:
 277:Core/Src/stm32f4xx_it.c **** 
 278:Core/Src/stm32f4xx_it.c **** /**
 279:Core/Src/stm32f4xx_it.c ****   * @brief This function handles DMA2 stream2 global interrupt.
 280:Core/Src/stm32f4xx_it.c ****   */
 281:Core/Src/stm32f4xx_it.c **** void DMA2_Stream2_IRQHandler(void)
 282:Core/Src/stm32f4xx_it.c **** {
ARM GAS  C:\Users\purdu\AppData\Local\Temp\ccbDfyie.s 			page 13


 424              		.loc 1 282 1 view -0
 425              		.cfi_startproc
 426              		@ args = 0, pretend = 0, frame = 0
 427              		@ frame_needed = 0, uses_anonymous_args = 0
 428              		@ link register save eliminated.
 283:Core/Src/stm32f4xx_it.c ****   /* USER CODE BEGIN DMA2_Stream2_IRQn 0 */
 284:Core/Src/stm32f4xx_it.c **** 
 285:Core/Src/stm32f4xx_it.c ****   /* USER CODE END DMA2_Stream2_IRQn 0 */
 286:Core/Src/stm32f4xx_it.c ****   /* USER CODE BEGIN DMA2_Stream2_IRQn 1 */
 287:Core/Src/stm32f4xx_it.c **** 
 288:Core/Src/stm32f4xx_it.c ****   /* USER CODE END DMA2_Stream2_IRQn 1 */
 289:Core/Src/stm32f4xx_it.c **** }
 429              		.loc 1 289 1 view .LVU62
 430 0000 7047     		bx	lr
 431              		.cfi_endproc
 432              	.LFE175:
 434              		.section	.text.CAN2_RX0_IRQHandler,"ax",%progbits
 435              		.align	1
 436              		.global	CAN2_RX0_IRQHandler
 437              		.syntax unified
 438              		.thumb
 439              		.thumb_func
 441              	CAN2_RX0_IRQHandler:
 442              	.LFB176:
 290:Core/Src/stm32f4xx_it.c **** 
 291:Core/Src/stm32f4xx_it.c **** /**
 292:Core/Src/stm32f4xx_it.c ****   * @brief This function handles CAN2 RX0 interrupts.
 293:Core/Src/stm32f4xx_it.c ****   */
 294:Core/Src/stm32f4xx_it.c **** void CAN2_RX0_IRQHandler(void)
 295:Core/Src/stm32f4xx_it.c **** {
 443              		.loc 1 295 1 view -0
 444              		.cfi_startproc
 445              		@ args = 0, pretend = 0, frame = 0
 446              		@ frame_needed = 0, uses_anonymous_args = 0
 447 0000 08B5     		push	{r3, lr}
 448              	.LCFI8:
 449              		.cfi_def_cfa_offset 8
 450              		.cfi_offset 3, -8
 451              		.cfi_offset 14, -4
 296:Core/Src/stm32f4xx_it.c ****   /* USER CODE BEGIN CAN2_RX0_IRQn 0 */
 297:Core/Src/stm32f4xx_it.c **** 	if (__HAL_CAN_GET_IT_SOURCE(&hcan2, CAN_IT_RX_FIFO0_MSG_PENDING))
 452              		.loc 1 297 2 view .LVU64
 453              		.loc 1 297 6 is_stmt 0 view .LVU65
 454 0002 074B     		ldr	r3, .L43
 455 0004 1B68     		ldr	r3, [r3]
 456 0006 5B69     		ldr	r3, [r3, #20]
 457              		.loc 1 297 5 view .LVU66
 458 0008 13F0020F 		tst	r3, #2
 459 000c 06D0     		beq	.L40
 298:Core/Src/stm32f4xx_it.c ****   {
 299:Core/Src/stm32f4xx_it.c **** 		CAN_Func.CAN_RxMessage_Export_Data(&hcan2, CAN2_ReceiveHandle, CAN2_Type);
 460              		.loc 1 299 3 is_stmt 1 view .LVU67
 461              		.loc 1 299 11 is_stmt 0 view .LVU68
 462 000e 054B     		ldr	r3, .L43+4
 463 0010 5B68     		ldr	r3, [r3, #4]
 464              		.loc 1 299 3 view .LVU69
 465 0012 0222     		movs	r2, #2
ARM GAS  C:\Users\purdu\AppData\Local\Temp\ccbDfyie.s 			page 14


 466 0014 0449     		ldr	r1, .L43+8
 467 0016 0968     		ldr	r1, [r1]
 468 0018 0148     		ldr	r0, .L43
 469 001a 9847     		blx	r3
 470              	.LVL5:
 300:Core/Src/stm32f4xx_it.c ****     __HAL_CAN_CLEAR_FLAG(&hcan2, CAN_IT_RX_FIFO0_MSG_PENDING);
 471              		.loc 1 300 5 is_stmt 1 view .LVU70
 472              	.L40:
 301:Core/Src/stm32f4xx_it.c ****   }
 302:Core/Src/stm32f4xx_it.c ****   /* USER CODE END CAN2_RX0_IRQn 0 */
 303:Core/Src/stm32f4xx_it.c ****   /* USER CODE BEGIN CAN2_RX0_IRQn 1 */
 304:Core/Src/stm32f4xx_it.c **** 
 305:Core/Src/stm32f4xx_it.c ****   /* USER CODE END CAN2_RX0_IRQn 1 */
 306:Core/Src/stm32f4xx_it.c **** }
 473              		.loc 1 306 1 is_stmt 0 view .LVU71
 474 001c 08BD     		pop	{r3, pc}
 475              	.L44:
 476 001e 00BF     		.align	2
 477              	.L43:
 478 0020 00000000 		.word	hcan2
 479 0024 00000000 		.word	CAN_Func
 480 0028 00000000 		.word	CAN2_ReceiveHandle
 481              		.cfi_endproc
 482              	.LFE176:
 484              		.section	.text.USART6_IRQHandler,"ax",%progbits
 485              		.align	1
 486              		.global	USART6_IRQHandler
 487              		.syntax unified
 488              		.thumb
 489              		.thumb_func
 491              	USART6_IRQHandler:
 492              	.LFB177:
 307:Core/Src/stm32f4xx_it.c **** 
 308:Core/Src/stm32f4xx_it.c **** /**
 309:Core/Src/stm32f4xx_it.c ****   * @brief This function handles USART6 global interrupt.
 310:Core/Src/stm32f4xx_it.c ****   */
 311:Core/Src/stm32f4xx_it.c **** void USART6_IRQHandler(void)
 312:Core/Src/stm32f4xx_it.c **** {
 493              		.loc 1 312 1 is_stmt 1 view -0
 494              		.cfi_startproc
 495              		@ args = 0, pretend = 0, frame = 8
 496              		@ frame_needed = 0, uses_anonymous_args = 0
 313:Core/Src/stm32f4xx_it.c ****   /* USER CODE BEGIN USART6_IRQn 0 */
 314:Core/Src/stm32f4xx_it.c **** 	 if (__HAL_UART_GET_FLAG(&huart6, UART_FLAG_IDLE) && __HAL_UART_GET_IT_SOURCE(&huart6, UART_IT_IDL
 497              		.loc 1 314 3 view .LVU73
 498              		.loc 1 314 7 is_stmt 0 view .LVU74
 499 0000 0D4B     		ldr	r3, .L51
 500 0002 1B68     		ldr	r3, [r3]
 501 0004 1A68     		ldr	r2, [r3]
 502              		.loc 1 314 6 view .LVU75
 503 0006 12F0100F 		tst	r2, #16
 504 000a 14D0     		beq	.L48
 505              		.loc 1 314 55 discriminator 1 view .LVU76
 506 000c DB68     		ldr	r3, [r3, #12]
 507              		.loc 1 314 52 discriminator 1 view .LVU77
 508 000e 13F0100F 		tst	r3, #16
 509 0012 10D0     		beq	.L48
ARM GAS  C:\Users\purdu\AppData\Local\Temp\ccbDfyie.s 			page 15


 312:Core/Src/stm32f4xx_it.c ****   /* USER CODE BEGIN USART6_IRQn 0 */
 510              		.loc 1 312 1 view .LVU78
 511 0014 10B5     		push	{r4, lr}
 512              	.LCFI9:
 513              		.cfi_def_cfa_offset 8
 514              		.cfi_offset 4, -8
 515              		.cfi_offset 14, -4
 516 0016 82B0     		sub	sp, sp, #8
 517              	.LCFI10:
 518              		.cfi_def_cfa_offset 16
 315:Core/Src/stm32f4xx_it.c ****    {
 316:Core/Src/stm32f4xx_it.c **** 			Referee_System_Func.Referee_System_Handler(&huart6);
 519              		.loc 1 316 4 is_stmt 1 view .LVU79
 520              		.loc 1 316 23 is_stmt 0 view .LVU80
 521 0018 084B     		ldr	r3, .L51+4
 522 001a 5B68     		ldr	r3, [r3, #4]
 523              		.loc 1 316 4 view .LVU81
 524 001c 064C     		ldr	r4, .L51
 525 001e 2046     		mov	r0, r4
 526 0020 9847     		blx	r3
 527              	.LVL6:
 317:Core/Src/stm32f4xx_it.c **** 			__HAL_UART_CLEAR_IDLEFLAG(&huart6);
 528              		.loc 1 317 4 is_stmt 1 view .LVU82
 529              	.LBB3:
 530              		.loc 1 317 4 view .LVU83
 531 0022 0023     		movs	r3, #0
 532 0024 0193     		str	r3, [sp, #4]
 533              		.loc 1 317 4 view .LVU84
 534 0026 2368     		ldr	r3, [r4]
 535 0028 1A68     		ldr	r2, [r3]
 536 002a 0192     		str	r2, [sp, #4]
 537              		.loc 1 317 4 view .LVU85
 538 002c 5B68     		ldr	r3, [r3, #4]
 539 002e 0193     		str	r3, [sp, #4]
 540              		.loc 1 317 4 view .LVU86
 541 0030 019B     		ldr	r3, [sp, #4]
 542              	.LBE3:
 543              		.loc 1 317 4 view .LVU87
 318:Core/Src/stm32f4xx_it.c ****    }
 319:Core/Src/stm32f4xx_it.c ****   /* USER CODE END USART6_IRQn 0 */
 320:Core/Src/stm32f4xx_it.c ****   /* USER CODE BEGIN USART6_IRQn 1 */
 321:Core/Src/stm32f4xx_it.c **** 
 322:Core/Src/stm32f4xx_it.c ****   /* USER CODE END USART6_IRQn 1 */
 323:Core/Src/stm32f4xx_it.c **** }
 544              		.loc 1 323 1 is_stmt 0 view .LVU88
 545 0032 02B0     		add	sp, sp, #8
 546              	.LCFI11:
 547              		.cfi_def_cfa_offset 8
 548              		@ sp needed
 549 0034 10BD     		pop	{r4, pc}
 550              	.L48:
 551              	.LCFI12:
 552              		.cfi_def_cfa_offset 0
 553              		.cfi_restore 4
 554              		.cfi_restore 14
 555 0036 7047     		bx	lr
 556              	.L52:
ARM GAS  C:\Users\purdu\AppData\Local\Temp\ccbDfyie.s 			page 16


 557              		.align	2
 558              	.L51:
 559 0038 00000000 		.word	huart6
 560 003c 00000000 		.word	Referee_System_Func
 561              		.cfi_endproc
 562              	.LFE177:
 564              		.section	.text.UART7_IRQHandler,"ax",%progbits
 565              		.align	1
 566              		.global	UART7_IRQHandler
 567              		.syntax unified
 568              		.thumb
 569              		.thumb_func
 571              	UART7_IRQHandler:
 572              	.LFB178:
 324:Core/Src/stm32f4xx_it.c **** 
 325:Core/Src/stm32f4xx_it.c **** /**
 326:Core/Src/stm32f4xx_it.c ****   * @brief This function handles UART7 global interrupt.
 327:Core/Src/stm32f4xx_it.c ****   */
 328:Core/Src/stm32f4xx_it.c **** void UART7_IRQHandler(void)
 329:Core/Src/stm32f4xx_it.c **** {
 573              		.loc 1 329 1 is_stmt 1 view -0
 574              		.cfi_startproc
 575              		@ args = 0, pretend = 0, frame = 8
 576              		@ frame_needed = 0, uses_anonymous_args = 0
 330:Core/Src/stm32f4xx_it.c ****   /* USER CODE BEGIN UART7_IRQn 0 */
 331:Core/Src/stm32f4xx_it.c ****   if (__HAL_UART_GET_FLAG(&huart7, UART_FLAG_IDLE) && __HAL_UART_GET_IT_SOURCE(&huart7, UART_IT_IDL
 577              		.loc 1 331 3 view .LVU90
 578              		.loc 1 331 7 is_stmt 0 view .LVU91
 579 0000 0D4B     		ldr	r3, .L59
 580 0002 1B68     		ldr	r3, [r3]
 581 0004 1A68     		ldr	r2, [r3]
 582              		.loc 1 331 6 view .LVU92
 583 0006 12F0100F 		tst	r2, #16
 584 000a 14D0     		beq	.L56
 585              		.loc 1 331 55 discriminator 1 view .LVU93
 586 000c DB68     		ldr	r3, [r3, #12]
 587              		.loc 1 331 52 discriminator 1 view .LVU94
 588 000e 13F0100F 		tst	r3, #16
 589 0012 10D0     		beq	.L56
 329:Core/Src/stm32f4xx_it.c ****   /* USER CODE BEGIN UART7_IRQn 0 */
 590              		.loc 1 329 1 view .LVU95
 591 0014 10B5     		push	{r4, lr}
 592              	.LCFI13:
 593              		.cfi_def_cfa_offset 8
 594              		.cfi_offset 4, -8
 595              		.cfi_offset 14, -4
 596 0016 82B0     		sub	sp, sp, #8
 597              	.LCFI14:
 598              		.cfi_def_cfa_offset 16
 332:Core/Src/stm32f4xx_it.c ****   {
 333:Core/Src/stm32f4xx_it.c **** 		Control_Board_A_Func.Board_A_Handler(&huart7);
 599              		.loc 1 333 3 is_stmt 1 view .LVU96
 600              		.loc 1 333 23 is_stmt 0 view .LVU97
 601 0018 084B     		ldr	r3, .L59+4
 602 001a 9B68     		ldr	r3, [r3, #8]
 603              		.loc 1 333 3 view .LVU98
 604 001c 064C     		ldr	r4, .L59
ARM GAS  C:\Users\purdu\AppData\Local\Temp\ccbDfyie.s 			page 17


 605 001e 2046     		mov	r0, r4
 606 0020 9847     		blx	r3
 607              	.LVL7:
 334:Core/Src/stm32f4xx_it.c ****     __HAL_UART_CLEAR_IDLEFLAG(&huart7);
 608              		.loc 1 334 5 is_stmt 1 view .LVU99
 609              	.LBB4:
 610              		.loc 1 334 5 view .LVU100
 611 0022 0023     		movs	r3, #0
 612 0024 0193     		str	r3, [sp, #4]
 613              		.loc 1 334 5 view .LVU101
 614 0026 2368     		ldr	r3, [r4]
 615 0028 1A68     		ldr	r2, [r3]
 616 002a 0192     		str	r2, [sp, #4]
 617              		.loc 1 334 5 view .LVU102
 618 002c 5B68     		ldr	r3, [r3, #4]
 619 002e 0193     		str	r3, [sp, #4]
 620              		.loc 1 334 5 view .LVU103
 621 0030 019B     		ldr	r3, [sp, #4]
 622              	.LBE4:
 623              		.loc 1 334 5 view .LVU104
 335:Core/Src/stm32f4xx_it.c ****   }
 336:Core/Src/stm32f4xx_it.c ****   /* USER CODE END UART7_IRQn 0 */
 337:Core/Src/stm32f4xx_it.c ****   /* USER CODE BEGIN UART7_IRQn 1 */
 338:Core/Src/stm32f4xx_it.c **** 
 339:Core/Src/stm32f4xx_it.c ****   /* USER CODE END UART7_IRQn 1 */
 340:Core/Src/stm32f4xx_it.c **** }
 624              		.loc 1 340 1 is_stmt 0 view .LVU105
 625 0032 02B0     		add	sp, sp, #8
 626              	.LCFI15:
 627              		.cfi_def_cfa_offset 8
 628              		@ sp needed
 629 0034 10BD     		pop	{r4, pc}
 630              	.L56:
 631              	.LCFI16:
 632              		.cfi_def_cfa_offset 0
 633              		.cfi_restore 4
 634              		.cfi_restore 14
 635 0036 7047     		bx	lr
 636              	.L60:
 637              		.align	2
 638              	.L59:
 639 0038 00000000 		.word	huart7
 640 003c 00000000 		.word	Control_Board_A_Func
 641              		.cfi_endproc
 642              	.LFE178:
 644              		.text
 645              	.Letext0:
 646              		.file 2 "c:\\msys64\\mingw64\\arm-none-eabi\\include\\machine\\_default_types.h"
 647              		.file 3 "c:\\msys64\\mingw64\\arm-none-eabi\\include\\sys\\_stdint.h"
 648              		.file 4 "Drivers/CMSIS/Device/ST/STM32F4xx/Include/stm32f427xx.h"
 649              		.file 5 "Drivers/CMSIS/Device/ST/STM32F4xx/Include/stm32f4xx.h"
 650              		.file 6 "Drivers/STM32F4xx_HAL_Driver/Inc/stm32f4xx_hal_def.h"
 651              		.file 7 "Drivers/STM32F4xx_HAL_Driver/Inc/stm32f4xx_hal_dma.h"
 652              		.file 8 "Drivers/STM32F4xx_HAL_Driver/Inc/stm32f4xx_hal_can.h"
 653              		.file 9 "Drivers/STM32F4xx_HAL_Driver/Inc/stm32f4xx_hal_tim.h"
 654              		.file 10 "Drivers/STM32F4xx_HAL_Driver/Inc/stm32f4xx_hal_uart.h"
 655              		.file 11 "Core/Inc/usart.h"
ARM GAS  C:\Users\purdu\AppData\Local\Temp\ccbDfyie.s 			page 18


 656              		.file 12 "Devices/Devices.h/DR16_Remote.h"
 657              		.file 13 "Core/Inc/can.h"
 658              		.file 14 "Middlewares/Third_Party/FreeRTOS/Source/include/queue.h"
 659              		.file 15 "Middlewares/Third_Party/FreeRTOS/Source/CMSIS_RTOS/cmsis_os.h"
 660              		.file 16 "BSP/BSP.h/CAN_Setup.h"
 661              		.file 17 "Devices/Devices.h/Referee_System.h"
 662              		.file 18 "Devices/Devices.h/Control_Board_A.h"
ARM GAS  C:\Users\purdu\AppData\Local\Temp\ccbDfyie.s 			page 19

