ARM GAS  C:\Users\purdu\AppData\Local\Temp\ccP1UZx1.s 			page 1


   1              		.cpu cortex-m4
   2              		.arch armv7e-m
   3              		.fpu fpv4-sp-d16
   4              		.eabi_attribute 27, 1
   5              		.eabi_attribute 28, 1
   6              		.eabi_attribute 20, 1
   7              		.eabi_attribute 21, 1
   8              		.eabi_attribute 23, 3
   9              		.eabi_attribute 24, 1
  10              		.eabi_attribute 25, 1
  11              		.eabi_attribute 26, 1
  12              		.eabi_attribute 30, 1
  13              		.eabi_attribute 34, 1
  14              		.eabi_attribute 18, 4
  15              		.file	"User_Interface.c"
  16              		.text
  17              	.Ltext0:
  18              		.cfi_sections	.debug_frame
  19              		.file 1 "HigherLevelApps/HigherLevelApps.c/User_Interface.c"
  20              		.section	.text.UI_Initialization,"ax",%progbits
  21              		.align	1
  22              		.global	UI_Initialization
  23              		.syntax unified
  24              		.thumb
  25              		.thumb_func
  27              	UI_Initialization:
  28              	.LFB138:
   1:HigherLevelApps/HigherLevelApps.c/User_Interface.c **** /**
   2:HigherLevelApps/HigherLevelApps.c/User_Interface.c ****  * @file User_Interface.c
   3:HigherLevelApps/HigherLevelApps.c/User_Interface.c ****  * @author Rongbo Hu
   4:HigherLevelApps/HigherLevelApps.c/User_Interface.c ****  * @brief Draw Referee UI
   5:HigherLevelApps/HigherLevelApps.c/User_Interface.c ****  * @version 1.0
   6:HigherLevelApps/HigherLevelApps.c/User_Interface.c ****  * @date 2023-07-06
   7:HigherLevelApps/HigherLevelApps.c/User_Interface.c ****  * 
   8:HigherLevelApps/HigherLevelApps.c/User_Interface.c ****  * @copyright Copyright (c) 2023
   9:HigherLevelApps/HigherLevelApps.c/User_Interface.c ****  * 
  10:HigherLevelApps/HigherLevelApps.c/User_Interface.c ****  */
  11:HigherLevelApps/HigherLevelApps.c/User_Interface.c ****  
  12:HigherLevelApps/HigherLevelApps.c/User_Interface.c **** #include "User_Interface.h"
  13:HigherLevelApps/HigherLevelApps.c/User_Interface.c **** 
  14:HigherLevelApps/HigherLevelApps.c/User_Interface.c **** UI_Init_OneGraphics AimingSystem;
  15:HigherLevelApps/HigherLevelApps.c/User_Interface.c **** UI_Init_CharacterGraphics TextSystem;
  16:HigherLevelApps/HigherLevelApps.c/User_Interface.c **** UI_t UI;
  17:HigherLevelApps/HigherLevelApps.c/User_Interface.c **** 
  18:HigherLevelApps/HigherLevelApps.c/User_Interface.c **** uint8_t TextInit[30] = {0};
  19:HigherLevelApps/HigherLevelApps.c/User_Interface.c **** //User Interface Application///////////////////////////////////////////////////////////////////////
  20:HigherLevelApps/HigherLevelApps.c/User_Interface.c **** 
  21:HigherLevelApps/HigherLevelApps.c/User_Interface.c **** void UI_Initialization(void)
  22:HigherLevelApps/HigherLevelApps.c/User_Interface.c **** {
  29              		.loc 1 22 1 view -0
  30              		.cfi_startproc
  31              		@ args = 0, pretend = 0, frame = 0
  32              		@ frame_needed = 0, uses_anonymous_args = 0
  33              		@ link register save eliminated.
  23:HigherLevelApps/HigherLevelApps.c/User_Interface.c **** 	UI.Text_Location.Text_1_X = 16.5; //Text 1-> Cap
  34              		.loc 1 23 2 view .LVU1
  35              		.loc 1 23 28 is_stmt 0 view .LVU2
ARM GAS  C:\Users\purdu\AppData\Local\Temp\ccP1UZx1.s 			page 2


  36 0000 064B     		ldr	r3, .L2
  37 0002 074A     		ldr	r2, .L2+4
  38 0004 9A60     		str	r2, [r3, #8]	@ float
  24:HigherLevelApps/HigherLevelApps.c/User_Interface.c **** 	UI.Text_Location.Text_1_Y = 4;
  39              		.loc 1 24 2 is_stmt 1 view .LVU3
  40              		.loc 1 24 28 is_stmt 0 view .LVU4
  41 0006 4FF08142 		mov	r2, #1082130432
  42 000a DA60     		str	r2, [r3, #12]	@ float
  25:HigherLevelApps/HigherLevelApps.c/User_Interface.c **** 	UI.Text_Location.Text_2_X = 25;  //Text 2-> Auto
  43              		.loc 1 25 2 is_stmt 1 view .LVU5
  44              		.loc 1 25 28 is_stmt 0 view .LVU6
  45 000c 054A     		ldr	r2, .L2+8
  46 000e 1A61     		str	r2, [r3, #16]	@ float
  26:HigherLevelApps/HigherLevelApps.c/User_Interface.c **** 	UI.Text_Location.Text_2_Y = 15;
  47              		.loc 1 26 2 is_stmt 1 view .LVU7
  48              		.loc 1 26 28 is_stmt 0 view .LVU8
  49 0010 0549     		ldr	r1, .L2+12
  50 0012 5961     		str	r1, [r3, #20]	@ float
  27:HigherLevelApps/HigherLevelApps.c/User_Interface.c **** 	UI.Text_Location.Text_3_X = 25; //Text 3-> State
  51              		.loc 1 27 2 is_stmt 1 view .LVU9
  52              		.loc 1 27 28 is_stmt 0 view .LVU10
  53 0014 9A61     		str	r2, [r3, #24]	@ float
  28:HigherLevelApps/HigherLevelApps.c/User_Interface.c **** 	UI.Text_Location.Text_3_Y = 14;
  54              		.loc 1 28 2 is_stmt 1 view .LVU11
  55              		.loc 1 28 28 is_stmt 0 view .LVU12
  56 0016 054A     		ldr	r2, .L2+16
  57 0018 DA61     		str	r2, [r3, #28]	@ float
  29:HigherLevelApps/HigherLevelApps.c/User_Interface.c **** }
  58              		.loc 1 29 1 view .LVU13
  59 001a 7047     		bx	lr
  60              	.L3:
  61              		.align	2
  62              	.L2:
  63 001c 00000000 		.word	UI
  64 0020 00008441 		.word	1099169792
  65 0024 0000C841 		.word	1103626240
  66 0028 00007041 		.word	1097859072
  67 002c 00006041 		.word	1096810496
  68              		.cfi_endproc
  69              	.LFE138:
  71              		.section	.text.UI_Add_Frame_And_Data_Header_OneGraphics,"ax",%progbits
  72              		.align	1
  73              		.global	UI_Add_Frame_And_Data_Header_OneGraphics
  74              		.syntax unified
  75              		.thumb
  76              		.thumb_func
  78              	UI_Add_Frame_And_Data_Header_OneGraphics:
  79              	.LVL0:
  80              	.LFB145:
  30:HigherLevelApps/HigherLevelApps.c/User_Interface.c **** 
  31:HigherLevelApps/HigherLevelApps.c/User_Interface.c **** void UI_SuperCapText_Update()
  32:HigherLevelApps/HigherLevelApps.c/User_Interface.c **** {
  33:HigherLevelApps/HigherLevelApps.c/User_Interface.c **** 	//memcpy(TextSystem.Text, Text, 30);
  34:HigherLevelApps/HigherLevelApps.c/User_Interface.c **** 	TextSystem.Graph->operate_type = UI_Graph_Change;
  35:HigherLevelApps/HigherLevelApps.c/User_Interface.c **** 	TextSystem.Graph->graphic_name[0] = 'C';
  36:HigherLevelApps/HigherLevelApps.c/User_Interface.c **** 	TextSystem.Graph->graphic_name[1] = 'a';
  37:HigherLevelApps/HigherLevelApps.c/User_Interface.c **** 	TextSystem.Graph->graphic_name[2] = 'p';
ARM GAS  C:\Users\purdu\AppData\Local\Temp\ccP1UZx1.s 			page 3


  38:HigherLevelApps/HigherLevelApps.c/User_Interface.c **** 	TextSystem.Graph->end_angle = TextSystem.TextNumber;
  39:HigherLevelApps/HigherLevelApps.c/User_Interface.c **** 	//memcpy(TextSystem.Text, "Cap", 3);
  40:HigherLevelApps/HigherLevelApps.c/User_Interface.c **** 	TextSystem.Graph->start_x = UI.Text_Location.Text_1_X * CMToPixel;
  41:HigherLevelApps/HigherLevelApps.c/User_Interface.c **** 	TextSystem.Graph->start_y = UI.Text_Location.Text_1_Y * CMToPixel;
  42:HigherLevelApps/HigherLevelApps.c/User_Interface.c **** 	TextSystem.PacketNumber = UI.Global_PacketNumber;
  43:HigherLevelApps/HigherLevelApps.c/User_Interface.c **** 	UI_Add_Frame_And_Data_Header_Character(&TextSystem);
  44:HigherLevelApps/HigherLevelApps.c/User_Interface.c **** 	UI_Add_Character(&TextSystem, 30);
  45:HigherLevelApps/HigherLevelApps.c/User_Interface.c ****   UI_Add_Frame_Tail_Character(&TextSystem);
  46:HigherLevelApps/HigherLevelApps.c/User_Interface.c **** 	osDelay(200);
  47:HigherLevelApps/HigherLevelApps.c/User_Interface.c **** 	HAL_UART_Transmit(UART, TextSystem.dataBuffer, sizeof(TextSystem.dataBuffer), 500);
  48:HigherLevelApps/HigherLevelApps.c/User_Interface.c **** 	UI.Global_PacketNumber++;
  49:HigherLevelApps/HigherLevelApps.c/User_Interface.c **** 	memcpy(TextSystem.Text, TextInit, 30);
  50:HigherLevelApps/HigherLevelApps.c/User_Interface.c **** }
  51:HigherLevelApps/HigherLevelApps.c/User_Interface.c **** 
  52:HigherLevelApps/HigherLevelApps.c/User_Interface.c **** void UI_StateText_Update()
  53:HigherLevelApps/HigherLevelApps.c/User_Interface.c **** {
  54:HigherLevelApps/HigherLevelApps.c/User_Interface.c **** 	TextSystem.Graph->operate_type = UI_Graph_Change;
  55:HigherLevelApps/HigherLevelApps.c/User_Interface.c **** 	TextSystem.Graph->graphic_name[0] = 'S';
  56:HigherLevelApps/HigherLevelApps.c/User_Interface.c **** 	TextSystem.Graph->graphic_name[1] = 't';
  57:HigherLevelApps/HigherLevelApps.c/User_Interface.c **** 	TextSystem.Graph->graphic_name[2] = 'a';
  58:HigherLevelApps/HigherLevelApps.c/User_Interface.c **** 	TextSystem.Graph->end_angle = TextSystem.TextNumber;
  59:HigherLevelApps/HigherLevelApps.c/User_Interface.c **** 	//memcpy(TextSystem.Text, "Cap", 3);
  60:HigherLevelApps/HigherLevelApps.c/User_Interface.c **** 	TextSystem.Graph->start_x = UI.Text_Location.Text_3_X * CMToPixel;
  61:HigherLevelApps/HigherLevelApps.c/User_Interface.c **** 	TextSystem.Graph->start_y = UI.Text_Location.Text_3_Y * CMToPixel;
  62:HigherLevelApps/HigherLevelApps.c/User_Interface.c **** 	TextSystem.PacketNumber = UI.Global_PacketNumber;
  63:HigherLevelApps/HigherLevelApps.c/User_Interface.c **** 	UI_Add_Frame_And_Data_Header_Character(&TextSystem);
  64:HigherLevelApps/HigherLevelApps.c/User_Interface.c **** 	UI_Add_Character(&TextSystem, 30);
  65:HigherLevelApps/HigherLevelApps.c/User_Interface.c ****   UI_Add_Frame_Tail_Character(&TextSystem);
  66:HigherLevelApps/HigherLevelApps.c/User_Interface.c **** 	osDelay(200);
  67:HigherLevelApps/HigherLevelApps.c/User_Interface.c **** 	HAL_UART_Transmit(UART, TextSystem.dataBuffer, sizeof(TextSystem.dataBuffer), 500);
  68:HigherLevelApps/HigherLevelApps.c/User_Interface.c **** 	UI.Global_PacketNumber++;
  69:HigherLevelApps/HigherLevelApps.c/User_Interface.c **** 	memcpy(TextSystem.Text, TextInit, 30);
  70:HigherLevelApps/HigherLevelApps.c/User_Interface.c **** }
  71:HigherLevelApps/HigherLevelApps.c/User_Interface.c **** 
  72:HigherLevelApps/HigherLevelApps.c/User_Interface.c **** void UI_AutoText_Update()
  73:HigherLevelApps/HigherLevelApps.c/User_Interface.c **** {
  74:HigherLevelApps/HigherLevelApps.c/User_Interface.c **** 	//memcpy(TextSystem.Text, Text, 30);
  75:HigherLevelApps/HigherLevelApps.c/User_Interface.c **** 	TextSystem.Graph->operate_type = UI_Graph_Change;
  76:HigherLevelApps/HigherLevelApps.c/User_Interface.c **** 	TextSystem.Graph->graphic_name[0] = 'A';
  77:HigherLevelApps/HigherLevelApps.c/User_Interface.c **** 	TextSystem.Graph->graphic_name[1] = 'u';
  78:HigherLevelApps/HigherLevelApps.c/User_Interface.c **** 	TextSystem.Graph->graphic_name[2] = 't';
  79:HigherLevelApps/HigherLevelApps.c/User_Interface.c **** 	TextSystem.Graph->end_angle = TextSystem.TextNumber;
  80:HigherLevelApps/HigherLevelApps.c/User_Interface.c **** 	//memcpy(TextSystem.Text, "Cap", 3);
  81:HigherLevelApps/HigherLevelApps.c/User_Interface.c **** 	TextSystem.Graph->start_x = UI.Text_Location.Text_2_X * CMToPixel;
  82:HigherLevelApps/HigherLevelApps.c/User_Interface.c **** 	TextSystem.Graph->start_y = UI.Text_Location.Text_2_Y * CMToPixel;
  83:HigherLevelApps/HigherLevelApps.c/User_Interface.c **** 	TextSystem.PacketNumber = UI.Global_PacketNumber;
  84:HigherLevelApps/HigherLevelApps.c/User_Interface.c **** 	UI_Add_Frame_And_Data_Header_Character(&TextSystem);
  85:HigherLevelApps/HigherLevelApps.c/User_Interface.c **** 	UI_Add_Character(&TextSystem, 30);
  86:HigherLevelApps/HigherLevelApps.c/User_Interface.c ****   UI_Add_Frame_Tail_Character(&TextSystem);
  87:HigherLevelApps/HigherLevelApps.c/User_Interface.c **** 	osDelay(200);
  88:HigherLevelApps/HigherLevelApps.c/User_Interface.c **** 	HAL_UART_Transmit(UART, TextSystem.dataBuffer, sizeof(TextSystem.dataBuffer), 500);
  89:HigherLevelApps/HigherLevelApps.c/User_Interface.c **** 	UI.Global_PacketNumber++;
  90:HigherLevelApps/HigherLevelApps.c/User_Interface.c **** 	memcpy(TextSystem.Text, TextInit, 30);
  91:HigherLevelApps/HigherLevelApps.c/User_Interface.c **** }
  92:HigherLevelApps/HigherLevelApps.c/User_Interface.c **** 
  93:HigherLevelApps/HigherLevelApps.c/User_Interface.c **** void UI_TextSystem_Init()
  94:HigherLevelApps/HigherLevelApps.c/User_Interface.c **** {
ARM GAS  C:\Users\purdu\AppData\Local\Temp\ccP1UZx1.s 			page 4


  95:HigherLevelApps/HigherLevelApps.c/User_Interface.c **** 	TextSystem.Graph->graphic_name[0] = '0';
  96:HigherLevelApps/HigherLevelApps.c/User_Interface.c **** 	TextSystem.Graph->graphic_name[1] = '0';
  97:HigherLevelApps/HigherLevelApps.c/User_Interface.c **** 	TextSystem.Graph->graphic_name[2] = '0';
  98:HigherLevelApps/HigherLevelApps.c/User_Interface.c **** 	TextSystem.Graph->operate_type = UI_Graph_Add;
  99:HigherLevelApps/HigherLevelApps.c/User_Interface.c **** 	TextSystem.Graph->graphic_type = UI_Graph_Char;
 100:HigherLevelApps/HigherLevelApps.c/User_Interface.c **** 	TextSystem.Graph->layer = 8;
 101:HigherLevelApps/HigherLevelApps.c/User_Interface.c **** 	TextSystem.Graph->color = UI_Color_Orange;
 102:HigherLevelApps/HigherLevelApps.c/User_Interface.c **** 	TextSystem.Graph->start_angle = 20;    //Size of Char
 103:HigherLevelApps/HigherLevelApps.c/User_Interface.c **** 	TextSystem.Graph->end_angle = 0;	    //Length of Char
 104:HigherLevelApps/HigherLevelApps.c/User_Interface.c **** 	TextSystem.Graph->width = 3;
 105:HigherLevelApps/HigherLevelApps.c/User_Interface.c **** 	TextSystem.Graph->start_x = 0;
 106:HigherLevelApps/HigherLevelApps.c/User_Interface.c **** 	TextSystem.Graph->start_y = 0;
 107:HigherLevelApps/HigherLevelApps.c/User_Interface.c **** 	TextSystem.Graph->radius = 0;
 108:HigherLevelApps/HigherLevelApps.c/User_Interface.c **** 	TextSystem.Graph->end_x = 0;
 109:HigherLevelApps/HigherLevelApps.c/User_Interface.c **** 	TextSystem.Graph->end_y = 0;
 110:HigherLevelApps/HigherLevelApps.c/User_Interface.c **** 	
 111:HigherLevelApps/HigherLevelApps.c/User_Interface.c **** 	TextSystem.SendingSize = UI_Size_Frame_Header + UI_Size_CMD_ID + UI_Size_Data_Header + UI_Size_Dat
 112:HigherLevelApps/HigherLevelApps.c/User_Interface.c **** 	
 113:HigherLevelApps/HigherLevelApps.c/User_Interface.c **** 	memcpy(TextSystem.Text, TextInit, 30);
 114:HigherLevelApps/HigherLevelApps.c/User_Interface.c **** 	TextSystem.Graph->graphic_name[0] = 'C';
 115:HigherLevelApps/HigherLevelApps.c/User_Interface.c **** 	TextSystem.Graph->graphic_name[1] = 'a';
 116:HigherLevelApps/HigherLevelApps.c/User_Interface.c **** 	TextSystem.Graph->graphic_name[2] = 'p';
 117:HigherLevelApps/HigherLevelApps.c/User_Interface.c **** 	TextSystem.Graph->end_angle = 3;
 118:HigherLevelApps/HigherLevelApps.c/User_Interface.c **** 	memcpy(TextSystem.Text, "Cap", 3);
 119:HigherLevelApps/HigherLevelApps.c/User_Interface.c **** 	TextSystem.Graph->start_x = UI.Text_Location.Text_1_X * CMToPixel;
 120:HigherLevelApps/HigherLevelApps.c/User_Interface.c **** 	TextSystem.Graph->start_y = UI.Text_Location.Text_1_Y * CMToPixel;
 121:HigherLevelApps/HigherLevelApps.c/User_Interface.c **** 	TextSystem.PacketNumber = UI.Global_PacketNumber;
 122:HigherLevelApps/HigherLevelApps.c/User_Interface.c **** 	UI_Add_Frame_And_Data_Header_Character(&TextSystem);
 123:HigherLevelApps/HigherLevelApps.c/User_Interface.c **** 	UI_Add_Character(&TextSystem, 30);
 124:HigherLevelApps/HigherLevelApps.c/User_Interface.c ****   UI_Add_Frame_Tail_Character(&TextSystem);
 125:HigherLevelApps/HigherLevelApps.c/User_Interface.c **** 	osDelay(100);
 126:HigherLevelApps/HigherLevelApps.c/User_Interface.c **** 	HAL_UART_Transmit(UART, TextSystem.dataBuffer, sizeof(TextSystem.dataBuffer), 500);
 127:HigherLevelApps/HigherLevelApps.c/User_Interface.c **** 	UI.Global_PacketNumber++;
 128:HigherLevelApps/HigherLevelApps.c/User_Interface.c **** 	
 129:HigherLevelApps/HigherLevelApps.c/User_Interface.c **** 	memcpy(TextSystem.Text, TextInit, 30);
 130:HigherLevelApps/HigherLevelApps.c/User_Interface.c **** 	TextSystem.Graph->graphic_name[0] = 'A';
 131:HigherLevelApps/HigherLevelApps.c/User_Interface.c **** 	TextSystem.Graph->graphic_name[1] = 'u';
 132:HigherLevelApps/HigherLevelApps.c/User_Interface.c **** 	TextSystem.Graph->graphic_name[2] = 't';
 133:HigherLevelApps/HigherLevelApps.c/User_Interface.c **** 	TextSystem.Graph->end_angle = 4;	    //Length of Char
 134:HigherLevelApps/HigherLevelApps.c/User_Interface.c **** 	memcpy(TextSystem.Text, "Auto", 4);
 135:HigherLevelApps/HigherLevelApps.c/User_Interface.c **** 	TextSystem.Graph->start_x = UI.Text_Location.Text_2_X * CMToPixel;
 136:HigherLevelApps/HigherLevelApps.c/User_Interface.c **** 	TextSystem.Graph->start_y = UI.Text_Location.Text_2_Y * CMToPixel;
 137:HigherLevelApps/HigherLevelApps.c/User_Interface.c **** 	TextSystem.PacketNumber = UI.Global_PacketNumber;
 138:HigherLevelApps/HigherLevelApps.c/User_Interface.c **** 	UI_Add_Frame_And_Data_Header_Character(&TextSystem);
 139:HigherLevelApps/HigherLevelApps.c/User_Interface.c **** 	UI_Add_Character(&TextSystem, 30);
 140:HigherLevelApps/HigherLevelApps.c/User_Interface.c ****   UI_Add_Frame_Tail_Character(&TextSystem);
 141:HigherLevelApps/HigherLevelApps.c/User_Interface.c **** 	osDelay(100);
 142:HigherLevelApps/HigherLevelApps.c/User_Interface.c **** 	HAL_UART_Transmit(UART, TextSystem.dataBuffer, sizeof(TextSystem.dataBuffer), 500);
 143:HigherLevelApps/HigherLevelApps.c/User_Interface.c **** 	UI.Global_PacketNumber++;
 144:HigherLevelApps/HigherLevelApps.c/User_Interface.c **** 	
 145:HigherLevelApps/HigherLevelApps.c/User_Interface.c **** 	memcpy(TextSystem.Text, TextInit, 30);
 146:HigherLevelApps/HigherLevelApps.c/User_Interface.c **** 	TextSystem.Graph->graphic_name[0] = 'S';
 147:HigherLevelApps/HigherLevelApps.c/User_Interface.c **** 	TextSystem.Graph->graphic_name[1] = 't';
 148:HigherLevelApps/HigherLevelApps.c/User_Interface.c **** 	TextSystem.Graph->graphic_name[2] = 'a';
 149:HigherLevelApps/HigherLevelApps.c/User_Interface.c **** 	TextSystem.Graph->end_angle = 5;	    //Length of Char
 150:HigherLevelApps/HigherLevelApps.c/User_Interface.c **** 	memcpy(TextSystem.Text, "State", 5);
 151:HigherLevelApps/HigherLevelApps.c/User_Interface.c **** 	TextSystem.Graph->start_x = UI.Text_Location.Text_3_X * CMToPixel;
ARM GAS  C:\Users\purdu\AppData\Local\Temp\ccP1UZx1.s 			page 5


 152:HigherLevelApps/HigherLevelApps.c/User_Interface.c **** 	TextSystem.Graph->start_y = UI.Text_Location.Text_3_Y * CMToPixel;
 153:HigherLevelApps/HigherLevelApps.c/User_Interface.c **** 	TextSystem.PacketNumber = UI.Global_PacketNumber;
 154:HigherLevelApps/HigherLevelApps.c/User_Interface.c **** 	UI_Add_Frame_And_Data_Header_Character(&TextSystem);
 155:HigherLevelApps/HigherLevelApps.c/User_Interface.c **** 	UI_Add_Character(&TextSystem, 30);
 156:HigherLevelApps/HigherLevelApps.c/User_Interface.c ****   UI_Add_Frame_Tail_Character(&TextSystem);
 157:HigherLevelApps/HigherLevelApps.c/User_Interface.c **** 	osDelay(100);
 158:HigherLevelApps/HigherLevelApps.c/User_Interface.c **** 	HAL_UART_Transmit(UART, TextSystem.dataBuffer, sizeof(TextSystem.dataBuffer), 500);
 159:HigherLevelApps/HigherLevelApps.c/User_Interface.c **** 	UI.Global_PacketNumber++;
 160:HigherLevelApps/HigherLevelApps.c/User_Interface.c **** }
 161:HigherLevelApps/HigherLevelApps.c/User_Interface.c **** 
 162:HigherLevelApps/HigherLevelApps.c/User_Interface.c **** void UI_GuidingSystem()
 163:HigherLevelApps/HigherLevelApps.c/User_Interface.c **** {
 164:HigherLevelApps/HigherLevelApps.c/User_Interface.c **** 	//Two Line System
 165:HigherLevelApps/HigherLevelApps.c/User_Interface.c **** 	float LineOneStartX = 11.3; //7
 166:HigherLevelApps/HigherLevelApps.c/User_Interface.c **** 	float LineOneStartY = 0;
 167:HigherLevelApps/HigherLevelApps.c/User_Interface.c **** 	float LineOneEndX = 13.9;  //14
 168:HigherLevelApps/HigherLevelApps.c/User_Interface.c **** 	float LineOneEndY = 47.2;  //2
 169:HigherLevelApps/HigherLevelApps.c/User_Interface.c **** 	float X_offSet = 0;
 170:HigherLevelApps/HigherLevelApps.c/User_Interface.c **** 	
 171:HigherLevelApps/HigherLevelApps.c/User_Interface.c **** 	AimingSystem.Graph->graphic_name[0] = '0';
 172:HigherLevelApps/HigherLevelApps.c/User_Interface.c **** 	AimingSystem.Graph->graphic_name[1] = '0';
 173:HigherLevelApps/HigherLevelApps.c/User_Interface.c **** 	AimingSystem.Graph->graphic_name[2] = '0';
 174:HigherLevelApps/HigherLevelApps.c/User_Interface.c **** 	AimingSystem.Graph->operate_type = UI_Graph_Add;
 175:HigherLevelApps/HigherLevelApps.c/User_Interface.c **** 	AimingSystem.Graph->graphic_type = UI_Graph_Line;
 176:HigherLevelApps/HigherLevelApps.c/User_Interface.c **** 	AimingSystem.Graph->layer = 7;
 177:HigherLevelApps/HigherLevelApps.c/User_Interface.c **** 	AimingSystem.Graph->color = UI_Color_Purplish_red;
 178:HigherLevelApps/HigherLevelApps.c/User_Interface.c **** 	AimingSystem.Graph->start_angle = 0;
 179:HigherLevelApps/HigherLevelApps.c/User_Interface.c **** 	AimingSystem.Graph->end_angle = 0;
 180:HigherLevelApps/HigherLevelApps.c/User_Interface.c **** 	AimingSystem.Graph->width = 5;
 181:HigherLevelApps/HigherLevelApps.c/User_Interface.c **** 	AimingSystem.Graph->start_x = 0;
 182:HigherLevelApps/HigherLevelApps.c/User_Interface.c **** 	AimingSystem.Graph->start_y = 0;
 183:HigherLevelApps/HigherLevelApps.c/User_Interface.c **** 	AimingSystem.Graph->radius = 0;
 184:HigherLevelApps/HigherLevelApps.c/User_Interface.c **** 	AimingSystem.Graph->end_x = 0;
 185:HigherLevelApps/HigherLevelApps.c/User_Interface.c **** 	AimingSystem.Graph->end_y = 0;
 186:HigherLevelApps/HigherLevelApps.c/User_Interface.c **** 	
 187:HigherLevelApps/HigherLevelApps.c/User_Interface.c **** 	AimingSystem.SendingSize = UI_Size_Frame_Header + UI_Size_CMD_ID + UI_Size_Data_Header + UI_Size_D
 188:HigherLevelApps/HigherLevelApps.c/User_Interface.c **** 	
 189:HigherLevelApps/HigherLevelApps.c/User_Interface.c **** 	AimingSystem.Graph->graphic_name[0] = 'G';
 190:HigherLevelApps/HigherLevelApps.c/User_Interface.c **** 	AimingSystem.Graph->graphic_name[1] = 'u';
 191:HigherLevelApps/HigherLevelApps.c/User_Interface.c **** 	AimingSystem.Graph->graphic_name[2] = '1';
 192:HigherLevelApps/HigherLevelApps.c/User_Interface.c **** 	AimingSystem.Graph->start_x = (uint32_t) (LineOneStartX * CMToPixel - X_offSet);
 193:HigherLevelApps/HigherLevelApps.c/User_Interface.c **** 	AimingSystem.Graph->start_y = (uint32_t) (LineOneStartY * CMToPixel);
 194:HigherLevelApps/HigherLevelApps.c/User_Interface.c **** 	AimingSystem.Graph->end_x = (uint32_t) (LineOneEndX * CMToPixel - X_offSet);
 195:HigherLevelApps/HigherLevelApps.c/User_Interface.c **** 	AimingSystem.Graph->end_y = (uint32_t) (LineOneEndY * CMToPixel);
 196:HigherLevelApps/HigherLevelApps.c/User_Interface.c **** 	AimingSystem.PacketNumber = UI.Global_PacketNumber;
 197:HigherLevelApps/HigherLevelApps.c/User_Interface.c **** 	UI_Add_Frame_And_Data_Header_OneGraphics(&AimingSystem);
 198:HigherLevelApps/HigherLevelApps.c/User_Interface.c **** 	UI_Add_OneGraphics(&AimingSystem);
 199:HigherLevelApps/HigherLevelApps.c/User_Interface.c ****   UI_Add_Frame_Tail_OneGraphics(&AimingSystem);
 200:HigherLevelApps/HigherLevelApps.c/User_Interface.c **** 	osDelay(100);
 201:HigherLevelApps/HigherLevelApps.c/User_Interface.c **** 	HAL_UART_Transmit(UART, AimingSystem.dataBuffer, sizeof(AimingSystem.dataBuffer), 5000);
 202:HigherLevelApps/HigherLevelApps.c/User_Interface.c **** 	UI.Global_PacketNumber++;
 203:HigherLevelApps/HigherLevelApps.c/User_Interface.c **** 	
 204:HigherLevelApps/HigherLevelApps.c/User_Interface.c **** 	AimingSystem.Graph->graphic_name[0] = 'G';
 205:HigherLevelApps/HigherLevelApps.c/User_Interface.c **** 	AimingSystem.Graph->graphic_name[1] = 'u';
 206:HigherLevelApps/HigherLevelApps.c/User_Interface.c **** 	AimingSystem.Graph->graphic_name[2] = '2';
 207:HigherLevelApps/HigherLevelApps.c/User_Interface.c **** 	AimingSystem.Graph->start_x = (uint32_t) ((34.3f - LineOneStartX) * CMToPixel - X_offSet);
 208:HigherLevelApps/HigherLevelApps.c/User_Interface.c **** 	AimingSystem.Graph->start_y = (uint32_t) (LineOneStartY * CMToPixel);
ARM GAS  C:\Users\purdu\AppData\Local\Temp\ccP1UZx1.s 			page 6


 209:HigherLevelApps/HigherLevelApps.c/User_Interface.c **** 	AimingSystem.Graph->end_x = (uint32_t) ((34.3f - LineOneEndX) * CMToPixel - X_offSet); 
 210:HigherLevelApps/HigherLevelApps.c/User_Interface.c **** 	AimingSystem.Graph->end_y = (uint32_t) (LineOneEndY * CMToPixel);
 211:HigherLevelApps/HigherLevelApps.c/User_Interface.c **** 	AimingSystem.PacketNumber = UI.Global_PacketNumber;
 212:HigherLevelApps/HigherLevelApps.c/User_Interface.c **** 	UI_Add_Frame_And_Data_Header_OneGraphics(&AimingSystem);
 213:HigherLevelApps/HigherLevelApps.c/User_Interface.c **** 	UI_Add_OneGraphics(&AimingSystem);
 214:HigherLevelApps/HigherLevelApps.c/User_Interface.c ****   UI_Add_Frame_Tail_OneGraphics(&AimingSystem);
 215:HigherLevelApps/HigherLevelApps.c/User_Interface.c **** 	osDelay(100);
 216:HigherLevelApps/HigherLevelApps.c/User_Interface.c **** 	HAL_UART_Transmit(UART, AimingSystem.dataBuffer, sizeof(AimingSystem.dataBuffer), 5000);
 217:HigherLevelApps/HigherLevelApps.c/User_Interface.c **** 	UI.Global_PacketNumber++;
 218:HigherLevelApps/HigherLevelApps.c/User_Interface.c **** }
 219:HigherLevelApps/HigherLevelApps.c/User_Interface.c **** 
 220:HigherLevelApps/HigherLevelApps.c/User_Interface.c **** void UI_AimingSystem()
 221:HigherLevelApps/HigherLevelApps.c/User_Interface.c **** {
 222:HigherLevelApps/HigherLevelApps.c/User_Interface.c **** 	//Three square shape config
 223:HigherLevelApps/HigherLevelApps.c/User_Interface.c **** 	float ShapeOneBottom = 6.85;
 224:HigherLevelApps/HigherLevelApps.c/User_Interface.c **** 	float ShapeOneTop = 8.57;
 225:HigherLevelApps/HigherLevelApps.c/User_Interface.c **** 	float ShapeOneDistance = (17.15-0.9);
 226:HigherLevelApps/HigherLevelApps.c/User_Interface.c **** 	float ShapeTwoBottom = 6.62;
 227:HigherLevelApps/HigherLevelApps.c/User_Interface.c **** 	float ShapeTwoTop = 6.93;
 228:HigherLevelApps/HigherLevelApps.c/User_Interface.c **** 	float ShapeTwoDistance = (17.15-0.15);
 229:HigherLevelApps/HigherLevelApps.c/User_Interface.c **** 	float ShapeThreeBottom = 7;
 230:HigherLevelApps/HigherLevelApps.c/User_Interface.c **** 	float ShapeThreeTop = 7.6;
 231:HigherLevelApps/HigherLevelApps.c/User_Interface.c **** 	float ShapeThreeDistance = (17.15-0.225);
 232:HigherLevelApps/HigherLevelApps.c/User_Interface.c **** 	float X_offSet = 0;
 233:HigherLevelApps/HigherLevelApps.c/User_Interface.c **** 	
 234:HigherLevelApps/HigherLevelApps.c/User_Interface.c **** 	AimingSystem.Graph->graphic_name[0] = '0';
 235:HigherLevelApps/HigherLevelApps.c/User_Interface.c **** 	AimingSystem.Graph->graphic_name[1] = '0';
 236:HigherLevelApps/HigherLevelApps.c/User_Interface.c **** 	AimingSystem.Graph->graphic_name[2] = '0';
 237:HigherLevelApps/HigherLevelApps.c/User_Interface.c **** 	AimingSystem.Graph->operate_type = UI_Graph_Add;
 238:HigherLevelApps/HigherLevelApps.c/User_Interface.c **** 	AimingSystem.Graph->graphic_type = UI_Graph_Line;
 239:HigherLevelApps/HigherLevelApps.c/User_Interface.c **** 	AimingSystem.Graph->layer = 9;
 240:HigherLevelApps/HigherLevelApps.c/User_Interface.c **** 	AimingSystem.Graph->color = UI_Color_White;
 241:HigherLevelApps/HigherLevelApps.c/User_Interface.c **** 	AimingSystem.Graph->start_angle = 0;
 242:HigherLevelApps/HigherLevelApps.c/User_Interface.c **** 	AimingSystem.Graph->end_angle = 0;
 243:HigherLevelApps/HigherLevelApps.c/User_Interface.c **** 	AimingSystem.Graph->width = 3;
 244:HigherLevelApps/HigherLevelApps.c/User_Interface.c **** 	AimingSystem.Graph->start_x = 0;
 245:HigherLevelApps/HigherLevelApps.c/User_Interface.c **** 	AimingSystem.Graph->start_y = 0;
 246:HigherLevelApps/HigherLevelApps.c/User_Interface.c **** 	AimingSystem.Graph->radius = 0;
 247:HigherLevelApps/HigherLevelApps.c/User_Interface.c **** 	AimingSystem.Graph->end_x = 0;
 248:HigherLevelApps/HigherLevelApps.c/User_Interface.c **** 	AimingSystem.Graph->end_y = 0;
 249:HigherLevelApps/HigherLevelApps.c/User_Interface.c **** 	
 250:HigherLevelApps/HigherLevelApps.c/User_Interface.c **** 	AimingSystem.SendingSize = UI_Size_Frame_Header + UI_Size_CMD_ID + UI_Size_Data_Header + UI_Size_D
 251:HigherLevelApps/HigherLevelApps.c/User_Interface.c **** 	
 252:HigherLevelApps/HigherLevelApps.c/User_Interface.c **** 	AimingSystem.Graph->graphic_name[0] = 'A';
 253:HigherLevelApps/HigherLevelApps.c/User_Interface.c **** 	AimingSystem.Graph->graphic_name[1] = 'i';
 254:HigherLevelApps/HigherLevelApps.c/User_Interface.c **** 	AimingSystem.Graph->graphic_name[2] = '1';
 255:HigherLevelApps/HigherLevelApps.c/User_Interface.c **** 	AimingSystem.Graph->start_x = (uint32_t) (ShapeOneDistance * CMToPixel - X_offSet);
 256:HigherLevelApps/HigherLevelApps.c/User_Interface.c **** 	AimingSystem.Graph->start_y = (uint32_t) (ShapeOneBottom * CMToPixel);
 257:HigherLevelApps/HigherLevelApps.c/User_Interface.c **** 	AimingSystem.Graph->end_x = (uint32_t) (ShapeOneDistance * CMToPixel - X_offSet);
 258:HigherLevelApps/HigherLevelApps.c/User_Interface.c **** 	AimingSystem.Graph->end_y = (uint32_t) (ShapeOneTop * CMToPixel);
 259:HigherLevelApps/HigherLevelApps.c/User_Interface.c **** 	AimingSystem.PacketNumber = UI.Global_PacketNumber;
 260:HigherLevelApps/HigherLevelApps.c/User_Interface.c **** 	UI_Add_Frame_And_Data_Header_OneGraphics(&AimingSystem);
 261:HigherLevelApps/HigherLevelApps.c/User_Interface.c **** 	UI_Add_OneGraphics(&AimingSystem);
 262:HigherLevelApps/HigherLevelApps.c/User_Interface.c ****   UI_Add_Frame_Tail_OneGraphics(&AimingSystem);
 263:HigherLevelApps/HigherLevelApps.c/User_Interface.c **** 	osDelay(100);
 264:HigherLevelApps/HigherLevelApps.c/User_Interface.c **** 	HAL_UART_Transmit(UART, AimingSystem.dataBuffer, sizeof(AimingSystem.dataBuffer), 500);
 265:HigherLevelApps/HigherLevelApps.c/User_Interface.c **** 	UI.Global_PacketNumber++;
ARM GAS  C:\Users\purdu\AppData\Local\Temp\ccP1UZx1.s 			page 7


 266:HigherLevelApps/HigherLevelApps.c/User_Interface.c **** 	
 267:HigherLevelApps/HigherLevelApps.c/User_Interface.c **** 	AimingSystem.Graph->graphic_name[0] = 'A';
 268:HigherLevelApps/HigherLevelApps.c/User_Interface.c **** 	AimingSystem.Graph->graphic_name[1] = 'i';
 269:HigherLevelApps/HigherLevelApps.c/User_Interface.c **** 	AimingSystem.Graph->graphic_name[2] = '2';
 270:HigherLevelApps/HigherLevelApps.c/User_Interface.c **** 	AimingSystem.Graph->start_x = (uint32_t) ((34.3f - ShapeOneDistance) * CMToPixel - X_offSet);
 271:HigherLevelApps/HigherLevelApps.c/User_Interface.c **** 	AimingSystem.Graph->start_y = (uint32_t) (ShapeOneBottom * CMToPixel);
 272:HigherLevelApps/HigherLevelApps.c/User_Interface.c **** 	AimingSystem.Graph->end_x = (uint32_t) ((34.3f - ShapeOneDistance) * CMToPixel - X_offSet);
 273:HigherLevelApps/HigherLevelApps.c/User_Interface.c **** 	AimingSystem.Graph->end_y = (uint32_t) (ShapeOneTop * CMToPixel);
 274:HigherLevelApps/HigherLevelApps.c/User_Interface.c **** 	AimingSystem.PacketNumber = UI.Global_PacketNumber;
 275:HigherLevelApps/HigherLevelApps.c/User_Interface.c **** 	UI_Add_Frame_And_Data_Header_OneGraphics(&AimingSystem);
 276:HigherLevelApps/HigherLevelApps.c/User_Interface.c **** 	UI_Add_OneGraphics(&AimingSystem);
 277:HigherLevelApps/HigherLevelApps.c/User_Interface.c ****   UI_Add_Frame_Tail_OneGraphics(&AimingSystem);
 278:HigherLevelApps/HigherLevelApps.c/User_Interface.c **** 	osDelay(100);
 279:HigherLevelApps/HigherLevelApps.c/User_Interface.c **** 	HAL_UART_Transmit(UART, AimingSystem.dataBuffer, sizeof(AimingSystem.dataBuffer), 500);
 280:HigherLevelApps/HigherLevelApps.c/User_Interface.c **** 	UI.Global_PacketNumber++;
 281:HigherLevelApps/HigherLevelApps.c/User_Interface.c **** 	
 282:HigherLevelApps/HigherLevelApps.c/User_Interface.c **** 	AimingSystem.Graph->graphic_name[0] = 'A';
 283:HigherLevelApps/HigherLevelApps.c/User_Interface.c **** 	AimingSystem.Graph->graphic_name[1] = 'i';
 284:HigherLevelApps/HigherLevelApps.c/User_Interface.c **** 	AimingSystem.Graph->graphic_name[2] = '3';
 285:HigherLevelApps/HigherLevelApps.c/User_Interface.c **** 	AimingSystem.Graph->start_x = (uint32_t) (ShapeOneDistance * CMToPixel - X_offSet);
 286:HigherLevelApps/HigherLevelApps.c/User_Interface.c **** 	AimingSystem.Graph->start_y = (uint32_t) (ShapeOneTop * CMToPixel);
 287:HigherLevelApps/HigherLevelApps.c/User_Interface.c **** 	AimingSystem.Graph->end_x = (uint32_t) (ShapeTwoDistance * CMToPixel - X_offSet);
 288:HigherLevelApps/HigherLevelApps.c/User_Interface.c **** 	AimingSystem.Graph->end_y = (uint32_t) (ShapeOneTop * CMToPixel);
 289:HigherLevelApps/HigherLevelApps.c/User_Interface.c **** 	AimingSystem.PacketNumber = UI.Global_PacketNumber;
 290:HigherLevelApps/HigherLevelApps.c/User_Interface.c **** 	UI_Add_Frame_And_Data_Header_OneGraphics(&AimingSystem);
 291:HigherLevelApps/HigherLevelApps.c/User_Interface.c **** 	UI_Add_OneGraphics(&AimingSystem);
 292:HigherLevelApps/HigherLevelApps.c/User_Interface.c ****   UI_Add_Frame_Tail_OneGraphics(&AimingSystem);
 293:HigherLevelApps/HigherLevelApps.c/User_Interface.c **** 	osDelay(100);
 294:HigherLevelApps/HigherLevelApps.c/User_Interface.c **** 	HAL_UART_Transmit(UART, AimingSystem.dataBuffer, sizeof(AimingSystem.dataBuffer), 500);
 295:HigherLevelApps/HigherLevelApps.c/User_Interface.c **** 	UI.Global_PacketNumber++;
 296:HigherLevelApps/HigherLevelApps.c/User_Interface.c **** 	
 297:HigherLevelApps/HigherLevelApps.c/User_Interface.c **** 	AimingSystem.Graph->graphic_name[0] = 'A';
 298:HigherLevelApps/HigherLevelApps.c/User_Interface.c **** 	AimingSystem.Graph->graphic_name[1] = 'i';
 299:HigherLevelApps/HigherLevelApps.c/User_Interface.c **** 	AimingSystem.Graph->graphic_name[2] = '4';
 300:HigherLevelApps/HigherLevelApps.c/User_Interface.c **** 	AimingSystem.Graph->start_x = (uint32_t) ((34.3f - ShapeOneDistance) * CMToPixel - X_offSet);
 301:HigherLevelApps/HigherLevelApps.c/User_Interface.c **** 	AimingSystem.Graph->start_y = (uint32_t) (ShapeOneTop * CMToPixel);
 302:HigherLevelApps/HigherLevelApps.c/User_Interface.c **** 	AimingSystem.Graph->end_x = (uint32_t) ((34.3f - ShapeTwoDistance) * CMToPixel - X_offSet);
 303:HigherLevelApps/HigherLevelApps.c/User_Interface.c **** 	AimingSystem.Graph->end_y = (uint32_t) (ShapeOneTop * CMToPixel);
 304:HigherLevelApps/HigherLevelApps.c/User_Interface.c **** 	AimingSystem.PacketNumber = UI.Global_PacketNumber;
 305:HigherLevelApps/HigherLevelApps.c/User_Interface.c **** 	UI_Add_Frame_And_Data_Header_OneGraphics(&AimingSystem);
 306:HigherLevelApps/HigherLevelApps.c/User_Interface.c **** 	UI_Add_OneGraphics(&AimingSystem);
 307:HigherLevelApps/HigherLevelApps.c/User_Interface.c ****   UI_Add_Frame_Tail_OneGraphics(&AimingSystem);
 308:HigherLevelApps/HigherLevelApps.c/User_Interface.c **** 	osDelay(100);
 309:HigherLevelApps/HigherLevelApps.c/User_Interface.c **** 	HAL_UART_Transmit(UART, AimingSystem.dataBuffer, sizeof(AimingSystem.dataBuffer), 500);
 310:HigherLevelApps/HigherLevelApps.c/User_Interface.c **** 	UI.Global_PacketNumber++;
 311:HigherLevelApps/HigherLevelApps.c/User_Interface.c **** 	
 312:HigherLevelApps/HigherLevelApps.c/User_Interface.c **** 	AimingSystem.Graph->graphic_name[0] = 'A';
 313:HigherLevelApps/HigherLevelApps.c/User_Interface.c **** 	AimingSystem.Graph->graphic_name[1] = 'i';
 314:HigherLevelApps/HigherLevelApps.c/User_Interface.c **** 	AimingSystem.Graph->graphic_name[2] = '5';
 315:HigherLevelApps/HigherLevelApps.c/User_Interface.c **** 	AimingSystem.Graph->start_x = (uint32_t) (ShapeTwoDistance * CMToPixel - X_offSet);
 316:HigherLevelApps/HigherLevelApps.c/User_Interface.c **** 	AimingSystem.Graph->start_y = (uint32_t) (ShapeTwoBottom * CMToPixel);
 317:HigherLevelApps/HigherLevelApps.c/User_Interface.c **** 	AimingSystem.Graph->end_x = (uint32_t) (ShapeTwoDistance * CMToPixel - X_offSet);
 318:HigherLevelApps/HigherLevelApps.c/User_Interface.c **** 	AimingSystem.Graph->end_y = (uint32_t) (ShapeTwoTop * CMToPixel);
 319:HigherLevelApps/HigherLevelApps.c/User_Interface.c **** 	AimingSystem.PacketNumber = UI.Global_PacketNumber;
 320:HigherLevelApps/HigherLevelApps.c/User_Interface.c **** 	UI_Add_Frame_And_Data_Header_OneGraphics(&AimingSystem);
 321:HigherLevelApps/HigherLevelApps.c/User_Interface.c **** 	UI_Add_OneGraphics(&AimingSystem);
 322:HigherLevelApps/HigherLevelApps.c/User_Interface.c ****   UI_Add_Frame_Tail_OneGraphics(&AimingSystem);
ARM GAS  C:\Users\purdu\AppData\Local\Temp\ccP1UZx1.s 			page 8


 323:HigherLevelApps/HigherLevelApps.c/User_Interface.c **** 	osDelay(100);
 324:HigherLevelApps/HigherLevelApps.c/User_Interface.c **** 	HAL_UART_Transmit(UART, AimingSystem.dataBuffer, sizeof(AimingSystem.dataBuffer), 500);
 325:HigherLevelApps/HigherLevelApps.c/User_Interface.c **** 	UI.Global_PacketNumber++;
 326:HigherLevelApps/HigherLevelApps.c/User_Interface.c **** 	
 327:HigherLevelApps/HigherLevelApps.c/User_Interface.c **** 	AimingSystem.Graph->graphic_name[0] = 'A';
 328:HigherLevelApps/HigherLevelApps.c/User_Interface.c **** 	AimingSystem.Graph->graphic_name[1] = 'i';
 329:HigherLevelApps/HigherLevelApps.c/User_Interface.c **** 	AimingSystem.Graph->graphic_name[2] = '6';
 330:HigherLevelApps/HigherLevelApps.c/User_Interface.c **** 	AimingSystem.Graph->start_x = (uint32_t) ((34.3f - ShapeTwoDistance) * CMToPixel - X_offSet);
 331:HigherLevelApps/HigherLevelApps.c/User_Interface.c **** 	AimingSystem.Graph->start_y = (uint32_t) (ShapeTwoBottom * CMToPixel);
 332:HigherLevelApps/HigherLevelApps.c/User_Interface.c **** 	AimingSystem.Graph->end_x = (uint32_t) ((34.3f - ShapeTwoDistance) * CMToPixel - X_offSet);
 333:HigherLevelApps/HigherLevelApps.c/User_Interface.c **** 	AimingSystem.Graph->end_y = (uint32_t) (ShapeTwoTop * CMToPixel);
 334:HigherLevelApps/HigherLevelApps.c/User_Interface.c **** 	AimingSystem.PacketNumber = UI.Global_PacketNumber;
 335:HigherLevelApps/HigherLevelApps.c/User_Interface.c **** 	UI_Add_Frame_And_Data_Header_OneGraphics(&AimingSystem);
 336:HigherLevelApps/HigherLevelApps.c/User_Interface.c **** 	UI_Add_OneGraphics(&AimingSystem);
 337:HigherLevelApps/HigherLevelApps.c/User_Interface.c ****   UI_Add_Frame_Tail_OneGraphics(&AimingSystem);
 338:HigherLevelApps/HigherLevelApps.c/User_Interface.c **** 	osDelay(100);
 339:HigherLevelApps/HigherLevelApps.c/User_Interface.c **** 	HAL_UART_Transmit(UART, AimingSystem.dataBuffer, sizeof(AimingSystem.dataBuffer), 500);
 340:HigherLevelApps/HigherLevelApps.c/User_Interface.c **** 	UI.Global_PacketNumber++;
 341:HigherLevelApps/HigherLevelApps.c/User_Interface.c **** 
 342:HigherLevelApps/HigherLevelApps.c/User_Interface.c **** 	AimingSystem.Graph->graphic_name[0] = 'A';
 343:HigherLevelApps/HigherLevelApps.c/User_Interface.c **** 	AimingSystem.Graph->graphic_name[1] = 'i';
 344:HigherLevelApps/HigherLevelApps.c/User_Interface.c **** 	AimingSystem.Graph->graphic_name[2] = '7';
 345:HigherLevelApps/HigherLevelApps.c/User_Interface.c **** 	AimingSystem.Graph->start_x = (uint32_t) (ShapeTwoDistance * CMToPixel - X_offSet);
 346:HigherLevelApps/HigherLevelApps.c/User_Interface.c **** 	AimingSystem.Graph->start_y = (uint32_t) (ShapeTwoTop * CMToPixel);
 347:HigherLevelApps/HigherLevelApps.c/User_Interface.c **** 	AimingSystem.Graph->end_x = (uint32_t) (ShapeThreeDistance * CMToPixel - X_offSet);
 348:HigherLevelApps/HigherLevelApps.c/User_Interface.c **** 	AimingSystem.Graph->end_y = (uint32_t) (ShapeThreeBottom * CMToPixel);
 349:HigherLevelApps/HigherLevelApps.c/User_Interface.c **** 	AimingSystem.PacketNumber = UI.Global_PacketNumber;
 350:HigherLevelApps/HigherLevelApps.c/User_Interface.c **** 	UI_Add_Frame_And_Data_Header_OneGraphics(&AimingSystem);
 351:HigherLevelApps/HigherLevelApps.c/User_Interface.c **** 	UI_Add_OneGraphics(&AimingSystem);
 352:HigherLevelApps/HigherLevelApps.c/User_Interface.c ****   UI_Add_Frame_Tail_OneGraphics(&AimingSystem);
 353:HigherLevelApps/HigherLevelApps.c/User_Interface.c **** 	osDelay(100);
 354:HigherLevelApps/HigherLevelApps.c/User_Interface.c **** 	HAL_UART_Transmit(UART, AimingSystem.dataBuffer, sizeof(AimingSystem.dataBuffer), 500);
 355:HigherLevelApps/HigherLevelApps.c/User_Interface.c **** 	UI.Global_PacketNumber++;
 356:HigherLevelApps/HigherLevelApps.c/User_Interface.c **** 	
 357:HigherLevelApps/HigherLevelApps.c/User_Interface.c **** 	AimingSystem.Graph->graphic_name[0] = 'A';
 358:HigherLevelApps/HigherLevelApps.c/User_Interface.c **** 	AimingSystem.Graph->graphic_name[1] = 'i';
 359:HigherLevelApps/HigherLevelApps.c/User_Interface.c **** 	AimingSystem.Graph->graphic_name[2] = '8';
 360:HigherLevelApps/HigherLevelApps.c/User_Interface.c **** 	AimingSystem.Graph->start_x = (34.3f - ShapeTwoDistance) * CMToPixel - X_offSet;
 361:HigherLevelApps/HigherLevelApps.c/User_Interface.c **** 	AimingSystem.Graph->start_y = ShapeTwoTop * CMToPixel;
 362:HigherLevelApps/HigherLevelApps.c/User_Interface.c **** 	AimingSystem.Graph->end_x = (34.3f - ShapeThreeDistance) * CMToPixel - X_offSet;
 363:HigherLevelApps/HigherLevelApps.c/User_Interface.c **** 	AimingSystem.Graph->end_y = ShapeThreeBottom * CMToPixel;
 364:HigherLevelApps/HigherLevelApps.c/User_Interface.c **** 	AimingSystem.PacketNumber = UI.Global_PacketNumber;
 365:HigherLevelApps/HigherLevelApps.c/User_Interface.c **** 	UI_Add_Frame_And_Data_Header_OneGraphics(&AimingSystem);
 366:HigherLevelApps/HigherLevelApps.c/User_Interface.c **** 	UI_Add_OneGraphics(&AimingSystem);
 367:HigherLevelApps/HigherLevelApps.c/User_Interface.c ****   UI_Add_Frame_Tail_OneGraphics(&AimingSystem);
 368:HigherLevelApps/HigherLevelApps.c/User_Interface.c **** 	osDelay(100);
 369:HigherLevelApps/HigherLevelApps.c/User_Interface.c **** 	HAL_UART_Transmit(UART, AimingSystem.dataBuffer, sizeof(AimingSystem.dataBuffer), 500);
 370:HigherLevelApps/HigherLevelApps.c/User_Interface.c **** 	UI.Global_PacketNumber++;
 371:HigherLevelApps/HigherLevelApps.c/User_Interface.c **** 	
 372:HigherLevelApps/HigherLevelApps.c/User_Interface.c **** 	AimingSystem.Graph->graphic_name[0] = 'A';
 373:HigherLevelApps/HigherLevelApps.c/User_Interface.c **** 	AimingSystem.Graph->graphic_name[1] = 'i';
 374:HigherLevelApps/HigherLevelApps.c/User_Interface.c **** 	AimingSystem.Graph->graphic_name[2] = '9';
 375:HigherLevelApps/HigherLevelApps.c/User_Interface.c **** 	AimingSystem.Graph->start_x = ShapeThreeDistance * CMToPixel - X_offSet;
 376:HigherLevelApps/HigherLevelApps.c/User_Interface.c **** 	AimingSystem.Graph->start_y = ShapeThreeBottom * CMToPixel;
 377:HigherLevelApps/HigherLevelApps.c/User_Interface.c **** 	AimingSystem.Graph->end_x = ShapeThreeDistance * CMToPixel - X_offSet;
 378:HigherLevelApps/HigherLevelApps.c/User_Interface.c **** 	AimingSystem.Graph->end_y = ShapeThreeTop * CMToPixel;
 379:HigherLevelApps/HigherLevelApps.c/User_Interface.c **** 	AimingSystem.PacketNumber = UI.Global_PacketNumber;
ARM GAS  C:\Users\purdu\AppData\Local\Temp\ccP1UZx1.s 			page 9


 380:HigherLevelApps/HigherLevelApps.c/User_Interface.c **** 	UI_Add_Frame_And_Data_Header_OneGraphics(&AimingSystem);
 381:HigherLevelApps/HigherLevelApps.c/User_Interface.c **** 	UI_Add_OneGraphics(&AimingSystem);
 382:HigherLevelApps/HigherLevelApps.c/User_Interface.c ****   UI_Add_Frame_Tail_OneGraphics(&AimingSystem);
 383:HigherLevelApps/HigherLevelApps.c/User_Interface.c **** 	osDelay(100);
 384:HigherLevelApps/HigherLevelApps.c/User_Interface.c **** 	HAL_UART_Transmit(UART, AimingSystem.dataBuffer, sizeof(AimingSystem.dataBuffer), 500);
 385:HigherLevelApps/HigherLevelApps.c/User_Interface.c **** 	UI.Global_PacketNumber++;
 386:HigherLevelApps/HigherLevelApps.c/User_Interface.c **** 	
 387:HigherLevelApps/HigherLevelApps.c/User_Interface.c **** 	AimingSystem.Graph->graphic_name[0] = 'A';
 388:HigherLevelApps/HigherLevelApps.c/User_Interface.c **** 	AimingSystem.Graph->graphic_name[1] = 'i';
 389:HigherLevelApps/HigherLevelApps.c/User_Interface.c **** 	AimingSystem.Graph->graphic_name[2] = '0';
 390:HigherLevelApps/HigherLevelApps.c/User_Interface.c **** 	AimingSystem.Graph->start_x = (34.3f - ShapeThreeDistance) * CMToPixel - X_offSet;
 391:HigherLevelApps/HigherLevelApps.c/User_Interface.c **** 	AimingSystem.Graph->start_y = ShapeThreeBottom * CMToPixel;
 392:HigherLevelApps/HigherLevelApps.c/User_Interface.c **** 	AimingSystem.Graph->end_x = (34.3f - ShapeThreeDistance) * CMToPixel - X_offSet;
 393:HigherLevelApps/HigherLevelApps.c/User_Interface.c **** 	AimingSystem.Graph->end_y = ShapeThreeTop * CMToPixel;
 394:HigherLevelApps/HigherLevelApps.c/User_Interface.c **** 	AimingSystem.PacketNumber = UI.Global_PacketNumber;
 395:HigherLevelApps/HigherLevelApps.c/User_Interface.c **** 	UI_Add_Frame_And_Data_Header_OneGraphics(&AimingSystem);
 396:HigherLevelApps/HigherLevelApps.c/User_Interface.c **** 	UI_Add_OneGraphics(&AimingSystem);
 397:HigherLevelApps/HigherLevelApps.c/User_Interface.c ****   UI_Add_Frame_Tail_OneGraphics(&AimingSystem);
 398:HigherLevelApps/HigherLevelApps.c/User_Interface.c **** 	osDelay(100);
 399:HigherLevelApps/HigherLevelApps.c/User_Interface.c **** 	HAL_UART_Transmit(UART, AimingSystem.dataBuffer, sizeof(AimingSystem.dataBuffer), 500);
 400:HigherLevelApps/HigherLevelApps.c/User_Interface.c **** 	UI.Global_PacketNumber++;
 401:HigherLevelApps/HigherLevelApps.c/User_Interface.c **** }
 402:HigherLevelApps/HigherLevelApps.c/User_Interface.c **** 
 403:HigherLevelApps/HigherLevelApps.c/User_Interface.c **** void UI_Add_Frame_And_Data_Header_OneGraphics(UI_Init_OneGraphics* UIt)
 404:HigherLevelApps/HigherLevelApps.c/User_Interface.c **** {	
  81              		.loc 1 404 1 is_stmt 1 view -0
  82              		.cfi_startproc
  83              		@ args = 0, pretend = 0, frame = 0
  84              		@ frame_needed = 0, uses_anonymous_args = 0
  85              		.loc 1 404 1 is_stmt 0 view .LVU15
  86 0000 10B5     		push	{r4, lr}
  87              	.LCFI0:
  88              		.cfi_def_cfa_offset 8
  89              		.cfi_offset 4, -8
  90              		.cfi_offset 14, -4
  91 0002 0446     		mov	r4, r0
 405:HigherLevelApps/HigherLevelApps.c/User_Interface.c ****   UIt->dataBuffer[0] = UI_SOF;
  92              		.loc 1 405 3 is_stmt 1 view .LVU16
  93              		.loc 1 405 22 is_stmt 0 view .LVU17
  94 0004 A523     		movs	r3, #165
  95 0006 0370     		strb	r3, [r0]
 406:HigherLevelApps/HigherLevelApps.c/User_Interface.c **** 	UIt->dataBuffer[1] = (UI_Size_Data_Header + UI_Size_Data_OneGraphics) & 0xFF;
  96              		.loc 1 406 2 is_stmt 1 view .LVU18
  97              		.loc 1 406 21 is_stmt 0 view .LVU19
  98 0008 1523     		movs	r3, #21
  99 000a 4370     		strb	r3, [r0, #1]
 407:HigherLevelApps/HigherLevelApps.c/User_Interface.c **** 	UIt->dataBuffer[2] = (UI_Size_Data_Header + UI_Size_Data_OneGraphics) >> 8;
 100              		.loc 1 407 2 is_stmt 1 view .LVU20
 101              		.loc 1 407 21 is_stmt 0 view .LVU21
 102 000c 0023     		movs	r3, #0
 103 000e 8370     		strb	r3, [r0, #2]
 408:HigherLevelApps/HigherLevelApps.c/User_Interface.c ****   UIt->dataBuffer[3] = UIt->PacketNumber;
 104              		.loc 1 408 3 is_stmt 1 view .LVU22
 105              		.loc 1 408 27 is_stmt 0 view .LVU23
 106 0010 90F82030 		ldrb	r3, [r0, #32]	@ zero_extendqisi2
 107              		.loc 1 408 22 view .LVU24
 108 0014 C370     		strb	r3, [r0, #3]
ARM GAS  C:\Users\purdu\AppData\Local\Temp\ccP1UZx1.s 			page 10


 409:HigherLevelApps/HigherLevelApps.c/User_Interface.c ****   CRC_Verif_Func.Append_CRC8_Check_Sum(UIt->dataBuffer, UI_Size_Frame_Header);
 109              		.loc 1 409 3 is_stmt 1 view .LVU25
 110              		.loc 1 409 17 is_stmt 0 view .LVU26
 111 0016 0A4B     		ldr	r3, .L6
 112 0018 9B68     		ldr	r3, [r3, #8]
 113              		.loc 1 409 3 view .LVU27
 114 001a 0521     		movs	r1, #5
 115 001c 9847     		blx	r3
 116              	.LVL1:
 410:HigherLevelApps/HigherLevelApps.c/User_Interface.c **** 	
 411:HigherLevelApps/HigherLevelApps.c/User_Interface.c **** 	UIt->dataBuffer[UI_Size_Frame_Header] = UI_CMD_ID_Robo_Exchange & 0xFF;
 117              		.loc 1 411 2 is_stmt 1 view .LVU28
 118              		.loc 1 411 40 is_stmt 0 view .LVU29
 119 001e 0123     		movs	r3, #1
 120 0020 6371     		strb	r3, [r4, #5]
 412:HigherLevelApps/HigherLevelApps.c/User_Interface.c **** 	UIt->dataBuffer[UI_Size_Frame_Header+1] = UI_CMD_ID_Robo_Exchange >> 8;
 121              		.loc 1 412 2 is_stmt 1 view .LVU30
 122              		.loc 1 412 42 is_stmt 0 view .LVU31
 123 0022 0322     		movs	r2, #3
 124 0024 A271     		strb	r2, [r4, #6]
 413:HigherLevelApps/HigherLevelApps.c/User_Interface.c **** 	
 414:HigherLevelApps/HigherLevelApps.c/User_Interface.c **** 	UIt->dataBuffer[UI_Size_Frame_Header + UI_Size_CMD_ID + 0] = UI_Data_ID_Draw1 & 0xFF;
 125              		.loc 1 414 2 is_stmt 1 view .LVU32
 126              		.loc 1 414 61 is_stmt 0 view .LVU33
 127 0026 E371     		strb	r3, [r4, #7]
 415:HigherLevelApps/HigherLevelApps.c/User_Interface.c **** 	UIt->dataBuffer[UI_Size_Frame_Header + UI_Size_CMD_ID + 1] = UI_Data_ID_Draw1 >> 8;
 128              		.loc 1 415 2 is_stmt 1 view .LVU34
 129              		.loc 1 415 61 is_stmt 0 view .LVU35
 130 0028 2372     		strb	r3, [r4, #8]
 416:HigherLevelApps/HigherLevelApps.c/User_Interface.c **** 	
 417:HigherLevelApps/HigherLevelApps.c/User_Interface.c **** 	UIt->dataBuffer[UI_Size_Frame_Header + UI_Size_CMD_ID + 2] = UI.Robot_ID & 0xFF;
 131              		.loc 1 417 2 is_stmt 1 view .LVU36
 132              		.loc 1 417 65 is_stmt 0 view .LVU37
 133 002a 064A     		ldr	r2, .L6+4
 134 002c 1388     		ldrh	r3, [r2]
 135              		.loc 1 417 61 view .LVU38
 136 002e 6372     		strb	r3, [r4, #9]
 418:HigherLevelApps/HigherLevelApps.c/User_Interface.c **** 	UIt->dataBuffer[UI_Size_Frame_Header + UI_Size_CMD_ID + 3] = UI.Robot_ID >> 8;
 137              		.loc 1 418 2 is_stmt 1 view .LVU39
 138              		.loc 1 418 61 is_stmt 0 view .LVU40
 139 0030 1B0A     		lsrs	r3, r3, #8
 140 0032 A372     		strb	r3, [r4, #10]
 419:HigherLevelApps/HigherLevelApps.c/User_Interface.c **** 	
 420:HigherLevelApps/HigherLevelApps.c/User_Interface.c **** 	UIt->dataBuffer[UI_Size_Frame_Header + UI_Size_CMD_ID + 4] = UI.Pilot_ID & 0xFF;
 141              		.loc 1 420 2 is_stmt 1 view .LVU41
 142              		.loc 1 420 65 is_stmt 0 view .LVU42
 143 0034 5388     		ldrh	r3, [r2, #2]
 144              		.loc 1 420 61 view .LVU43
 145 0036 E372     		strb	r3, [r4, #11]
 421:HigherLevelApps/HigherLevelApps.c/User_Interface.c **** 	UIt->dataBuffer[UI_Size_Frame_Header + UI_Size_CMD_ID + 5] = UI.Pilot_ID >> 8;
 146              		.loc 1 421 2 is_stmt 1 view .LVU44
 147              		.loc 1 421 61 is_stmt 0 view .LVU45
 148 0038 1B0A     		lsrs	r3, r3, #8
 149 003a 2373     		strb	r3, [r4, #12]
 422:HigherLevelApps/HigherLevelApps.c/User_Interface.c **** }
 150              		.loc 1 422 1 view .LVU46
 151 003c 10BD     		pop	{r4, pc}
ARM GAS  C:\Users\purdu\AppData\Local\Temp\ccP1UZx1.s 			page 11


 152              	.LVL2:
 153              	.L7:
 154              		.loc 1 422 1 view .LVU47
 155 003e 00BF     		.align	2
 156              	.L6:
 157 0040 00000000 		.word	CRC_Verif_Func
 158 0044 00000000 		.word	UI
 159              		.cfi_endproc
 160              	.LFE145:
 162              		.section	.text.UI_Add_OneGraphics,"ax",%progbits
 163              		.align	1
 164              		.global	UI_Add_OneGraphics
 165              		.syntax unified
 166              		.thumb
 167              		.thumb_func
 169              	UI_Add_OneGraphics:
 170              	.LVL3:
 171              	.LFB146:
 423:HigherLevelApps/HigherLevelApps.c/User_Interface.c **** 
 424:HigherLevelApps/HigherLevelApps.c/User_Interface.c **** void UI_Add_OneGraphics(UI_Init_OneGraphics* UIt)
 425:HigherLevelApps/HigherLevelApps.c/User_Interface.c **** {
 172              		.loc 1 425 1 is_stmt 1 view -0
 173              		.cfi_startproc
 174              		@ args = 0, pretend = 0, frame = 0
 175              		@ frame_needed = 0, uses_anonymous_args = 0
 176              		@ link register save eliminated.
 426:HigherLevelApps/HigherLevelApps.c/User_Interface.c **** 	uint8_t* byteArray = (uint8_t*)&(UIt->Graph);
 177              		.loc 1 426 2 view .LVU49
 427:HigherLevelApps/HigherLevelApps.c/User_Interface.c ****   memcpy(&UIt->dataBuffer[UI_Size_Frame_Header + UI_Size_CMD_ID + UI_Size_Data_Header], byteArray, 
 178              		.loc 1 427 3 view .LVU50
 179 0000 D0F82110 		ldr	r1, [r0, #33]	@ unaligned
 180 0004 D0F82520 		ldr	r2, [r0, #37]	@ unaligned
 181 0008 D0F82930 		ldr	r3, [r0, #41]	@ unaligned
 182 000c C0F80D10 		str	r1, [r0, #13]	@ unaligned
 183 0010 C0F81120 		str	r2, [r0, #17]	@ unaligned
 184 0014 C0F81530 		str	r3, [r0, #21]	@ unaligned
 185 0018 B0F82D20 		ldrh	r2, [r0, #45]	@ unaligned
 186 001c 90F82F30 		ldrb	r3, [r0, #47]	@ zero_extendqisi2
 187 0020 A0F81920 		strh	r2, [r0, #25]	@ unaligned
 188 0024 C376     		strb	r3, [r0, #27]
 428:HigherLevelApps/HigherLevelApps.c/User_Interface.c **** }
 189              		.loc 1 428 1 is_stmt 0 view .LVU51
 190 0026 7047     		bx	lr
 191              		.cfi_endproc
 192              	.LFE146:
 194              		.section	.text.UI_Add_Frame_Tail_OneGraphics,"ax",%progbits
 195              		.align	1
 196              		.global	UI_Add_Frame_Tail_OneGraphics
 197              		.syntax unified
 198              		.thumb
 199              		.thumb_func
 201              	UI_Add_Frame_Tail_OneGraphics:
 202              	.LVL4:
 203              	.LFB147:
 429:HigherLevelApps/HigherLevelApps.c/User_Interface.c **** 
 430:HigherLevelApps/HigherLevelApps.c/User_Interface.c **** void UI_Add_Frame_Tail_OneGraphics(UI_Init_OneGraphics* UIt)
 431:HigherLevelApps/HigherLevelApps.c/User_Interface.c **** {
ARM GAS  C:\Users\purdu\AppData\Local\Temp\ccP1UZx1.s 			page 12


 204              		.loc 1 431 1 is_stmt 1 view -0
 205              		.cfi_startproc
 206              		@ args = 0, pretend = 0, frame = 0
 207              		@ frame_needed = 0, uses_anonymous_args = 0
 208              		.loc 1 431 1 is_stmt 0 view .LVU53
 209 0000 08B5     		push	{r3, lr}
 210              	.LCFI1:
 211              		.cfi_def_cfa_offset 8
 212              		.cfi_offset 3, -8
 213              		.cfi_offset 14, -4
 432:HigherLevelApps/HigherLevelApps.c/User_Interface.c **** 	CRC_Verif_Func.Append_CRC16_Check_Sum(UIt->dataBuffer, UI_Size_Frame_Header + UI_Size_CMD_ID + UI_
 214              		.loc 1 432 2 is_stmt 1 view .LVU54
 215              		.loc 1 432 16 is_stmt 0 view .LVU55
 216 0002 024B     		ldr	r3, .L11
 217 0004 5B69     		ldr	r3, [r3, #20]
 218              		.loc 1 432 2 view .LVU56
 219 0006 1E21     		movs	r1, #30
 220 0008 9847     		blx	r3
 221              	.LVL5:
 433:HigherLevelApps/HigherLevelApps.c/User_Interface.c **** }
 222              		.loc 1 433 1 view .LVU57
 223 000a 08BD     		pop	{r3, pc}
 224              	.L12:
 225              		.align	2
 226              	.L11:
 227 000c 00000000 		.word	CRC_Verif_Func
 228              		.cfi_endproc
 229              	.LFE147:
 231              		.section	.text.UI_GuidingSystem,"ax",%progbits
 232              		.align	1
 233              		.global	UI_GuidingSystem
 234              		.syntax unified
 235              		.thumb
 236              		.thumb_func
 238              	UI_GuidingSystem:
 239              	.LFB143:
 163:HigherLevelApps/HigherLevelApps.c/User_Interface.c **** 	//Two Line System
 240              		.loc 1 163 1 is_stmt 1 view -0
 241              		.cfi_startproc
 242              		@ args = 0, pretend = 0, frame = 0
 243              		@ frame_needed = 0, uses_anonymous_args = 0
 244 0000 2DE9F047 		push	{r4, r5, r6, r7, r8, r9, r10, lr}
 245              	.LCFI2:
 246              		.cfi_def_cfa_offset 32
 247              		.cfi_offset 4, -32
 248              		.cfi_offset 5, -28
 249              		.cfi_offset 6, -24
 250              		.cfi_offset 7, -20
 251              		.cfi_offset 8, -16
 252              		.cfi_offset 9, -12
 253              		.cfi_offset 10, -8
 254              		.cfi_offset 14, -4
 165:HigherLevelApps/HigherLevelApps.c/User_Interface.c **** 	float LineOneStartY = 0;
 255              		.loc 1 165 2 view .LVU59
 256              	.LVL6:
 166:HigherLevelApps/HigherLevelApps.c/User_Interface.c **** 	float LineOneEndX = 13.9;  //14
 257              		.loc 1 166 2 view .LVU60
ARM GAS  C:\Users\purdu\AppData\Local\Temp\ccP1UZx1.s 			page 13


 167:HigherLevelApps/HigherLevelApps.c/User_Interface.c **** 	float LineOneEndY = 47.2;  //2
 258              		.loc 1 167 2 view .LVU61
 168:HigherLevelApps/HigherLevelApps.c/User_Interface.c **** 	float X_offSet = 0;
 259              		.loc 1 168 2 view .LVU62
 169:HigherLevelApps/HigherLevelApps.c/User_Interface.c **** 	
 260              		.loc 1 169 2 view .LVU63
 171:HigherLevelApps/HigherLevelApps.c/User_Interface.c **** 	AimingSystem.Graph->graphic_name[1] = '0';
 261              		.loc 1 171 2 view .LVU64
 171:HigherLevelApps/HigherLevelApps.c/User_Interface.c **** 	AimingSystem.Graph->graphic_name[1] = '0';
 262              		.loc 1 171 38 is_stmt 0 view .LVU65
 263 0004 584C     		ldr	r4, .L15
 264 0006 3023     		movs	r3, #48
 265 0008 84F82130 		strb	r3, [r4, #33]
 172:HigherLevelApps/HigherLevelApps.c/User_Interface.c **** 	AimingSystem.Graph->graphic_name[2] = '0';
 266              		.loc 1 172 2 is_stmt 1 view .LVU66
 172:HigherLevelApps/HigherLevelApps.c/User_Interface.c **** 	AimingSystem.Graph->graphic_name[2] = '0';
 267              		.loc 1 172 38 is_stmt 0 view .LVU67
 268 000c 84F82230 		strb	r3, [r4, #34]
 173:HigherLevelApps/HigherLevelApps.c/User_Interface.c **** 	AimingSystem.Graph->operate_type = UI_Graph_Add;
 269              		.loc 1 173 2 is_stmt 1 view .LVU68
 173:HigherLevelApps/HigherLevelApps.c/User_Interface.c **** 	AimingSystem.Graph->operate_type = UI_Graph_Add;
 270              		.loc 1 173 38 is_stmt 0 view .LVU69
 271 0010 84F82330 		strb	r3, [r4, #35]
 174:HigherLevelApps/HigherLevelApps.c/User_Interface.c **** 	AimingSystem.Graph->graphic_type = UI_Graph_Line;
 272              		.loc 1 174 2 is_stmt 1 view .LVU70
 174:HigherLevelApps/HigherLevelApps.c/User_Interface.c **** 	AimingSystem.Graph->graphic_type = UI_Graph_Line;
 273              		.loc 1 174 35 is_stmt 0 view .LVU71
 274 0014 94F82430 		ldrb	r3, [r4, #36]	@ zero_extendqisi2
 275 0018 0122     		movs	r2, #1
 276 001a 62F30203 		bfi	r3, r2, #0, #3
 277 001e 84F82430 		strb	r3, [r4, #36]
 175:HigherLevelApps/HigherLevelApps.c/User_Interface.c **** 	AimingSystem.Graph->layer = 7;
 278              		.loc 1 175 2 is_stmt 1 view .LVU72
 175:HigherLevelApps/HigherLevelApps.c/User_Interface.c **** 	AimingSystem.Graph->layer = 7;
 279              		.loc 1 175 35 is_stmt 0 view .LVU73
 280 0022 DBB2     		uxtb	r3, r3
 281 0024 6FF3C503 		bfc	r3, #3, #3
 282 0028 84F82430 		strb	r3, [r4, #36]
 176:HigherLevelApps/HigherLevelApps.c/User_Interface.c **** 	AimingSystem.Graph->color = UI_Color_Purplish_red;
 283              		.loc 1 176 2 is_stmt 1 view .LVU74
 176:HigherLevelApps/HigherLevelApps.c/User_Interface.c **** 	AimingSystem.Graph->color = UI_Color_Purplish_red;
 284              		.loc 1 176 28 is_stmt 0 view .LVU75
 285 002c A38C     		ldrh	r3, [r4, #36]
 286 002e 0722     		movs	r2, #7
 287 0030 62F38913 		bfi	r3, r2, #6, #4
 288 0034 A384     		strh	r3, [r4, #36]	@ movhi
 177:HigherLevelApps/HigherLevelApps.c/User_Interface.c **** 	AimingSystem.Graph->start_angle = 0;
 289              		.loc 1 177 2 is_stmt 1 view .LVU76
 177:HigherLevelApps/HigherLevelApps.c/User_Interface.c **** 	AimingSystem.Graph->start_angle = 0;
 290              		.loc 1 177 28 is_stmt 0 view .LVU77
 291 0036 94F82530 		ldrb	r3, [r4, #37]	@ zero_extendqisi2
 292 003a 0422     		movs	r2, #4
 293 003c 62F38503 		bfi	r3, r2, #2, #4
 294 0040 84F82530 		strb	r3, [r4, #37]
 178:HigherLevelApps/HigherLevelApps.c/User_Interface.c **** 	AimingSystem.Graph->end_angle = 0;
 295              		.loc 1 178 2 is_stmt 1 view .LVU78
 178:HigherLevelApps/HigherLevelApps.c/User_Interface.c **** 	AimingSystem.Graph->end_angle = 0;
ARM GAS  C:\Users\purdu\AppData\Local\Temp\ccP1UZx1.s 			page 14


 296              		.loc 1 178 34 is_stmt 0 view .LVU79
 297 0044 636A     		ldr	r3, [r4, #36]
 298 0046 6FF39633 		bfc	r3, #14, #9
 299 004a 6362     		str	r3, [r4, #36]
 179:HigherLevelApps/HigherLevelApps.c/User_Interface.c **** 	AimingSystem.Graph->width = 5;
 300              		.loc 1 179 2 is_stmt 1 view .LVU80
 179:HigherLevelApps/HigherLevelApps.c/User_Interface.c **** 	AimingSystem.Graph->width = 5;
 301              		.loc 1 179 32 is_stmt 0 view .LVU81
 302 004c E38C     		ldrh	r3, [r4, #38]
 303 004e 6FF3CF13 		bfc	r3, #7, #9
 304 0052 E384     		strh	r3, [r4, #38]	@ movhi
 180:HigherLevelApps/HigherLevelApps.c/User_Interface.c **** 	AimingSystem.Graph->start_x = 0;
 305              		.loc 1 180 2 is_stmt 1 view .LVU82
 180:HigherLevelApps/HigherLevelApps.c/User_Interface.c **** 	AimingSystem.Graph->start_x = 0;
 306              		.loc 1 180 28 is_stmt 0 view .LVU83
 307 0054 238D     		ldrh	r3, [r4, #40]
 308 0056 0522     		movs	r2, #5
 309 0058 62F30903 		bfi	r3, r2, #0, #10
 310 005c 2385     		strh	r3, [r4, #40]	@ movhi
 181:HigherLevelApps/HigherLevelApps.c/User_Interface.c **** 	AimingSystem.Graph->start_y = 0;
 311              		.loc 1 181 2 is_stmt 1 view .LVU84
 181:HigherLevelApps/HigherLevelApps.c/User_Interface.c **** 	AimingSystem.Graph->start_y = 0;
 312              		.loc 1 181 30 is_stmt 0 view .LVU85
 313 005e A36A     		ldr	r3, [r4, #40]
 314 0060 6FF39423 		bfc	r3, #10, #11
 315 0064 A362     		str	r3, [r4, #40]
 182:HigherLevelApps/HigherLevelApps.c/User_Interface.c **** 	AimingSystem.Graph->radius = 0;
 316              		.loc 1 182 2 is_stmt 1 view .LVU86
 182:HigherLevelApps/HigherLevelApps.c/User_Interface.c **** 	AimingSystem.Graph->radius = 0;
 317              		.loc 1 182 30 is_stmt 0 view .LVU87
 318 0066 638D     		ldrh	r3, [r4, #42]
 319 0068 6FF34F13 		bfc	r3, #5, #11
 320 006c 6385     		strh	r3, [r4, #42]	@ movhi
 183:HigherLevelApps/HigherLevelApps.c/User_Interface.c **** 	AimingSystem.Graph->end_x = 0;
 321              		.loc 1 183 2 is_stmt 1 view .LVU88
 183:HigherLevelApps/HigherLevelApps.c/User_Interface.c **** 	AimingSystem.Graph->end_x = 0;
 322              		.loc 1 183 29 is_stmt 0 view .LVU89
 323 006e A38D     		ldrh	r3, [r4, #44]
 324 0070 6FF30903 		bfc	r3, #0, #10
 325 0074 A385     		strh	r3, [r4, #44]	@ movhi
 184:HigherLevelApps/HigherLevelApps.c/User_Interface.c **** 	AimingSystem.Graph->end_y = 0;
 326              		.loc 1 184 2 is_stmt 1 view .LVU90
 184:HigherLevelApps/HigherLevelApps.c/User_Interface.c **** 	AimingSystem.Graph->end_y = 0;
 327              		.loc 1 184 28 is_stmt 0 view .LVU91
 328 0076 E36A     		ldr	r3, [r4, #44]
 329 0078 6FF39423 		bfc	r3, #10, #11
 330 007c E362     		str	r3, [r4, #44]
 185:HigherLevelApps/HigherLevelApps.c/User_Interface.c **** 	
 331              		.loc 1 185 2 is_stmt 1 view .LVU92
 185:HigherLevelApps/HigherLevelApps.c/User_Interface.c **** 	
 332              		.loc 1 185 28 is_stmt 0 view .LVU93
 333 007e E38D     		ldrh	r3, [r4, #46]
 334 0080 6FF34F13 		bfc	r3, #5, #11
 335 0084 E385     		strh	r3, [r4, #46]	@ movhi
 187:HigherLevelApps/HigherLevelApps.c/User_Interface.c **** 	
 336              		.loc 1 187 2 is_stmt 1 view .LVU94
 187:HigherLevelApps/HigherLevelApps.c/User_Interface.c **** 	
ARM GAS  C:\Users\purdu\AppData\Local\Temp\ccP1UZx1.s 			page 15


 337              		.loc 1 187 27 is_stmt 0 view .LVU95
 338 0086 1E26     		movs	r6, #30
 339 0088 E683     		strh	r6, [r4, #30]	@ movhi
 189:HigherLevelApps/HigherLevelApps.c/User_Interface.c **** 	AimingSystem.Graph->graphic_name[1] = 'u';
 340              		.loc 1 189 2 is_stmt 1 view .LVU96
 189:HigherLevelApps/HigherLevelApps.c/User_Interface.c **** 	AimingSystem.Graph->graphic_name[1] = 'u';
 341              		.loc 1 189 38 is_stmt 0 view .LVU97
 342 008a 4FF0470A 		mov	r10, #71
 343 008e 84F821A0 		strb	r10, [r4, #33]
 190:HigherLevelApps/HigherLevelApps.c/User_Interface.c **** 	AimingSystem.Graph->graphic_name[2] = '1';
 344              		.loc 1 190 2 is_stmt 1 view .LVU98
 190:HigherLevelApps/HigherLevelApps.c/User_Interface.c **** 	AimingSystem.Graph->graphic_name[2] = '1';
 345              		.loc 1 190 38 is_stmt 0 view .LVU99
 346 0092 4FF07509 		mov	r9, #117
 347 0096 84F82290 		strb	r9, [r4, #34]
 191:HigherLevelApps/HigherLevelApps.c/User_Interface.c **** 	AimingSystem.Graph->start_x = (uint32_t) (LineOneStartX * CMToPixel - X_offSet);
 348              		.loc 1 191 2 is_stmt 1 view .LVU100
 191:HigherLevelApps/HigherLevelApps.c/User_Interface.c **** 	AimingSystem.Graph->start_x = (uint32_t) (LineOneStartX * CMToPixel - X_offSet);
 349              		.loc 1 191 38 is_stmt 0 view .LVU101
 350 009a 3123     		movs	r3, #49
 351 009c 84F82330 		strb	r3, [r4, #35]
 192:HigherLevelApps/HigherLevelApps.c/User_Interface.c **** 	AimingSystem.Graph->start_y = (uint32_t) (LineOneStartY * CMToPixel);
 352              		.loc 1 192 2 is_stmt 1 view .LVU102
 192:HigherLevelApps/HigherLevelApps.c/User_Interface.c **** 	AimingSystem.Graph->start_y = (uint32_t) (LineOneStartY * CMToPixel);
 353              		.loc 1 192 30 is_stmt 0 view .LVU103
 354 00a0 A36A     		ldr	r3, [r4, #40]
 355 00a2 4FF41E72 		mov	r2, #632
 356 00a6 62F39423 		bfi	r3, r2, #10, #11
 357 00aa A362     		str	r3, [r4, #40]
 193:HigherLevelApps/HigherLevelApps.c/User_Interface.c **** 	AimingSystem.Graph->end_x = (uint32_t) (LineOneEndX * CMToPixel - X_offSet);
 358              		.loc 1 193 2 is_stmt 1 view .LVU104
 194:HigherLevelApps/HigherLevelApps.c/User_Interface.c **** 	AimingSystem.Graph->end_y = (uint32_t) (LineOneEndY * CMToPixel);
 359              		.loc 1 194 2 view .LVU105
 194:HigherLevelApps/HigherLevelApps.c/User_Interface.c **** 	AimingSystem.Graph->end_y = (uint32_t) (LineOneEndY * CMToPixel);
 360              		.loc 1 194 28 is_stmt 0 view .LVU106
 361 00ac E36A     		ldr	r3, [r4, #44]
 362 00ae 40F20A32 		movw	r2, #778
 363 00b2 62F39423 		bfi	r3, r2, #10, #11
 364 00b6 E362     		str	r3, [r4, #44]
 195:HigherLevelApps/HigherLevelApps.c/User_Interface.c **** 	AimingSystem.PacketNumber = UI.Global_PacketNumber;
 365              		.loc 1 195 2 is_stmt 1 view .LVU107
 195:HigherLevelApps/HigherLevelApps.c/User_Interface.c **** 	AimingSystem.PacketNumber = UI.Global_PacketNumber;
 366              		.loc 1 195 28 is_stmt 0 view .LVU108
 367 00b8 E38D     		ldrh	r3, [r4, #46]
 368 00ba 40F25328 		movw	r8, #595
 369 00be 68F34F13 		bfi	r3, r8, #5, #11
 370 00c2 E385     		strh	r3, [r4, #46]	@ movhi
 196:HigherLevelApps/HigherLevelApps.c/User_Interface.c **** 	UI_Add_Frame_And_Data_Header_OneGraphics(&AimingSystem);
 371              		.loc 1 196 2 is_stmt 1 view .LVU109
 196:HigherLevelApps/HigherLevelApps.c/User_Interface.c **** 	UI_Add_Frame_And_Data_Header_OneGraphics(&AimingSystem);
 372              		.loc 1 196 32 is_stmt 0 view .LVU110
 373 00c4 294D     		ldr	r5, .L15+4
 374 00c6 EB79     		ldrb	r3, [r5, #7]	@ zero_extendqisi2
 196:HigherLevelApps/HigherLevelApps.c/User_Interface.c **** 	UI_Add_Frame_And_Data_Header_OneGraphics(&AimingSystem);
 375              		.loc 1 196 28 view .LVU111
 376 00c8 84F82030 		strb	r3, [r4, #32]
 197:HigherLevelApps/HigherLevelApps.c/User_Interface.c **** 	UI_Add_OneGraphics(&AimingSystem);
ARM GAS  C:\Users\purdu\AppData\Local\Temp\ccP1UZx1.s 			page 16


 377              		.loc 1 197 2 is_stmt 1 view .LVU112
 378 00cc 2046     		mov	r0, r4
 379 00ce FFF7FEFF 		bl	UI_Add_Frame_And_Data_Header_OneGraphics
 380              	.LVL7:
 198:HigherLevelApps/HigherLevelApps.c/User_Interface.c ****   UI_Add_Frame_Tail_OneGraphics(&AimingSystem);
 381              		.loc 1 198 2 view .LVU113
 382 00d2 2046     		mov	r0, r4
 383 00d4 FFF7FEFF 		bl	UI_Add_OneGraphics
 384              	.LVL8:
 199:HigherLevelApps/HigherLevelApps.c/User_Interface.c **** 	osDelay(100);
 385              		.loc 1 199 3 view .LVU114
 386 00d8 2046     		mov	r0, r4
 387 00da FFF7FEFF 		bl	UI_Add_Frame_Tail_OneGraphics
 388              	.LVL9:
 200:HigherLevelApps/HigherLevelApps.c/User_Interface.c **** 	HAL_UART_Transmit(UART, AimingSystem.dataBuffer, sizeof(AimingSystem.dataBuffer), 5000);
 389              		.loc 1 200 2 view .LVU115
 390 00de 6420     		movs	r0, #100
 391 00e0 FFF7FEFF 		bl	osDelay
 392              	.LVL10:
 201:HigherLevelApps/HigherLevelApps.c/User_Interface.c **** 	UI.Global_PacketNumber++;
 393              		.loc 1 201 2 view .LVU116
 394 00e4 224F     		ldr	r7, .L15+8
 395 00e6 41F28833 		movw	r3, #5000
 396 00ea 3246     		mov	r2, r6
 397 00ec 2146     		mov	r1, r4
 398 00ee 3846     		mov	r0, r7
 399 00f0 FFF7FEFF 		bl	HAL_UART_Transmit
 400              	.LVL11:
 202:HigherLevelApps/HigherLevelApps.c/User_Interface.c **** 	
 401              		.loc 1 202 2 view .LVU117
 202:HigherLevelApps/HigherLevelApps.c/User_Interface.c **** 	
 402              		.loc 1 202 4 is_stmt 0 view .LVU118
 403 00f4 EB79     		ldrb	r3, [r5, #7]	@ zero_extendqisi2
 202:HigherLevelApps/HigherLevelApps.c/User_Interface.c **** 	
 404              		.loc 1 202 24 view .LVU119
 405 00f6 0133     		adds	r3, r3, #1
 406 00f8 DBB2     		uxtb	r3, r3
 407 00fa EB71     		strb	r3, [r5, #7]
 204:HigherLevelApps/HigherLevelApps.c/User_Interface.c **** 	AimingSystem.Graph->graphic_name[1] = 'u';
 408              		.loc 1 204 2 is_stmt 1 view .LVU120
 204:HigherLevelApps/HigherLevelApps.c/User_Interface.c **** 	AimingSystem.Graph->graphic_name[1] = 'u';
 409              		.loc 1 204 38 is_stmt 0 view .LVU121
 410 00fc 84F821A0 		strb	r10, [r4, #33]
 205:HigherLevelApps/HigherLevelApps.c/User_Interface.c **** 	AimingSystem.Graph->graphic_name[2] = '2';
 411              		.loc 1 205 2 is_stmt 1 view .LVU122
 205:HigherLevelApps/HigherLevelApps.c/User_Interface.c **** 	AimingSystem.Graph->graphic_name[2] = '2';
 412              		.loc 1 205 38 is_stmt 0 view .LVU123
 413 0100 84F82290 		strb	r9, [r4, #34]
 206:HigherLevelApps/HigherLevelApps.c/User_Interface.c **** 	AimingSystem.Graph->start_x = (uint32_t) ((34.3f - LineOneStartX) * CMToPixel - X_offSet);
 414              		.loc 1 206 2 is_stmt 1 view .LVU124
 206:HigherLevelApps/HigherLevelApps.c/User_Interface.c **** 	AimingSystem.Graph->start_x = (uint32_t) ((34.3f - LineOneStartX) * CMToPixel - X_offSet);
 415              		.loc 1 206 38 is_stmt 0 view .LVU125
 416 0104 3222     		movs	r2, #50
 417 0106 84F82320 		strb	r2, [r4, #35]
 207:HigherLevelApps/HigherLevelApps.c/User_Interface.c **** 	AimingSystem.Graph->start_y = (uint32_t) (LineOneStartY * CMToPixel);
 418              		.loc 1 207 2 is_stmt 1 view .LVU126
 207:HigherLevelApps/HigherLevelApps.c/User_Interface.c **** 	AimingSystem.Graph->start_y = (uint32_t) (LineOneStartY * CMToPixel);
ARM GAS  C:\Users\purdu\AppData\Local\Temp\ccP1UZx1.s 			page 17


 419              		.loc 1 207 30 is_stmt 0 view .LVU127
 420 010a A26A     		ldr	r2, [r4, #40]
 421 010c 4FF4A161 		mov	r1, #1288
 422 0110 61F39422 		bfi	r2, r1, #10, #11
 423 0114 A262     		str	r2, [r4, #40]
 208:HigherLevelApps/HigherLevelApps.c/User_Interface.c **** 	AimingSystem.Graph->end_x = (uint32_t) ((34.3f - LineOneEndX) * CMToPixel - X_offSet); 
 424              		.loc 1 208 2 is_stmt 1 view .LVU128
 208:HigherLevelApps/HigherLevelApps.c/User_Interface.c **** 	AimingSystem.Graph->end_x = (uint32_t) ((34.3f - LineOneEndX) * CMToPixel - X_offSet); 
 425              		.loc 1 208 30 is_stmt 0 view .LVU129
 426 0116 628D     		ldrh	r2, [r4, #42]
 427 0118 6FF34F12 		bfc	r2, #5, #11
 428 011c 6285     		strh	r2, [r4, #42]	@ movhi
 209:HigherLevelApps/HigherLevelApps.c/User_Interface.c **** 	AimingSystem.Graph->end_y = (uint32_t) (LineOneEndY * CMToPixel);
 429              		.loc 1 209 2 is_stmt 1 view .LVU130
 209:HigherLevelApps/HigherLevelApps.c/User_Interface.c **** 	AimingSystem.Graph->end_y = (uint32_t) (LineOneEndY * CMToPixel);
 430              		.loc 1 209 28 is_stmt 0 view .LVU131
 431 011e E26A     		ldr	r2, [r4, #44]
 432 0120 40F27641 		movw	r1, #1142
 433 0124 61F39422 		bfi	r2, r1, #10, #11
 434 0128 E262     		str	r2, [r4, #44]
 210:HigherLevelApps/HigherLevelApps.c/User_Interface.c **** 	AimingSystem.PacketNumber = UI.Global_PacketNumber;
 435              		.loc 1 210 2 is_stmt 1 view .LVU132
 210:HigherLevelApps/HigherLevelApps.c/User_Interface.c **** 	AimingSystem.PacketNumber = UI.Global_PacketNumber;
 436              		.loc 1 210 28 is_stmt 0 view .LVU133
 437 012a E28D     		ldrh	r2, [r4, #46]
 438 012c 68F34F12 		bfi	r2, r8, #5, #11
 439 0130 E285     		strh	r2, [r4, #46]	@ movhi
 211:HigherLevelApps/HigherLevelApps.c/User_Interface.c **** 	UI_Add_Frame_And_Data_Header_OneGraphics(&AimingSystem);
 440              		.loc 1 211 2 is_stmt 1 view .LVU134
 211:HigherLevelApps/HigherLevelApps.c/User_Interface.c **** 	UI_Add_Frame_And_Data_Header_OneGraphics(&AimingSystem);
 441              		.loc 1 211 28 is_stmt 0 view .LVU135
 442 0132 84F82030 		strb	r3, [r4, #32]
 212:HigherLevelApps/HigherLevelApps.c/User_Interface.c **** 	UI_Add_OneGraphics(&AimingSystem);
 443              		.loc 1 212 2 is_stmt 1 view .LVU136
 444 0136 2046     		mov	r0, r4
 445 0138 FFF7FEFF 		bl	UI_Add_Frame_And_Data_Header_OneGraphics
 446              	.LVL12:
 213:HigherLevelApps/HigherLevelApps.c/User_Interface.c ****   UI_Add_Frame_Tail_OneGraphics(&AimingSystem);
 447              		.loc 1 213 2 view .LVU137
 448 013c 2046     		mov	r0, r4
 449 013e FFF7FEFF 		bl	UI_Add_OneGraphics
 450              	.LVL13:
 214:HigherLevelApps/HigherLevelApps.c/User_Interface.c **** 	osDelay(100);
 451              		.loc 1 214 3 view .LVU138
 452 0142 2046     		mov	r0, r4
 453 0144 FFF7FEFF 		bl	UI_Add_Frame_Tail_OneGraphics
 454              	.LVL14:
 215:HigherLevelApps/HigherLevelApps.c/User_Interface.c **** 	HAL_UART_Transmit(UART, AimingSystem.dataBuffer, sizeof(AimingSystem.dataBuffer), 5000);
 455              		.loc 1 215 2 view .LVU139
 456 0148 6420     		movs	r0, #100
 457 014a FFF7FEFF 		bl	osDelay
 458              	.LVL15:
 216:HigherLevelApps/HigherLevelApps.c/User_Interface.c **** 	UI.Global_PacketNumber++;
 459              		.loc 1 216 2 view .LVU140
 460 014e 41F28833 		movw	r3, #5000
 461 0152 3246     		mov	r2, r6
 462 0154 2146     		mov	r1, r4
ARM GAS  C:\Users\purdu\AppData\Local\Temp\ccP1UZx1.s 			page 18


 463 0156 3846     		mov	r0, r7
 464 0158 FFF7FEFF 		bl	HAL_UART_Transmit
 465              	.LVL16:
 217:HigherLevelApps/HigherLevelApps.c/User_Interface.c **** }
 466              		.loc 1 217 2 view .LVU141
 217:HigherLevelApps/HigherLevelApps.c/User_Interface.c **** }
 467              		.loc 1 217 4 is_stmt 0 view .LVU142
 468 015c EB79     		ldrb	r3, [r5, #7]	@ zero_extendqisi2
 217:HigherLevelApps/HigherLevelApps.c/User_Interface.c **** }
 469              		.loc 1 217 24 view .LVU143
 470 015e 0133     		adds	r3, r3, #1
 471 0160 EB71     		strb	r3, [r5, #7]
 218:HigherLevelApps/HigherLevelApps.c/User_Interface.c **** 
 472              		.loc 1 218 1 view .LVU144
 473 0162 BDE8F087 		pop	{r4, r5, r6, r7, r8, r9, r10, pc}
 474              	.L16:
 475 0166 00BF     		.align	2
 476              	.L15:
 477 0168 00000000 		.word	AimingSystem
 478 016c 00000000 		.word	UI
 479 0170 00000000 		.word	huart6
 480              		.cfi_endproc
 481              	.LFE143:
 483              		.section	.text.UI_AimingSystem,"ax",%progbits
 484              		.align	1
 485              		.global	UI_AimingSystem
 486              		.syntax unified
 487              		.thumb
 488              		.thumb_func
 490              	UI_AimingSystem:
 491              	.LFB144:
 221:HigherLevelApps/HigherLevelApps.c/User_Interface.c **** 	//Three square shape config
 492              		.loc 1 221 1 is_stmt 1 view -0
 493              		.cfi_startproc
 494              		@ args = 0, pretend = 0, frame = 0
 495              		@ frame_needed = 0, uses_anonymous_args = 0
 496 0000 2DE9F84F 		push	{r3, r4, r5, r6, r7, r8, r9, r10, fp, lr}
 497              	.LCFI3:
 498              		.cfi_def_cfa_offset 40
 499              		.cfi_offset 3, -40
 500              		.cfi_offset 4, -36
 501              		.cfi_offset 5, -32
 502              		.cfi_offset 6, -28
 503              		.cfi_offset 7, -24
 504              		.cfi_offset 8, -20
 505              		.cfi_offset 9, -16
 506              		.cfi_offset 10, -12
 507              		.cfi_offset 11, -8
 508              		.cfi_offset 14, -4
 223:HigherLevelApps/HigherLevelApps.c/User_Interface.c **** 	float ShapeOneTop = 8.57;
 509              		.loc 1 223 2 view .LVU146
 510              	.LVL17:
 224:HigherLevelApps/HigherLevelApps.c/User_Interface.c **** 	float ShapeOneDistance = (17.15-0.9);
 511              		.loc 1 224 2 view .LVU147
 225:HigherLevelApps/HigherLevelApps.c/User_Interface.c **** 	float ShapeTwoBottom = 6.62;
 512              		.loc 1 225 2 view .LVU148
 226:HigherLevelApps/HigherLevelApps.c/User_Interface.c **** 	float ShapeTwoTop = 6.93;
ARM GAS  C:\Users\purdu\AppData\Local\Temp\ccP1UZx1.s 			page 19


 513              		.loc 1 226 2 view .LVU149
 227:HigherLevelApps/HigherLevelApps.c/User_Interface.c **** 	float ShapeTwoDistance = (17.15-0.15);
 514              		.loc 1 227 2 view .LVU150
 228:HigherLevelApps/HigherLevelApps.c/User_Interface.c **** 	float ShapeThreeBottom = 7;
 515              		.loc 1 228 2 view .LVU151
 229:HigherLevelApps/HigherLevelApps.c/User_Interface.c **** 	float ShapeThreeTop = 7.6;
 516              		.loc 1 229 2 view .LVU152
 230:HigherLevelApps/HigherLevelApps.c/User_Interface.c **** 	float ShapeThreeDistance = (17.15-0.225);
 517              		.loc 1 230 2 view .LVU153
 231:HigherLevelApps/HigherLevelApps.c/User_Interface.c **** 	float X_offSet = 0;
 518              		.loc 1 231 2 view .LVU154
 232:HigherLevelApps/HigherLevelApps.c/User_Interface.c **** 	
 519              		.loc 1 232 2 view .LVU155
 234:HigherLevelApps/HigherLevelApps.c/User_Interface.c **** 	AimingSystem.Graph->graphic_name[1] = '0';
 520              		.loc 1 234 2 view .LVU156
 234:HigherLevelApps/HigherLevelApps.c/User_Interface.c **** 	AimingSystem.Graph->graphic_name[1] = '0';
 521              		.loc 1 234 38 is_stmt 0 view .LVU157
 522 0004 CE4C     		ldr	r4, .L19
 523 0006 4FF03003 		mov	r3, #48
 524 000a 84F82130 		strb	r3, [r4, #33]
 235:HigherLevelApps/HigherLevelApps.c/User_Interface.c **** 	AimingSystem.Graph->graphic_name[2] = '0';
 525              		.loc 1 235 2 is_stmt 1 view .LVU158
 235:HigherLevelApps/HigherLevelApps.c/User_Interface.c **** 	AimingSystem.Graph->graphic_name[2] = '0';
 526              		.loc 1 235 38 is_stmt 0 view .LVU159
 527 000e 84F82230 		strb	r3, [r4, #34]
 236:HigherLevelApps/HigherLevelApps.c/User_Interface.c **** 	AimingSystem.Graph->operate_type = UI_Graph_Add;
 528              		.loc 1 236 2 is_stmt 1 view .LVU160
 236:HigherLevelApps/HigherLevelApps.c/User_Interface.c **** 	AimingSystem.Graph->operate_type = UI_Graph_Add;
 529              		.loc 1 236 38 is_stmt 0 view .LVU161
 530 0012 84F82330 		strb	r3, [r4, #35]
 237:HigherLevelApps/HigherLevelApps.c/User_Interface.c **** 	AimingSystem.Graph->graphic_type = UI_Graph_Line;
 531              		.loc 1 237 2 is_stmt 1 view .LVU162
 237:HigherLevelApps/HigherLevelApps.c/User_Interface.c **** 	AimingSystem.Graph->graphic_type = UI_Graph_Line;
 532              		.loc 1 237 35 is_stmt 0 view .LVU163
 533 0016 94F82430 		ldrb	r3, [r4, #36]	@ zero_extendqisi2
 534 001a 0122     		movs	r2, #1
 535 001c 62F30203 		bfi	r3, r2, #0, #3
 536 0020 84F82430 		strb	r3, [r4, #36]
 238:HigherLevelApps/HigherLevelApps.c/User_Interface.c **** 	AimingSystem.Graph->layer = 9;
 537              		.loc 1 238 2 is_stmt 1 view .LVU164
 238:HigherLevelApps/HigherLevelApps.c/User_Interface.c **** 	AimingSystem.Graph->layer = 9;
 538              		.loc 1 238 35 is_stmt 0 view .LVU165
 539 0024 DBB2     		uxtb	r3, r3
 540 0026 6FF3C503 		bfc	r3, #3, #3
 541 002a 84F82430 		strb	r3, [r4, #36]
 239:HigherLevelApps/HigherLevelApps.c/User_Interface.c **** 	AimingSystem.Graph->color = UI_Color_White;
 542              		.loc 1 239 2 is_stmt 1 view .LVU166
 239:HigherLevelApps/HigherLevelApps.c/User_Interface.c **** 	AimingSystem.Graph->color = UI_Color_White;
 543              		.loc 1 239 28 is_stmt 0 view .LVU167
 544 002e A38C     		ldrh	r3, [r4, #36]
 545 0030 0922     		movs	r2, #9
 546 0032 62F38913 		bfi	r3, r2, #6, #4
 547 0036 A384     		strh	r3, [r4, #36]	@ movhi
 240:HigherLevelApps/HigherLevelApps.c/User_Interface.c **** 	AimingSystem.Graph->start_angle = 0;
 548              		.loc 1 240 2 is_stmt 1 view .LVU168
 240:HigherLevelApps/HigherLevelApps.c/User_Interface.c **** 	AimingSystem.Graph->start_angle = 0;
 549              		.loc 1 240 28 is_stmt 0 view .LVU169
ARM GAS  C:\Users\purdu\AppData\Local\Temp\ccP1UZx1.s 			page 20


 550 0038 94F82530 		ldrb	r3, [r4, #37]	@ zero_extendqisi2
 551 003c 0822     		movs	r2, #8
 552 003e 62F38503 		bfi	r3, r2, #2, #4
 553 0042 84F82530 		strb	r3, [r4, #37]
 241:HigherLevelApps/HigherLevelApps.c/User_Interface.c **** 	AimingSystem.Graph->end_angle = 0;
 554              		.loc 1 241 2 is_stmt 1 view .LVU170
 241:HigherLevelApps/HigherLevelApps.c/User_Interface.c **** 	AimingSystem.Graph->end_angle = 0;
 555              		.loc 1 241 34 is_stmt 0 view .LVU171
 556 0046 636A     		ldr	r3, [r4, #36]
 557 0048 6FF39633 		bfc	r3, #14, #9
 558 004c 6362     		str	r3, [r4, #36]
 242:HigherLevelApps/HigherLevelApps.c/User_Interface.c **** 	AimingSystem.Graph->width = 3;
 559              		.loc 1 242 2 is_stmt 1 view .LVU172
 242:HigherLevelApps/HigherLevelApps.c/User_Interface.c **** 	AimingSystem.Graph->width = 3;
 560              		.loc 1 242 32 is_stmt 0 view .LVU173
 561 004e E38C     		ldrh	r3, [r4, #38]
 562 0050 6FF3CF13 		bfc	r3, #7, #9
 563 0054 E384     		strh	r3, [r4, #38]	@ movhi
 243:HigherLevelApps/HigherLevelApps.c/User_Interface.c **** 	AimingSystem.Graph->start_x = 0;
 564              		.loc 1 243 2 is_stmt 1 view .LVU174
 243:HigherLevelApps/HigherLevelApps.c/User_Interface.c **** 	AimingSystem.Graph->start_x = 0;
 565              		.loc 1 243 28 is_stmt 0 view .LVU175
 566 0056 238D     		ldrh	r3, [r4, #40]
 567 0058 0322     		movs	r2, #3
 568 005a 62F30903 		bfi	r3, r2, #0, #10
 569 005e 2385     		strh	r3, [r4, #40]	@ movhi
 244:HigherLevelApps/HigherLevelApps.c/User_Interface.c **** 	AimingSystem.Graph->start_y = 0;
 570              		.loc 1 244 2 is_stmt 1 view .LVU176
 244:HigherLevelApps/HigherLevelApps.c/User_Interface.c **** 	AimingSystem.Graph->start_y = 0;
 571              		.loc 1 244 30 is_stmt 0 view .LVU177
 572 0060 A36A     		ldr	r3, [r4, #40]
 573 0062 6FF39423 		bfc	r3, #10, #11
 574 0066 A362     		str	r3, [r4, #40]
 245:HigherLevelApps/HigherLevelApps.c/User_Interface.c **** 	AimingSystem.Graph->radius = 0;
 575              		.loc 1 245 2 is_stmt 1 view .LVU178
 245:HigherLevelApps/HigherLevelApps.c/User_Interface.c **** 	AimingSystem.Graph->radius = 0;
 576              		.loc 1 245 30 is_stmt 0 view .LVU179
 577 0068 638D     		ldrh	r3, [r4, #42]
 578 006a 6FF34F13 		bfc	r3, #5, #11
 579 006e 6385     		strh	r3, [r4, #42]	@ movhi
 246:HigherLevelApps/HigherLevelApps.c/User_Interface.c **** 	AimingSystem.Graph->end_x = 0;
 580              		.loc 1 246 2 is_stmt 1 view .LVU180
 246:HigherLevelApps/HigherLevelApps.c/User_Interface.c **** 	AimingSystem.Graph->end_x = 0;
 581              		.loc 1 246 29 is_stmt 0 view .LVU181
 582 0070 A38D     		ldrh	r3, [r4, #44]
 583 0072 6FF30903 		bfc	r3, #0, #10
 584 0076 A385     		strh	r3, [r4, #44]	@ movhi
 247:HigherLevelApps/HigherLevelApps.c/User_Interface.c **** 	AimingSystem.Graph->end_y = 0;
 585              		.loc 1 247 2 is_stmt 1 view .LVU182
 247:HigherLevelApps/HigherLevelApps.c/User_Interface.c **** 	AimingSystem.Graph->end_y = 0;
 586              		.loc 1 247 28 is_stmt 0 view .LVU183
 587 0078 E36A     		ldr	r3, [r4, #44]
 588 007a 6FF39423 		bfc	r3, #10, #11
 589 007e E362     		str	r3, [r4, #44]
 248:HigherLevelApps/HigherLevelApps.c/User_Interface.c **** 	
 590              		.loc 1 248 2 is_stmt 1 view .LVU184
 248:HigherLevelApps/HigherLevelApps.c/User_Interface.c **** 	
ARM GAS  C:\Users\purdu\AppData\Local\Temp\ccP1UZx1.s 			page 21


 591              		.loc 1 248 28 is_stmt 0 view .LVU185
 592 0080 E38D     		ldrh	r3, [r4, #46]
 593 0082 6FF34F13 		bfc	r3, #5, #11
 594 0086 E385     		strh	r3, [r4, #46]	@ movhi
 250:HigherLevelApps/HigherLevelApps.c/User_Interface.c **** 	
 595              		.loc 1 250 2 is_stmt 1 view .LVU186
 250:HigherLevelApps/HigherLevelApps.c/User_Interface.c **** 	
 596              		.loc 1 250 27 is_stmt 0 view .LVU187
 597 0088 4FF01E0B 		mov	fp, #30
 598 008c A4F81EB0 		strh	fp, [r4, #30]	@ movhi
 252:HigherLevelApps/HigherLevelApps.c/User_Interface.c **** 	AimingSystem.Graph->graphic_name[1] = 'i';
 599              		.loc 1 252 2 is_stmt 1 view .LVU188
 252:HigherLevelApps/HigherLevelApps.c/User_Interface.c **** 	AimingSystem.Graph->graphic_name[1] = 'i';
 600              		.loc 1 252 38 is_stmt 0 view .LVU189
 601 0090 4127     		movs	r7, #65
 602 0092 84F82170 		strb	r7, [r4, #33]
 253:HigherLevelApps/HigherLevelApps.c/User_Interface.c **** 	AimingSystem.Graph->graphic_name[2] = '1';
 603              		.loc 1 253 2 is_stmt 1 view .LVU190
 253:HigherLevelApps/HigherLevelApps.c/User_Interface.c **** 	AimingSystem.Graph->graphic_name[2] = '1';
 604              		.loc 1 253 38 is_stmt 0 view .LVU191
 605 0096 6926     		movs	r6, #105
 606 0098 84F82260 		strb	r6, [r4, #34]
 254:HigherLevelApps/HigherLevelApps.c/User_Interface.c **** 	AimingSystem.Graph->start_x = (uint32_t) (ShapeOneDistance * CMToPixel - X_offSet);
 607              		.loc 1 254 2 is_stmt 1 view .LVU192
 254:HigherLevelApps/HigherLevelApps.c/User_Interface.c **** 	AimingSystem.Graph->start_x = (uint32_t) (ShapeOneDistance * CMToPixel - X_offSet);
 608              		.loc 1 254 38 is_stmt 0 view .LVU193
 609 009c 3123     		movs	r3, #49
 610 009e 84F82330 		strb	r3, [r4, #35]
 255:HigherLevelApps/HigherLevelApps.c/User_Interface.c **** 	AimingSystem.Graph->start_y = (uint32_t) (ShapeOneBottom * CMToPixel);
 611              		.loc 1 255 2 is_stmt 1 view .LVU194
 255:HigherLevelApps/HigherLevelApps.c/User_Interface.c **** 	AimingSystem.Graph->start_y = (uint32_t) (ShapeOneBottom * CMToPixel);
 612              		.loc 1 255 30 is_stmt 0 view .LVU195
 613 00a2 A36A     		ldr	r3, [r4, #40]
 614 00a4 40F28E3A 		movw	r10, #910
 615 00a8 6AF39423 		bfi	r3, r10, #10, #11
 616 00ac A362     		str	r3, [r4, #40]
 256:HigherLevelApps/HigherLevelApps.c/User_Interface.c **** 	AimingSystem.Graph->end_x = (uint32_t) (ShapeOneDistance * CMToPixel - X_offSet);
 617              		.loc 1 256 2 is_stmt 1 view .LVU196
 256:HigherLevelApps/HigherLevelApps.c/User_Interface.c **** 	AimingSystem.Graph->end_x = (uint32_t) (ShapeOneDistance * CMToPixel - X_offSet);
 618              		.loc 1 256 30 is_stmt 0 view .LVU197
 619 00ae 638D     		ldrh	r3, [r4, #42]
 620 00b0 40F27F11 		movw	r1, #383
 621 00b4 61F34F13 		bfi	r3, r1, #5, #11
 622 00b8 6385     		strh	r3, [r4, #42]	@ movhi
 257:HigherLevelApps/HigherLevelApps.c/User_Interface.c **** 	AimingSystem.Graph->end_y = (uint32_t) (ShapeOneTop * CMToPixel);
 623              		.loc 1 257 2 is_stmt 1 view .LVU198
 257:HigherLevelApps/HigherLevelApps.c/User_Interface.c **** 	AimingSystem.Graph->end_y = (uint32_t) (ShapeOneTop * CMToPixel);
 624              		.loc 1 257 28 is_stmt 0 view .LVU199
 625 00ba E36A     		ldr	r3, [r4, #44]
 626 00bc 6AF39423 		bfi	r3, r10, #10, #11
 627 00c0 E362     		str	r3, [r4, #44]
 258:HigherLevelApps/HigherLevelApps.c/User_Interface.c **** 	AimingSystem.PacketNumber = UI.Global_PacketNumber;
 628              		.loc 1 258 2 is_stmt 1 view .LVU200
 258:HigherLevelApps/HigherLevelApps.c/User_Interface.c **** 	AimingSystem.PacketNumber = UI.Global_PacketNumber;
 629              		.loc 1 258 28 is_stmt 0 view .LVU201
 630 00c2 E38D     		ldrh	r3, [r4, #46]
 631 00c4 40F2DF18 		movw	r8, #479
ARM GAS  C:\Users\purdu\AppData\Local\Temp\ccP1UZx1.s 			page 22


 632 00c8 68F34F13 		bfi	r3, r8, #5, #11
 633 00cc E385     		strh	r3, [r4, #46]	@ movhi
 259:HigherLevelApps/HigherLevelApps.c/User_Interface.c **** 	UI_Add_Frame_And_Data_Header_OneGraphics(&AimingSystem);
 634              		.loc 1 259 2 is_stmt 1 view .LVU202
 259:HigherLevelApps/HigherLevelApps.c/User_Interface.c **** 	UI_Add_Frame_And_Data_Header_OneGraphics(&AimingSystem);
 635              		.loc 1 259 32 is_stmt 0 view .LVU203
 636 00ce 9D4D     		ldr	r5, .L19+4
 637 00d0 EB79     		ldrb	r3, [r5, #7]	@ zero_extendqisi2
 259:HigherLevelApps/HigherLevelApps.c/User_Interface.c **** 	UI_Add_Frame_And_Data_Header_OneGraphics(&AimingSystem);
 638              		.loc 1 259 28 view .LVU204
 639 00d2 84F82030 		strb	r3, [r4, #32]
 260:HigherLevelApps/HigherLevelApps.c/User_Interface.c **** 	UI_Add_OneGraphics(&AimingSystem);
 640              		.loc 1 260 2 is_stmt 1 view .LVU205
 641 00d6 2046     		mov	r0, r4
 642 00d8 FFF7FEFF 		bl	UI_Add_Frame_And_Data_Header_OneGraphics
 643              	.LVL18:
 261:HigherLevelApps/HigherLevelApps.c/User_Interface.c ****   UI_Add_Frame_Tail_OneGraphics(&AimingSystem);
 644              		.loc 1 261 2 view .LVU206
 645 00dc 2046     		mov	r0, r4
 646 00de FFF7FEFF 		bl	UI_Add_OneGraphics
 647              	.LVL19:
 262:HigherLevelApps/HigherLevelApps.c/User_Interface.c **** 	osDelay(100);
 648              		.loc 1 262 3 view .LVU207
 649 00e2 2046     		mov	r0, r4
 650 00e4 FFF7FEFF 		bl	UI_Add_Frame_Tail_OneGraphics
 651              	.LVL20:
 263:HigherLevelApps/HigherLevelApps.c/User_Interface.c **** 	HAL_UART_Transmit(UART, AimingSystem.dataBuffer, sizeof(AimingSystem.dataBuffer), 500);
 652              		.loc 1 263 2 view .LVU208
 653 00e8 6420     		movs	r0, #100
 654 00ea FFF7FEFF 		bl	osDelay
 655              	.LVL21:
 264:HigherLevelApps/HigherLevelApps.c/User_Interface.c **** 	UI.Global_PacketNumber++;
 656              		.loc 1 264 2 view .LVU209
 657 00ee 4FF4FA73 		mov	r3, #500
 658 00f2 5A46     		mov	r2, fp
 659 00f4 2146     		mov	r1, r4
 660 00f6 9448     		ldr	r0, .L19+8
 661 00f8 FFF7FEFF 		bl	HAL_UART_Transmit
 662              	.LVL22:
 265:HigherLevelApps/HigherLevelApps.c/User_Interface.c **** 	
 663              		.loc 1 265 2 view .LVU210
 265:HigherLevelApps/HigherLevelApps.c/User_Interface.c **** 	
 664              		.loc 1 265 4 is_stmt 0 view .LVU211
 665 00fc EB79     		ldrb	r3, [r5, #7]	@ zero_extendqisi2
 265:HigherLevelApps/HigherLevelApps.c/User_Interface.c **** 	
 666              		.loc 1 265 24 view .LVU212
 667 00fe 0133     		adds	r3, r3, #1
 668 0100 DBB2     		uxtb	r3, r3
 669 0102 EB71     		strb	r3, [r5, #7]
 267:HigherLevelApps/HigherLevelApps.c/User_Interface.c **** 	AimingSystem.Graph->graphic_name[1] = 'i';
 670              		.loc 1 267 2 is_stmt 1 view .LVU213
 267:HigherLevelApps/HigherLevelApps.c/User_Interface.c **** 	AimingSystem.Graph->graphic_name[1] = 'i';
 671              		.loc 1 267 38 is_stmt 0 view .LVU214
 672 0104 84F82170 		strb	r7, [r4, #33]
 268:HigherLevelApps/HigherLevelApps.c/User_Interface.c **** 	AimingSystem.Graph->graphic_name[2] = '2';
 673              		.loc 1 268 2 is_stmt 1 view .LVU215
 268:HigherLevelApps/HigherLevelApps.c/User_Interface.c **** 	AimingSystem.Graph->graphic_name[2] = '2';
ARM GAS  C:\Users\purdu\AppData\Local\Temp\ccP1UZx1.s 			page 23


 674              		.loc 1 268 38 is_stmt 0 view .LVU216
 675 0108 84F82260 		strb	r6, [r4, #34]
 269:HigherLevelApps/HigherLevelApps.c/User_Interface.c **** 	AimingSystem.Graph->start_x = (uint32_t) ((34.3f - ShapeOneDistance) * CMToPixel - X_offSet);
 676              		.loc 1 269 2 is_stmt 1 view .LVU217
 269:HigherLevelApps/HigherLevelApps.c/User_Interface.c **** 	AimingSystem.Graph->start_x = (uint32_t) ((34.3f - ShapeOneDistance) * CMToPixel - X_offSet);
 677              		.loc 1 269 38 is_stmt 0 view .LVU218
 678 010c 3222     		movs	r2, #50
 679 010e 84F82320 		strb	r2, [r4, #35]
 270:HigherLevelApps/HigherLevelApps.c/User_Interface.c **** 	AimingSystem.Graph->start_y = (uint32_t) (ShapeOneBottom * CMToPixel);
 680              		.loc 1 270 2 is_stmt 1 view .LVU219
 270:HigherLevelApps/HigherLevelApps.c/User_Interface.c **** 	AimingSystem.Graph->start_y = (uint32_t) (ShapeOneBottom * CMToPixel);
 681              		.loc 1 270 30 is_stmt 0 view .LVU220
 682 0112 A26A     		ldr	r2, [r4, #40]
 683 0114 40F2F239 		movw	r9, #1010
 684 0118 69F39422 		bfi	r2, r9, #10, #11
 685 011c A262     		str	r2, [r4, #40]
 271:HigherLevelApps/HigherLevelApps.c/User_Interface.c **** 	AimingSystem.Graph->end_x = (uint32_t) ((34.3f - ShapeOneDistance) * CMToPixel - X_offSet);
 686              		.loc 1 271 2 is_stmt 1 view .LVU221
 271:HigherLevelApps/HigherLevelApps.c/User_Interface.c **** 	AimingSystem.Graph->end_x = (uint32_t) ((34.3f - ShapeOneDistance) * CMToPixel - X_offSet);
 687              		.loc 1 271 30 is_stmt 0 view .LVU222
 688 011e 628D     		ldrh	r2, [r4, #42]
 689 0120 40F27F11 		movw	r1, #383
 690 0124 61F34F12 		bfi	r2, r1, #5, #11
 691 0128 6285     		strh	r2, [r4, #42]	@ movhi
 272:HigherLevelApps/HigherLevelApps.c/User_Interface.c **** 	AimingSystem.Graph->end_y = (uint32_t) (ShapeOneTop * CMToPixel);
 692              		.loc 1 272 2 is_stmt 1 view .LVU223
 272:HigherLevelApps/HigherLevelApps.c/User_Interface.c **** 	AimingSystem.Graph->end_y = (uint32_t) (ShapeOneTop * CMToPixel);
 693              		.loc 1 272 28 is_stmt 0 view .LVU224
 694 012a E26A     		ldr	r2, [r4, #44]
 695 012c 69F39422 		bfi	r2, r9, #10, #11
 696 0130 E262     		str	r2, [r4, #44]
 273:HigherLevelApps/HigherLevelApps.c/User_Interface.c **** 	AimingSystem.PacketNumber = UI.Global_PacketNumber;
 697              		.loc 1 273 2 is_stmt 1 view .LVU225
 273:HigherLevelApps/HigherLevelApps.c/User_Interface.c **** 	AimingSystem.PacketNumber = UI.Global_PacketNumber;
 698              		.loc 1 273 28 is_stmt 0 view .LVU226
 699 0132 E28D     		ldrh	r2, [r4, #46]
 700 0134 68F34F12 		bfi	r2, r8, #5, #11
 701 0138 E285     		strh	r2, [r4, #46]	@ movhi
 274:HigherLevelApps/HigherLevelApps.c/User_Interface.c **** 	UI_Add_Frame_And_Data_Header_OneGraphics(&AimingSystem);
 702              		.loc 1 274 2 is_stmt 1 view .LVU227
 274:HigherLevelApps/HigherLevelApps.c/User_Interface.c **** 	UI_Add_Frame_And_Data_Header_OneGraphics(&AimingSystem);
 703              		.loc 1 274 28 is_stmt 0 view .LVU228
 704 013a 84F82030 		strb	r3, [r4, #32]
 275:HigherLevelApps/HigherLevelApps.c/User_Interface.c **** 	UI_Add_OneGraphics(&AimingSystem);
 705              		.loc 1 275 2 is_stmt 1 view .LVU229
 706 013e 2046     		mov	r0, r4
 707 0140 FFF7FEFF 		bl	UI_Add_Frame_And_Data_Header_OneGraphics
 708              	.LVL23:
 276:HigherLevelApps/HigherLevelApps.c/User_Interface.c ****   UI_Add_Frame_Tail_OneGraphics(&AimingSystem);
 709              		.loc 1 276 2 view .LVU230
 710 0144 2046     		mov	r0, r4
 711 0146 FFF7FEFF 		bl	UI_Add_OneGraphics
 712              	.LVL24:
 277:HigherLevelApps/HigherLevelApps.c/User_Interface.c **** 	osDelay(100);
 713              		.loc 1 277 3 view .LVU231
 714 014a 2046     		mov	r0, r4
 715 014c FFF7FEFF 		bl	UI_Add_Frame_Tail_OneGraphics
ARM GAS  C:\Users\purdu\AppData\Local\Temp\ccP1UZx1.s 			page 24


 716              	.LVL25:
 278:HigherLevelApps/HigherLevelApps.c/User_Interface.c **** 	HAL_UART_Transmit(UART, AimingSystem.dataBuffer, sizeof(AimingSystem.dataBuffer), 500);
 717              		.loc 1 278 2 view .LVU232
 718 0150 6420     		movs	r0, #100
 719 0152 FFF7FEFF 		bl	osDelay
 720              	.LVL26:
 279:HigherLevelApps/HigherLevelApps.c/User_Interface.c **** 	UI.Global_PacketNumber++;
 721              		.loc 1 279 2 view .LVU233
 722 0156 4FF4FA73 		mov	r3, #500
 723 015a 5A46     		mov	r2, fp
 724 015c 2146     		mov	r1, r4
 725 015e 7A48     		ldr	r0, .L19+8
 726 0160 FFF7FEFF 		bl	HAL_UART_Transmit
 727              	.LVL27:
 280:HigherLevelApps/HigherLevelApps.c/User_Interface.c **** 	
 728              		.loc 1 280 2 view .LVU234
 280:HigherLevelApps/HigherLevelApps.c/User_Interface.c **** 	
 729              		.loc 1 280 4 is_stmt 0 view .LVU235
 730 0164 EB79     		ldrb	r3, [r5, #7]	@ zero_extendqisi2
 280:HigherLevelApps/HigherLevelApps.c/User_Interface.c **** 	
 731              		.loc 1 280 24 view .LVU236
 732 0166 0133     		adds	r3, r3, #1
 733 0168 DBB2     		uxtb	r3, r3
 734 016a EB71     		strb	r3, [r5, #7]
 282:HigherLevelApps/HigherLevelApps.c/User_Interface.c **** 	AimingSystem.Graph->graphic_name[1] = 'i';
 735              		.loc 1 282 2 is_stmt 1 view .LVU237
 282:HigherLevelApps/HigherLevelApps.c/User_Interface.c **** 	AimingSystem.Graph->graphic_name[1] = 'i';
 736              		.loc 1 282 38 is_stmt 0 view .LVU238
 737 016c 84F82170 		strb	r7, [r4, #33]
 283:HigherLevelApps/HigherLevelApps.c/User_Interface.c **** 	AimingSystem.Graph->graphic_name[2] = '3';
 738              		.loc 1 283 2 is_stmt 1 view .LVU239
 283:HigherLevelApps/HigherLevelApps.c/User_Interface.c **** 	AimingSystem.Graph->graphic_name[2] = '3';
 739              		.loc 1 283 38 is_stmt 0 view .LVU240
 740 0170 84F82260 		strb	r6, [r4, #34]
 284:HigherLevelApps/HigherLevelApps.c/User_Interface.c **** 	AimingSystem.Graph->start_x = (uint32_t) (ShapeOneDistance * CMToPixel - X_offSet);
 741              		.loc 1 284 2 is_stmt 1 view .LVU241
 284:HigherLevelApps/HigherLevelApps.c/User_Interface.c **** 	AimingSystem.Graph->start_x = (uint32_t) (ShapeOneDistance * CMToPixel - X_offSet);
 742              		.loc 1 284 38 is_stmt 0 view .LVU242
 743 0174 3322     		movs	r2, #51
 744 0176 84F82320 		strb	r2, [r4, #35]
 285:HigherLevelApps/HigherLevelApps.c/User_Interface.c **** 	AimingSystem.Graph->start_y = (uint32_t) (ShapeOneTop * CMToPixel);
 745              		.loc 1 285 2 is_stmt 1 view .LVU243
 285:HigherLevelApps/HigherLevelApps.c/User_Interface.c **** 	AimingSystem.Graph->start_y = (uint32_t) (ShapeOneTop * CMToPixel);
 746              		.loc 1 285 30 is_stmt 0 view .LVU244
 747 017a A26A     		ldr	r2, [r4, #40]
 748 017c 6AF39422 		bfi	r2, r10, #10, #11
 749 0180 A262     		str	r2, [r4, #40]
 286:HigherLevelApps/HigherLevelApps.c/User_Interface.c **** 	AimingSystem.Graph->end_x = (uint32_t) (ShapeTwoDistance * CMToPixel - X_offSet);
 750              		.loc 1 286 2 is_stmt 1 view .LVU245
 286:HigherLevelApps/HigherLevelApps.c/User_Interface.c **** 	AimingSystem.Graph->end_x = (uint32_t) (ShapeTwoDistance * CMToPixel - X_offSet);
 751              		.loc 1 286 30 is_stmt 0 view .LVU246
 752 0182 628D     		ldrh	r2, [r4, #42]
 753 0184 68F34F12 		bfi	r2, r8, #5, #11
 754 0188 6285     		strh	r2, [r4, #42]	@ movhi
 287:HigherLevelApps/HigherLevelApps.c/User_Interface.c **** 	AimingSystem.Graph->end_y = (uint32_t) (ShapeOneTop * CMToPixel);
 755              		.loc 1 287 2 is_stmt 1 view .LVU247
 287:HigherLevelApps/HigherLevelApps.c/User_Interface.c **** 	AimingSystem.Graph->end_y = (uint32_t) (ShapeOneTop * CMToPixel);
ARM GAS  C:\Users\purdu\AppData\Local\Temp\ccP1UZx1.s 			page 25


 756              		.loc 1 287 28 is_stmt 0 view .LVU248
 757 018a E26A     		ldr	r2, [r4, #44]
 758 018c 4FF46E7A 		mov	r10, #952
 759 0190 6AF39422 		bfi	r2, r10, #10, #11
 760 0194 E262     		str	r2, [r4, #44]
 288:HigherLevelApps/HigherLevelApps.c/User_Interface.c **** 	AimingSystem.PacketNumber = UI.Global_PacketNumber;
 761              		.loc 1 288 2 is_stmt 1 view .LVU249
 288:HigherLevelApps/HigherLevelApps.c/User_Interface.c **** 	AimingSystem.PacketNumber = UI.Global_PacketNumber;
 762              		.loc 1 288 28 is_stmt 0 view .LVU250
 763 0196 E28D     		ldrh	r2, [r4, #46]
 764 0198 68F34F12 		bfi	r2, r8, #5, #11
 765 019c E285     		strh	r2, [r4, #46]	@ movhi
 289:HigherLevelApps/HigherLevelApps.c/User_Interface.c **** 	UI_Add_Frame_And_Data_Header_OneGraphics(&AimingSystem);
 766              		.loc 1 289 2 is_stmt 1 view .LVU251
 289:HigherLevelApps/HigherLevelApps.c/User_Interface.c **** 	UI_Add_Frame_And_Data_Header_OneGraphics(&AimingSystem);
 767              		.loc 1 289 28 is_stmt 0 view .LVU252
 768 019e 84F82030 		strb	r3, [r4, #32]
 290:HigherLevelApps/HigherLevelApps.c/User_Interface.c **** 	UI_Add_OneGraphics(&AimingSystem);
 769              		.loc 1 290 2 is_stmt 1 view .LVU253
 770 01a2 2046     		mov	r0, r4
 771 01a4 FFF7FEFF 		bl	UI_Add_Frame_And_Data_Header_OneGraphics
 772              	.LVL28:
 291:HigherLevelApps/HigherLevelApps.c/User_Interface.c ****   UI_Add_Frame_Tail_OneGraphics(&AimingSystem);
 773              		.loc 1 291 2 view .LVU254
 774 01a8 2046     		mov	r0, r4
 775 01aa FFF7FEFF 		bl	UI_Add_OneGraphics
 776              	.LVL29:
 292:HigherLevelApps/HigherLevelApps.c/User_Interface.c **** 	osDelay(100);
 777              		.loc 1 292 3 view .LVU255
 778 01ae 2046     		mov	r0, r4
 779 01b0 FFF7FEFF 		bl	UI_Add_Frame_Tail_OneGraphics
 780              	.LVL30:
 293:HigherLevelApps/HigherLevelApps.c/User_Interface.c **** 	HAL_UART_Transmit(UART, AimingSystem.dataBuffer, sizeof(AimingSystem.dataBuffer), 500);
 781              		.loc 1 293 2 view .LVU256
 782 01b4 6420     		movs	r0, #100
 783 01b6 FFF7FEFF 		bl	osDelay
 784              	.LVL31:
 294:HigherLevelApps/HigherLevelApps.c/User_Interface.c **** 	UI.Global_PacketNumber++;
 785              		.loc 1 294 2 view .LVU257
 786 01ba 4FF4FA73 		mov	r3, #500
 787 01be 5A46     		mov	r2, fp
 788 01c0 2146     		mov	r1, r4
 789 01c2 6148     		ldr	r0, .L19+8
 790 01c4 FFF7FEFF 		bl	HAL_UART_Transmit
 791              	.LVL32:
 295:HigherLevelApps/HigherLevelApps.c/User_Interface.c **** 	
 792              		.loc 1 295 2 view .LVU258
 295:HigherLevelApps/HigherLevelApps.c/User_Interface.c **** 	
 793              		.loc 1 295 4 is_stmt 0 view .LVU259
 794 01c8 EB79     		ldrb	r3, [r5, #7]	@ zero_extendqisi2
 295:HigherLevelApps/HigherLevelApps.c/User_Interface.c **** 	
 795              		.loc 1 295 24 view .LVU260
 796 01ca 0133     		adds	r3, r3, #1
 797 01cc DBB2     		uxtb	r3, r3
 798 01ce EB71     		strb	r3, [r5, #7]
 297:HigherLevelApps/HigherLevelApps.c/User_Interface.c **** 	AimingSystem.Graph->graphic_name[1] = 'i';
 799              		.loc 1 297 2 is_stmt 1 view .LVU261
ARM GAS  C:\Users\purdu\AppData\Local\Temp\ccP1UZx1.s 			page 26


 297:HigherLevelApps/HigherLevelApps.c/User_Interface.c **** 	AimingSystem.Graph->graphic_name[1] = 'i';
 800              		.loc 1 297 38 is_stmt 0 view .LVU262
 801 01d0 84F82170 		strb	r7, [r4, #33]
 298:HigherLevelApps/HigherLevelApps.c/User_Interface.c **** 	AimingSystem.Graph->graphic_name[2] = '4';
 802              		.loc 1 298 2 is_stmt 1 view .LVU263
 298:HigherLevelApps/HigherLevelApps.c/User_Interface.c **** 	AimingSystem.Graph->graphic_name[2] = '4';
 803              		.loc 1 298 38 is_stmt 0 view .LVU264
 804 01d4 84F82260 		strb	r6, [r4, #34]
 299:HigherLevelApps/HigherLevelApps.c/User_Interface.c **** 	AimingSystem.Graph->start_x = (uint32_t) ((34.3f - ShapeOneDistance) * CMToPixel - X_offSet);
 805              		.loc 1 299 2 is_stmt 1 view .LVU265
 299:HigherLevelApps/HigherLevelApps.c/User_Interface.c **** 	AimingSystem.Graph->start_x = (uint32_t) ((34.3f - ShapeOneDistance) * CMToPixel - X_offSet);
 806              		.loc 1 299 38 is_stmt 0 view .LVU266
 807 01d8 3422     		movs	r2, #52
 808 01da 84F82320 		strb	r2, [r4, #35]
 300:HigherLevelApps/HigherLevelApps.c/User_Interface.c **** 	AimingSystem.Graph->start_y = (uint32_t) (ShapeOneTop * CMToPixel);
 809              		.loc 1 300 2 is_stmt 1 view .LVU267
 300:HigherLevelApps/HigherLevelApps.c/User_Interface.c **** 	AimingSystem.Graph->start_y = (uint32_t) (ShapeOneTop * CMToPixel);
 810              		.loc 1 300 30 is_stmt 0 view .LVU268
 811 01de A26A     		ldr	r2, [r4, #40]
 812 01e0 69F39422 		bfi	r2, r9, #10, #11
 813 01e4 A262     		str	r2, [r4, #40]
 301:HigherLevelApps/HigherLevelApps.c/User_Interface.c **** 	AimingSystem.Graph->end_x = (uint32_t) ((34.3f - ShapeTwoDistance) * CMToPixel - X_offSet);
 814              		.loc 1 301 2 is_stmt 1 view .LVU269
 301:HigherLevelApps/HigherLevelApps.c/User_Interface.c **** 	AimingSystem.Graph->end_x = (uint32_t) ((34.3f - ShapeTwoDistance) * CMToPixel - X_offSet);
 815              		.loc 1 301 30 is_stmt 0 view .LVU270
 816 01e6 628D     		ldrh	r2, [r4, #42]
 817 01e8 68F34F12 		bfi	r2, r8, #5, #11
 818 01ec 6285     		strh	r2, [r4, #42]	@ movhi
 302:HigherLevelApps/HigherLevelApps.c/User_Interface.c **** 	AimingSystem.Graph->end_y = (uint32_t) (ShapeOneTop * CMToPixel);
 819              		.loc 1 302 2 is_stmt 1 view .LVU271
 302:HigherLevelApps/HigherLevelApps.c/User_Interface.c **** 	AimingSystem.Graph->end_y = (uint32_t) (ShapeOneTop * CMToPixel);
 820              		.loc 1 302 28 is_stmt 0 view .LVU272
 821 01ee E26A     		ldr	r2, [r4, #44]
 822 01f0 4FF47271 		mov	r1, #968
 823 01f4 61F39422 		bfi	r2, r1, #10, #11
 824 01f8 E262     		str	r2, [r4, #44]
 303:HigherLevelApps/HigherLevelApps.c/User_Interface.c **** 	AimingSystem.PacketNumber = UI.Global_PacketNumber;
 825              		.loc 1 303 2 is_stmt 1 view .LVU273
 303:HigherLevelApps/HigherLevelApps.c/User_Interface.c **** 	AimingSystem.PacketNumber = UI.Global_PacketNumber;
 826              		.loc 1 303 28 is_stmt 0 view .LVU274
 827 01fa E28D     		ldrh	r2, [r4, #46]
 828 01fc 68F34F12 		bfi	r2, r8, #5, #11
 829 0200 E285     		strh	r2, [r4, #46]	@ movhi
 304:HigherLevelApps/HigherLevelApps.c/User_Interface.c **** 	UI_Add_Frame_And_Data_Header_OneGraphics(&AimingSystem);
 830              		.loc 1 304 2 is_stmt 1 view .LVU275
 304:HigherLevelApps/HigherLevelApps.c/User_Interface.c **** 	UI_Add_Frame_And_Data_Header_OneGraphics(&AimingSystem);
 831              		.loc 1 304 28 is_stmt 0 view .LVU276
 832 0202 84F82030 		strb	r3, [r4, #32]
 305:HigherLevelApps/HigherLevelApps.c/User_Interface.c **** 	UI_Add_OneGraphics(&AimingSystem);
 833              		.loc 1 305 2 is_stmt 1 view .LVU277
 834 0206 2046     		mov	r0, r4
 835 0208 FFF7FEFF 		bl	UI_Add_Frame_And_Data_Header_OneGraphics
 836              	.LVL33:
 306:HigherLevelApps/HigherLevelApps.c/User_Interface.c ****   UI_Add_Frame_Tail_OneGraphics(&AimingSystem);
 837              		.loc 1 306 2 view .LVU278
 838 020c 2046     		mov	r0, r4
 839 020e FFF7FEFF 		bl	UI_Add_OneGraphics
ARM GAS  C:\Users\purdu\AppData\Local\Temp\ccP1UZx1.s 			page 27


 840              	.LVL34:
 307:HigherLevelApps/HigherLevelApps.c/User_Interface.c **** 	osDelay(100);
 841              		.loc 1 307 3 view .LVU279
 842 0212 2046     		mov	r0, r4
 843 0214 FFF7FEFF 		bl	UI_Add_Frame_Tail_OneGraphics
 844              	.LVL35:
 308:HigherLevelApps/HigherLevelApps.c/User_Interface.c **** 	HAL_UART_Transmit(UART, AimingSystem.dataBuffer, sizeof(AimingSystem.dataBuffer), 500);
 845              		.loc 1 308 2 view .LVU280
 846 0218 6420     		movs	r0, #100
 847 021a FFF7FEFF 		bl	osDelay
 848              	.LVL36:
 309:HigherLevelApps/HigherLevelApps.c/User_Interface.c **** 	UI.Global_PacketNumber++;
 849              		.loc 1 309 2 view .LVU281
 850 021e 4FF4FA73 		mov	r3, #500
 851 0222 5A46     		mov	r2, fp
 852 0224 2146     		mov	r1, r4
 853 0226 4848     		ldr	r0, .L19+8
 854 0228 FFF7FEFF 		bl	HAL_UART_Transmit
 855              	.LVL37:
 310:HigherLevelApps/HigherLevelApps.c/User_Interface.c **** 	
 856              		.loc 1 310 2 view .LVU282
 310:HigherLevelApps/HigherLevelApps.c/User_Interface.c **** 	
 857              		.loc 1 310 4 is_stmt 0 view .LVU283
 858 022c EB79     		ldrb	r3, [r5, #7]	@ zero_extendqisi2
 310:HigherLevelApps/HigherLevelApps.c/User_Interface.c **** 	
 859              		.loc 1 310 24 view .LVU284
 860 022e 0133     		adds	r3, r3, #1
 861 0230 DBB2     		uxtb	r3, r3
 862 0232 EB71     		strb	r3, [r5, #7]
 312:HigherLevelApps/HigherLevelApps.c/User_Interface.c **** 	AimingSystem.Graph->graphic_name[1] = 'i';
 863              		.loc 1 312 2 is_stmt 1 view .LVU285
 312:HigherLevelApps/HigherLevelApps.c/User_Interface.c **** 	AimingSystem.Graph->graphic_name[1] = 'i';
 864              		.loc 1 312 38 is_stmt 0 view .LVU286
 865 0234 84F82170 		strb	r7, [r4, #33]
 313:HigherLevelApps/HigherLevelApps.c/User_Interface.c **** 	AimingSystem.Graph->graphic_name[2] = '5';
 866              		.loc 1 313 2 is_stmt 1 view .LVU287
 313:HigherLevelApps/HigherLevelApps.c/User_Interface.c **** 	AimingSystem.Graph->graphic_name[2] = '5';
 867              		.loc 1 313 38 is_stmt 0 view .LVU288
 868 0238 84F82260 		strb	r6, [r4, #34]
 314:HigherLevelApps/HigherLevelApps.c/User_Interface.c **** 	AimingSystem.Graph->start_x = (uint32_t) (ShapeTwoDistance * CMToPixel - X_offSet);
 869              		.loc 1 314 2 is_stmt 1 view .LVU289
 314:HigherLevelApps/HigherLevelApps.c/User_Interface.c **** 	AimingSystem.Graph->start_x = (uint32_t) (ShapeTwoDistance * CMToPixel - X_offSet);
 870              		.loc 1 314 38 is_stmt 0 view .LVU290
 871 023c 3522     		movs	r2, #53
 872 023e 84F82320 		strb	r2, [r4, #35]
 315:HigherLevelApps/HigherLevelApps.c/User_Interface.c **** 	AimingSystem.Graph->start_y = (uint32_t) (ShapeTwoBottom * CMToPixel);
 873              		.loc 1 315 2 is_stmt 1 view .LVU291
 315:HigherLevelApps/HigherLevelApps.c/User_Interface.c **** 	AimingSystem.Graph->start_y = (uint32_t) (ShapeTwoBottom * CMToPixel);
 874              		.loc 1 315 30 is_stmt 0 view .LVU292
 875 0242 A26A     		ldr	r2, [r4, #40]
 876 0244 6AF39422 		bfi	r2, r10, #10, #11
 877 0248 A262     		str	r2, [r4, #40]
 316:HigherLevelApps/HigherLevelApps.c/User_Interface.c **** 	AimingSystem.Graph->end_x = (uint32_t) (ShapeTwoDistance * CMToPixel - X_offSet);
 878              		.loc 1 316 2 is_stmt 1 view .LVU293
 316:HigherLevelApps/HigherLevelApps.c/User_Interface.c **** 	AimingSystem.Graph->end_x = (uint32_t) (ShapeTwoDistance * CMToPixel - X_offSet);
 879              		.loc 1 316 30 is_stmt 0 view .LVU294
 880 024a 628D     		ldrh	r2, [r4, #42]
ARM GAS  C:\Users\purdu\AppData\Local\Temp\ccP1UZx1.s 			page 28


 881 024c 4FF4B978 		mov	r8, #370
 882 0250 68F34F12 		bfi	r2, r8, #5, #11
 883 0254 6285     		strh	r2, [r4, #42]	@ movhi
 317:HigherLevelApps/HigherLevelApps.c/User_Interface.c **** 	AimingSystem.Graph->end_y = (uint32_t) (ShapeTwoTop * CMToPixel);
 884              		.loc 1 317 2 is_stmt 1 view .LVU295
 317:HigherLevelApps/HigherLevelApps.c/User_Interface.c **** 	AimingSystem.Graph->end_y = (uint32_t) (ShapeTwoTop * CMToPixel);
 885              		.loc 1 317 28 is_stmt 0 view .LVU296
 886 0256 E26A     		ldr	r2, [r4, #44]
 887 0258 6AF39422 		bfi	r2, r10, #10, #11
 888 025c E262     		str	r2, [r4, #44]
 318:HigherLevelApps/HigherLevelApps.c/User_Interface.c **** 	AimingSystem.PacketNumber = UI.Global_PacketNumber;
 889              		.loc 1 318 2 is_stmt 1 view .LVU297
 318:HigherLevelApps/HigherLevelApps.c/User_Interface.c **** 	AimingSystem.PacketNumber = UI.Global_PacketNumber;
 890              		.loc 1 318 28 is_stmt 0 view .LVU298
 891 025e E28D     		ldrh	r2, [r4, #46]
 892 0260 4FF4C279 		mov	r9, #388
 893 0264 69F34F12 		bfi	r2, r9, #5, #11
 894 0268 E285     		strh	r2, [r4, #46]	@ movhi
 319:HigherLevelApps/HigherLevelApps.c/User_Interface.c **** 	UI_Add_Frame_And_Data_Header_OneGraphics(&AimingSystem);
 895              		.loc 1 319 2 is_stmt 1 view .LVU299
 319:HigherLevelApps/HigherLevelApps.c/User_Interface.c **** 	UI_Add_Frame_And_Data_Header_OneGraphics(&AimingSystem);
 896              		.loc 1 319 28 is_stmt 0 view .LVU300
 897 026a 84F82030 		strb	r3, [r4, #32]
 320:HigherLevelApps/HigherLevelApps.c/User_Interface.c **** 	UI_Add_OneGraphics(&AimingSystem);
 898              		.loc 1 320 2 is_stmt 1 view .LVU301
 899 026e 2046     		mov	r0, r4
 900 0270 FFF7FEFF 		bl	UI_Add_Frame_And_Data_Header_OneGraphics
 901              	.LVL38:
 321:HigherLevelApps/HigherLevelApps.c/User_Interface.c ****   UI_Add_Frame_Tail_OneGraphics(&AimingSystem);
 902              		.loc 1 321 2 view .LVU302
 903 0274 2046     		mov	r0, r4
 904 0276 FFF7FEFF 		bl	UI_Add_OneGraphics
 905              	.LVL39:
 322:HigherLevelApps/HigherLevelApps.c/User_Interface.c **** 	osDelay(100);
 906              		.loc 1 322 3 view .LVU303
 907 027a 2046     		mov	r0, r4
 908 027c FFF7FEFF 		bl	UI_Add_Frame_Tail_OneGraphics
 909              	.LVL40:
 323:HigherLevelApps/HigherLevelApps.c/User_Interface.c **** 	HAL_UART_Transmit(UART, AimingSystem.dataBuffer, sizeof(AimingSystem.dataBuffer), 500);
 910              		.loc 1 323 2 view .LVU304
 911 0280 6420     		movs	r0, #100
 912 0282 FFF7FEFF 		bl	osDelay
 913              	.LVL41:
 324:HigherLevelApps/HigherLevelApps.c/User_Interface.c **** 	UI.Global_PacketNumber++;
 914              		.loc 1 324 2 view .LVU305
 915 0286 4FF4FA73 		mov	r3, #500
 916 028a 5A46     		mov	r2, fp
 917 028c 2146     		mov	r1, r4
 918 028e 2E48     		ldr	r0, .L19+8
 919 0290 FFF7FEFF 		bl	HAL_UART_Transmit
 920              	.LVL42:
 325:HigherLevelApps/HigherLevelApps.c/User_Interface.c **** 	
 921              		.loc 1 325 2 view .LVU306
 325:HigherLevelApps/HigherLevelApps.c/User_Interface.c **** 	
 922              		.loc 1 325 4 is_stmt 0 view .LVU307
 923 0294 EB79     		ldrb	r3, [r5, #7]	@ zero_extendqisi2
 325:HigherLevelApps/HigherLevelApps.c/User_Interface.c **** 	
ARM GAS  C:\Users\purdu\AppData\Local\Temp\ccP1UZx1.s 			page 29


 924              		.loc 1 325 24 view .LVU308
 925 0296 0133     		adds	r3, r3, #1
 926 0298 DBB2     		uxtb	r3, r3
 927 029a EB71     		strb	r3, [r5, #7]
 327:HigherLevelApps/HigherLevelApps.c/User_Interface.c **** 	AimingSystem.Graph->graphic_name[1] = 'i';
 928              		.loc 1 327 2 is_stmt 1 view .LVU309
 327:HigherLevelApps/HigherLevelApps.c/User_Interface.c **** 	AimingSystem.Graph->graphic_name[1] = 'i';
 929              		.loc 1 327 38 is_stmt 0 view .LVU310
 930 029c 84F82170 		strb	r7, [r4, #33]
 328:HigherLevelApps/HigherLevelApps.c/User_Interface.c **** 	AimingSystem.Graph->graphic_name[2] = '6';
 931              		.loc 1 328 2 is_stmt 1 view .LVU311
 328:HigherLevelApps/HigherLevelApps.c/User_Interface.c **** 	AimingSystem.Graph->graphic_name[2] = '6';
 932              		.loc 1 328 38 is_stmt 0 view .LVU312
 933 02a0 84F82260 		strb	r6, [r4, #34]
 329:HigherLevelApps/HigherLevelApps.c/User_Interface.c **** 	AimingSystem.Graph->start_x = (uint32_t) ((34.3f - ShapeTwoDistance) * CMToPixel - X_offSet);
 934              		.loc 1 329 2 is_stmt 1 view .LVU313
 329:HigherLevelApps/HigherLevelApps.c/User_Interface.c **** 	AimingSystem.Graph->start_x = (uint32_t) ((34.3f - ShapeTwoDistance) * CMToPixel - X_offSet);
 935              		.loc 1 329 38 is_stmt 0 view .LVU314
 936 02a4 3622     		movs	r2, #54
 937 02a6 84F82320 		strb	r2, [r4, #35]
 330:HigherLevelApps/HigherLevelApps.c/User_Interface.c **** 	AimingSystem.Graph->start_y = (uint32_t) (ShapeTwoBottom * CMToPixel);
 938              		.loc 1 330 2 is_stmt 1 view .LVU315
 330:HigherLevelApps/HigherLevelApps.c/User_Interface.c **** 	AimingSystem.Graph->start_y = (uint32_t) (ShapeTwoBottom * CMToPixel);
 939              		.loc 1 330 30 is_stmt 0 view .LVU316
 940 02aa A26A     		ldr	r2, [r4, #40]
 941 02ac 4FF47271 		mov	r1, #968
 942 02b0 61F39422 		bfi	r2, r1, #10, #11
 943 02b4 A262     		str	r2, [r4, #40]
 331:HigherLevelApps/HigherLevelApps.c/User_Interface.c **** 	AimingSystem.Graph->end_x = (uint32_t) ((34.3f - ShapeTwoDistance) * CMToPixel - X_offSet);
 944              		.loc 1 331 2 is_stmt 1 view .LVU317
 331:HigherLevelApps/HigherLevelApps.c/User_Interface.c **** 	AimingSystem.Graph->end_x = (uint32_t) ((34.3f - ShapeTwoDistance) * CMToPixel - X_offSet);
 945              		.loc 1 331 30 is_stmt 0 view .LVU318
 946 02b6 628D     		ldrh	r2, [r4, #42]
 947 02b8 68F34F12 		bfi	r2, r8, #5, #11
 948 02bc 6285     		strh	r2, [r4, #42]	@ movhi
 332:HigherLevelApps/HigherLevelApps.c/User_Interface.c **** 	AimingSystem.Graph->end_y = (uint32_t) (ShapeTwoTop * CMToPixel);
 949              		.loc 1 332 2 is_stmt 1 view .LVU319
 332:HigherLevelApps/HigherLevelApps.c/User_Interface.c **** 	AimingSystem.Graph->end_y = (uint32_t) (ShapeTwoTop * CMToPixel);
 950              		.loc 1 332 28 is_stmt 0 view .LVU320
 951 02be E26A     		ldr	r2, [r4, #44]
 952 02c0 61F39422 		bfi	r2, r1, #10, #11
 953 02c4 E262     		str	r2, [r4, #44]
 333:HigherLevelApps/HigherLevelApps.c/User_Interface.c **** 	AimingSystem.PacketNumber = UI.Global_PacketNumber;
 954              		.loc 1 333 2 is_stmt 1 view .LVU321
 333:HigherLevelApps/HigherLevelApps.c/User_Interface.c **** 	AimingSystem.PacketNumber = UI.Global_PacketNumber;
 955              		.loc 1 333 28 is_stmt 0 view .LVU322
 956 02c6 E28D     		ldrh	r2, [r4, #46]
 957 02c8 69F34F12 		bfi	r2, r9, #5, #11
 958 02cc E285     		strh	r2, [r4, #46]	@ movhi
 334:HigherLevelApps/HigherLevelApps.c/User_Interface.c **** 	UI_Add_Frame_And_Data_Header_OneGraphics(&AimingSystem);
 959              		.loc 1 334 2 is_stmt 1 view .LVU323
 334:HigherLevelApps/HigherLevelApps.c/User_Interface.c **** 	UI_Add_Frame_And_Data_Header_OneGraphics(&AimingSystem);
 960              		.loc 1 334 28 is_stmt 0 view .LVU324
 961 02ce 84F82030 		strb	r3, [r4, #32]
 335:HigherLevelApps/HigherLevelApps.c/User_Interface.c **** 	UI_Add_OneGraphics(&AimingSystem);
 962              		.loc 1 335 2 is_stmt 1 view .LVU325
 963 02d2 2046     		mov	r0, r4
ARM GAS  C:\Users\purdu\AppData\Local\Temp\ccP1UZx1.s 			page 30


 964 02d4 FFF7FEFF 		bl	UI_Add_Frame_And_Data_Header_OneGraphics
 965              	.LVL43:
 336:HigherLevelApps/HigherLevelApps.c/User_Interface.c ****   UI_Add_Frame_Tail_OneGraphics(&AimingSystem);
 966              		.loc 1 336 2 view .LVU326
 967 02d8 2046     		mov	r0, r4
 968 02da FFF7FEFF 		bl	UI_Add_OneGraphics
 969              	.LVL44:
 337:HigherLevelApps/HigherLevelApps.c/User_Interface.c **** 	osDelay(100);
 970              		.loc 1 337 3 view .LVU327
 971 02de 2046     		mov	r0, r4
 972 02e0 FFF7FEFF 		bl	UI_Add_Frame_Tail_OneGraphics
 973              	.LVL45:
 338:HigherLevelApps/HigherLevelApps.c/User_Interface.c **** 	HAL_UART_Transmit(UART, AimingSystem.dataBuffer, sizeof(AimingSystem.dataBuffer), 500);
 974              		.loc 1 338 2 view .LVU328
 975 02e4 6420     		movs	r0, #100
 976 02e6 FFF7FEFF 		bl	osDelay
 977              	.LVL46:
 339:HigherLevelApps/HigherLevelApps.c/User_Interface.c **** 	UI.Global_PacketNumber++;
 978              		.loc 1 339 2 view .LVU329
 979 02ea 4FF4FA73 		mov	r3, #500
 980 02ee 5A46     		mov	r2, fp
 981 02f0 2146     		mov	r1, r4
 982 02f2 1548     		ldr	r0, .L19+8
 983 02f4 FFF7FEFF 		bl	HAL_UART_Transmit
 984              	.LVL47:
 340:HigherLevelApps/HigherLevelApps.c/User_Interface.c **** 
 985              		.loc 1 340 2 view .LVU330
 340:HigherLevelApps/HigherLevelApps.c/User_Interface.c **** 
 986              		.loc 1 340 4 is_stmt 0 view .LVU331
 987 02f8 EB79     		ldrb	r3, [r5, #7]	@ zero_extendqisi2
 340:HigherLevelApps/HigherLevelApps.c/User_Interface.c **** 
 988              		.loc 1 340 24 view .LVU332
 989 02fa 0133     		adds	r3, r3, #1
 990 02fc DBB2     		uxtb	r3, r3
 991 02fe EB71     		strb	r3, [r5, #7]
 342:HigherLevelApps/HigherLevelApps.c/User_Interface.c **** 	AimingSystem.Graph->graphic_name[1] = 'i';
 992              		.loc 1 342 2 is_stmt 1 view .LVU333
 342:HigherLevelApps/HigherLevelApps.c/User_Interface.c **** 	AimingSystem.Graph->graphic_name[1] = 'i';
 993              		.loc 1 342 38 is_stmt 0 view .LVU334
 994 0300 84F82170 		strb	r7, [r4, #33]
 343:HigherLevelApps/HigherLevelApps.c/User_Interface.c **** 	AimingSystem.Graph->graphic_name[2] = '7';
 995              		.loc 1 343 2 is_stmt 1 view .LVU335
 343:HigherLevelApps/HigherLevelApps.c/User_Interface.c **** 	AimingSystem.Graph->graphic_name[2] = '7';
 996              		.loc 1 343 38 is_stmt 0 view .LVU336
 997 0304 84F82260 		strb	r6, [r4, #34]
 344:HigherLevelApps/HigherLevelApps.c/User_Interface.c **** 	AimingSystem.Graph->start_x = (uint32_t) (ShapeTwoDistance * CMToPixel - X_offSet);
 998              		.loc 1 344 2 is_stmt 1 view .LVU337
 344:HigherLevelApps/HigherLevelApps.c/User_Interface.c **** 	AimingSystem.Graph->start_x = (uint32_t) (ShapeTwoDistance * CMToPixel - X_offSet);
 999              		.loc 1 344 38 is_stmt 0 view .LVU338
 1000 0308 3722     		movs	r2, #55
 1001 030a 84F82320 		strb	r2, [r4, #35]
 345:HigherLevelApps/HigherLevelApps.c/User_Interface.c **** 	AimingSystem.Graph->start_y = (uint32_t) (ShapeTwoTop * CMToPixel);
 1002              		.loc 1 345 2 is_stmt 1 view .LVU339
 345:HigherLevelApps/HigherLevelApps.c/User_Interface.c **** 	AimingSystem.Graph->start_y = (uint32_t) (ShapeTwoTop * CMToPixel);
 1003              		.loc 1 345 30 is_stmt 0 view .LVU340
 1004 030e A26A     		ldr	r2, [r4, #40]
 1005 0310 6AF39422 		bfi	r2, r10, #10, #11
ARM GAS  C:\Users\purdu\AppData\Local\Temp\ccP1UZx1.s 			page 31


 1006 0314 A262     		str	r2, [r4, #40]
 346:HigherLevelApps/HigherLevelApps.c/User_Interface.c **** 	AimingSystem.Graph->end_x = (uint32_t) (ShapeThreeDistance * CMToPixel - X_offSet);
 1007              		.loc 1 346 2 is_stmt 1 view .LVU341
 346:HigherLevelApps/HigherLevelApps.c/User_Interface.c **** 	AimingSystem.Graph->end_x = (uint32_t) (ShapeThreeDistance * CMToPixel - X_offSet);
 1008              		.loc 1 346 30 is_stmt 0 view .LVU342
 1009 0316 628D     		ldrh	r2, [r4, #42]
 1010 0318 69F34F12 		bfi	r2, r9, #5, #11
 1011 031c 6285     		strh	r2, [r4, #42]	@ movhi
 347:HigherLevelApps/HigherLevelApps.c/User_Interface.c **** 	AimingSystem.Graph->end_y = (uint32_t) (ShapeThreeBottom * CMToPixel);
 1012              		.loc 1 347 2 is_stmt 1 view .LVU343
 347:HigherLevelApps/HigherLevelApps.c/User_Interface.c **** 	AimingSystem.Graph->end_y = (uint32_t) (ShapeThreeBottom * CMToPixel);
 1013              		.loc 1 347 28 is_stmt 0 view .LVU344
 1014 031e E26A     		ldr	r2, [r4, #44]
 1015 0320 40F2B33A 		movw	r10, #947
 1016 0324 6AF39422 		bfi	r2, r10, #10, #11
 1017 0328 E262     		str	r2, [r4, #44]
 348:HigherLevelApps/HigherLevelApps.c/User_Interface.c **** 	AimingSystem.PacketNumber = UI.Global_PacketNumber;
 1018              		.loc 1 348 2 is_stmt 1 view .LVU345
 348:HigherLevelApps/HigherLevelApps.c/User_Interface.c **** 	AimingSystem.PacketNumber = UI.Global_PacketNumber;
 1019              		.loc 1 348 28 is_stmt 0 view .LVU346
 1020 032a E28D     		ldrh	r2, [r4, #46]
 1021 032c 4FF4C478 		mov	r8, #392
 1022 0330 68F34F12 		bfi	r2, r8, #5, #11
 1023 0334 E285     		strh	r2, [r4, #46]	@ movhi
 349:HigherLevelApps/HigherLevelApps.c/User_Interface.c **** 	UI_Add_Frame_And_Data_Header_OneGraphics(&AimingSystem);
 1024              		.loc 1 349 2 is_stmt 1 view .LVU347
 349:HigherLevelApps/HigherLevelApps.c/User_Interface.c **** 	UI_Add_Frame_And_Data_Header_OneGraphics(&AimingSystem);
 1025              		.loc 1 349 28 is_stmt 0 view .LVU348
 1026 0336 84F82030 		strb	r3, [r4, #32]
 350:HigherLevelApps/HigherLevelApps.c/User_Interface.c **** 	UI_Add_OneGraphics(&AimingSystem);
 1027              		.loc 1 350 2 is_stmt 1 view .LVU349
 1028 033a 2046     		mov	r0, r4
 1029 033c 06E0     		b	.L20
 1030              	.L21:
 1031 033e 00BF     		.align	2
 1032              	.L19:
 1033 0340 00000000 		.word	AimingSystem
 1034 0344 00000000 		.word	UI
 1035 0348 00000000 		.word	huart6
 1036              	.L20:
 1037 034c FFF7FEFF 		bl	UI_Add_Frame_And_Data_Header_OneGraphics
 1038              	.LVL48:
 351:HigherLevelApps/HigherLevelApps.c/User_Interface.c ****   UI_Add_Frame_Tail_OneGraphics(&AimingSystem);
 1039              		.loc 1 351 2 view .LVU350
 1040 0350 2046     		mov	r0, r4
 1041 0352 FFF7FEFF 		bl	UI_Add_OneGraphics
 1042              	.LVL49:
 352:HigherLevelApps/HigherLevelApps.c/User_Interface.c **** 	osDelay(100);
 1043              		.loc 1 352 3 view .LVU351
 1044 0356 2046     		mov	r0, r4
 1045 0358 FFF7FEFF 		bl	UI_Add_Frame_Tail_OneGraphics
 1046              	.LVL50:
 353:HigherLevelApps/HigherLevelApps.c/User_Interface.c **** 	HAL_UART_Transmit(UART, AimingSystem.dataBuffer, sizeof(AimingSystem.dataBuffer), 500);
 1047              		.loc 1 353 2 view .LVU352
 1048 035c 6420     		movs	r0, #100
 1049 035e FFF7FEFF 		bl	osDelay
 1050              	.LVL51:
ARM GAS  C:\Users\purdu\AppData\Local\Temp\ccP1UZx1.s 			page 32


 354:HigherLevelApps/HigherLevelApps.c/User_Interface.c **** 	UI.Global_PacketNumber++;
 1051              		.loc 1 354 2 view .LVU353
 1052 0362 4FF4FA73 		mov	r3, #500
 1053 0366 5A46     		mov	r2, fp
 1054 0368 2146     		mov	r1, r4
 1055 036a 4F48     		ldr	r0, .L22
 1056 036c FFF7FEFF 		bl	HAL_UART_Transmit
 1057              	.LVL52:
 355:HigherLevelApps/HigherLevelApps.c/User_Interface.c **** 	
 1058              		.loc 1 355 2 view .LVU354
 355:HigherLevelApps/HigherLevelApps.c/User_Interface.c **** 	
 1059              		.loc 1 355 4 is_stmt 0 view .LVU355
 1060 0370 EB79     		ldrb	r3, [r5, #7]	@ zero_extendqisi2
 355:HigherLevelApps/HigherLevelApps.c/User_Interface.c **** 	
 1061              		.loc 1 355 24 view .LVU356
 1062 0372 0133     		adds	r3, r3, #1
 1063 0374 DBB2     		uxtb	r3, r3
 1064 0376 EB71     		strb	r3, [r5, #7]
 357:HigherLevelApps/HigherLevelApps.c/User_Interface.c **** 	AimingSystem.Graph->graphic_name[1] = 'i';
 1065              		.loc 1 357 2 is_stmt 1 view .LVU357
 357:HigherLevelApps/HigherLevelApps.c/User_Interface.c **** 	AimingSystem.Graph->graphic_name[1] = 'i';
 1066              		.loc 1 357 38 is_stmt 0 view .LVU358
 1067 0378 84F82170 		strb	r7, [r4, #33]
 358:HigherLevelApps/HigherLevelApps.c/User_Interface.c **** 	AimingSystem.Graph->graphic_name[2] = '8';
 1068              		.loc 1 358 2 is_stmt 1 view .LVU359
 358:HigherLevelApps/HigherLevelApps.c/User_Interface.c **** 	AimingSystem.Graph->graphic_name[2] = '8';
 1069              		.loc 1 358 38 is_stmt 0 view .LVU360
 1070 037c 84F82260 		strb	r6, [r4, #34]
 359:HigherLevelApps/HigherLevelApps.c/User_Interface.c **** 	AimingSystem.Graph->start_x = (34.3f - ShapeTwoDistance) * CMToPixel - X_offSet;
 1071              		.loc 1 359 2 is_stmt 1 view .LVU361
 359:HigherLevelApps/HigherLevelApps.c/User_Interface.c **** 	AimingSystem.Graph->start_x = (34.3f - ShapeTwoDistance) * CMToPixel - X_offSet;
 1072              		.loc 1 359 38 is_stmt 0 view .LVU362
 1073 0380 3822     		movs	r2, #56
 1074 0382 84F82320 		strb	r2, [r4, #35]
 360:HigherLevelApps/HigherLevelApps.c/User_Interface.c **** 	AimingSystem.Graph->start_y = ShapeTwoTop * CMToPixel;
 1075              		.loc 1 360 2 is_stmt 1 view .LVU363
 360:HigherLevelApps/HigherLevelApps.c/User_Interface.c **** 	AimingSystem.Graph->start_y = ShapeTwoTop * CMToPixel;
 1076              		.loc 1 360 30 is_stmt 0 view .LVU364
 1077 0386 A26A     		ldr	r2, [r4, #40]
 1078 0388 4FF47271 		mov	r1, #968
 1079 038c 61F39422 		bfi	r2, r1, #10, #11
 1080 0390 A262     		str	r2, [r4, #40]
 361:HigherLevelApps/HigherLevelApps.c/User_Interface.c **** 	AimingSystem.Graph->end_x = (34.3f - ShapeThreeDistance) * CMToPixel - X_offSet;
 1081              		.loc 1 361 2 is_stmt 1 view .LVU365
 361:HigherLevelApps/HigherLevelApps.c/User_Interface.c **** 	AimingSystem.Graph->end_x = (34.3f - ShapeThreeDistance) * CMToPixel - X_offSet;
 1082              		.loc 1 361 30 is_stmt 0 view .LVU366
 1083 0392 628D     		ldrh	r2, [r4, #42]
 1084 0394 69F34F12 		bfi	r2, r9, #5, #11
 1085 0398 6285     		strh	r2, [r4, #42]	@ movhi
 362:HigherLevelApps/HigherLevelApps.c/User_Interface.c **** 	AimingSystem.Graph->end_y = ShapeThreeBottom * CMToPixel;
 1086              		.loc 1 362 2 is_stmt 1 view .LVU367
 362:HigherLevelApps/HigherLevelApps.c/User_Interface.c **** 	AimingSystem.Graph->end_y = ShapeThreeBottom * CMToPixel;
 1087              		.loc 1 362 28 is_stmt 0 view .LVU368
 1088 039a E26A     		ldr	r2, [r4, #44]
 1089 039c 40F2CD39 		movw	r9, #973
 1090 03a0 69F39422 		bfi	r2, r9, #10, #11
 1091 03a4 E262     		str	r2, [r4, #44]
ARM GAS  C:\Users\purdu\AppData\Local\Temp\ccP1UZx1.s 			page 33


 363:HigherLevelApps/HigherLevelApps.c/User_Interface.c **** 	AimingSystem.PacketNumber = UI.Global_PacketNumber;
 1092              		.loc 1 363 2 is_stmt 1 view .LVU369
 363:HigherLevelApps/HigherLevelApps.c/User_Interface.c **** 	AimingSystem.PacketNumber = UI.Global_PacketNumber;
 1093              		.loc 1 363 28 is_stmt 0 view .LVU370
 1094 03a6 E28D     		ldrh	r2, [r4, #46]
 1095 03a8 68F34F12 		bfi	r2, r8, #5, #11
 1096 03ac E285     		strh	r2, [r4, #46]	@ movhi
 364:HigherLevelApps/HigherLevelApps.c/User_Interface.c **** 	UI_Add_Frame_And_Data_Header_OneGraphics(&AimingSystem);
 1097              		.loc 1 364 2 is_stmt 1 view .LVU371
 364:HigherLevelApps/HigherLevelApps.c/User_Interface.c **** 	UI_Add_Frame_And_Data_Header_OneGraphics(&AimingSystem);
 1098              		.loc 1 364 28 is_stmt 0 view .LVU372
 1099 03ae 84F82030 		strb	r3, [r4, #32]
 365:HigherLevelApps/HigherLevelApps.c/User_Interface.c **** 	UI_Add_OneGraphics(&AimingSystem);
 1100              		.loc 1 365 2 is_stmt 1 view .LVU373
 1101 03b2 2046     		mov	r0, r4
 1102 03b4 FFF7FEFF 		bl	UI_Add_Frame_And_Data_Header_OneGraphics
 1103              	.LVL53:
 366:HigherLevelApps/HigherLevelApps.c/User_Interface.c ****   UI_Add_Frame_Tail_OneGraphics(&AimingSystem);
 1104              		.loc 1 366 2 view .LVU374
 1105 03b8 2046     		mov	r0, r4
 1106 03ba FFF7FEFF 		bl	UI_Add_OneGraphics
 1107              	.LVL54:
 367:HigherLevelApps/HigherLevelApps.c/User_Interface.c **** 	osDelay(100);
 1108              		.loc 1 367 3 view .LVU375
 1109 03be 2046     		mov	r0, r4
 1110 03c0 FFF7FEFF 		bl	UI_Add_Frame_Tail_OneGraphics
 1111              	.LVL55:
 368:HigherLevelApps/HigherLevelApps.c/User_Interface.c **** 	HAL_UART_Transmit(UART, AimingSystem.dataBuffer, sizeof(AimingSystem.dataBuffer), 500);
 1112              		.loc 1 368 2 view .LVU376
 1113 03c4 6420     		movs	r0, #100
 1114 03c6 FFF7FEFF 		bl	osDelay
 1115              	.LVL56:
 369:HigherLevelApps/HigherLevelApps.c/User_Interface.c **** 	UI.Global_PacketNumber++;
 1116              		.loc 1 369 2 view .LVU377
 1117 03ca 4FF4FA73 		mov	r3, #500
 1118 03ce 5A46     		mov	r2, fp
 1119 03d0 2146     		mov	r1, r4
 1120 03d2 3548     		ldr	r0, .L22
 1121 03d4 FFF7FEFF 		bl	HAL_UART_Transmit
 1122              	.LVL57:
 370:HigherLevelApps/HigherLevelApps.c/User_Interface.c **** 	
 1123              		.loc 1 370 2 view .LVU378
 370:HigherLevelApps/HigherLevelApps.c/User_Interface.c **** 	
 1124              		.loc 1 370 4 is_stmt 0 view .LVU379
 1125 03d8 EB79     		ldrb	r3, [r5, #7]	@ zero_extendqisi2
 370:HigherLevelApps/HigherLevelApps.c/User_Interface.c **** 	
 1126              		.loc 1 370 24 view .LVU380
 1127 03da 0133     		adds	r3, r3, #1
 1128 03dc DBB2     		uxtb	r3, r3
 1129 03de EB71     		strb	r3, [r5, #7]
 372:HigherLevelApps/HigherLevelApps.c/User_Interface.c **** 	AimingSystem.Graph->graphic_name[1] = 'i';
 1130              		.loc 1 372 2 is_stmt 1 view .LVU381
 372:HigherLevelApps/HigherLevelApps.c/User_Interface.c **** 	AimingSystem.Graph->graphic_name[1] = 'i';
 1131              		.loc 1 372 38 is_stmt 0 view .LVU382
 1132 03e0 84F82170 		strb	r7, [r4, #33]
 373:HigherLevelApps/HigherLevelApps.c/User_Interface.c **** 	AimingSystem.Graph->graphic_name[2] = '9';
 1133              		.loc 1 373 2 is_stmt 1 view .LVU383
ARM GAS  C:\Users\purdu\AppData\Local\Temp\ccP1UZx1.s 			page 34


 373:HigherLevelApps/HigherLevelApps.c/User_Interface.c **** 	AimingSystem.Graph->graphic_name[2] = '9';
 1134              		.loc 1 373 38 is_stmt 0 view .LVU384
 1135 03e4 84F82260 		strb	r6, [r4, #34]
 374:HigherLevelApps/HigherLevelApps.c/User_Interface.c **** 	AimingSystem.Graph->start_x = ShapeThreeDistance * CMToPixel - X_offSet;
 1136              		.loc 1 374 2 is_stmt 1 view .LVU385
 374:HigherLevelApps/HigherLevelApps.c/User_Interface.c **** 	AimingSystem.Graph->start_x = ShapeThreeDistance * CMToPixel - X_offSet;
 1137              		.loc 1 374 38 is_stmt 0 view .LVU386
 1138 03e8 3922     		movs	r2, #57
 1139 03ea 84F82320 		strb	r2, [r4, #35]
 375:HigherLevelApps/HigherLevelApps.c/User_Interface.c **** 	AimingSystem.Graph->start_y = ShapeThreeBottom * CMToPixel;
 1140              		.loc 1 375 2 is_stmt 1 view .LVU387
 375:HigherLevelApps/HigherLevelApps.c/User_Interface.c **** 	AimingSystem.Graph->start_y = ShapeThreeBottom * CMToPixel;
 1141              		.loc 1 375 30 is_stmt 0 view .LVU388
 1142 03ee A26A     		ldr	r2, [r4, #40]
 1143 03f0 6AF39422 		bfi	r2, r10, #10, #11
 1144 03f4 A262     		str	r2, [r4, #40]
 376:HigherLevelApps/HigherLevelApps.c/User_Interface.c **** 	AimingSystem.Graph->end_x = ShapeThreeDistance * CMToPixel - X_offSet;
 1145              		.loc 1 376 2 is_stmt 1 view .LVU389
 376:HigherLevelApps/HigherLevelApps.c/User_Interface.c **** 	AimingSystem.Graph->end_x = ShapeThreeDistance * CMToPixel - X_offSet;
 1146              		.loc 1 376 30 is_stmt 0 view .LVU390
 1147 03f6 628D     		ldrh	r2, [r4, #42]
 1148 03f8 68F34F12 		bfi	r2, r8, #5, #11
 1149 03fc 6285     		strh	r2, [r4, #42]	@ movhi
 377:HigherLevelApps/HigherLevelApps.c/User_Interface.c **** 	AimingSystem.Graph->end_y = ShapeThreeTop * CMToPixel;
 1150              		.loc 1 377 2 is_stmt 1 view .LVU391
 377:HigherLevelApps/HigherLevelApps.c/User_Interface.c **** 	AimingSystem.Graph->end_y = ShapeThreeTop * CMToPixel;
 1151              		.loc 1 377 28 is_stmt 0 view .LVU392
 1152 03fe E26A     		ldr	r2, [r4, #44]
 1153 0400 6AF39422 		bfi	r2, r10, #10, #11
 1154 0404 E262     		str	r2, [r4, #44]
 378:HigherLevelApps/HigherLevelApps.c/User_Interface.c **** 	AimingSystem.PacketNumber = UI.Global_PacketNumber;
 1155              		.loc 1 378 2 is_stmt 1 view .LVU393
 378:HigherLevelApps/HigherLevelApps.c/User_Interface.c **** 	AimingSystem.PacketNumber = UI.Global_PacketNumber;
 1156              		.loc 1 378 28 is_stmt 0 view .LVU394
 1157 0406 E28D     		ldrh	r2, [r4, #46]
 1158 0408 40F2A91A 		movw	r10, #425
 1159 040c 6AF34F12 		bfi	r2, r10, #5, #11
 1160 0410 E285     		strh	r2, [r4, #46]	@ movhi
 379:HigherLevelApps/HigherLevelApps.c/User_Interface.c **** 	UI_Add_Frame_And_Data_Header_OneGraphics(&AimingSystem);
 1161              		.loc 1 379 2 is_stmt 1 view .LVU395
 379:HigherLevelApps/HigherLevelApps.c/User_Interface.c **** 	UI_Add_Frame_And_Data_Header_OneGraphics(&AimingSystem);
 1162              		.loc 1 379 28 is_stmt 0 view .LVU396
 1163 0412 84F82030 		strb	r3, [r4, #32]
 380:HigherLevelApps/HigherLevelApps.c/User_Interface.c **** 	UI_Add_OneGraphics(&AimingSystem);
 1164              		.loc 1 380 2 is_stmt 1 view .LVU397
 1165 0416 2046     		mov	r0, r4
 1166 0418 FFF7FEFF 		bl	UI_Add_Frame_And_Data_Header_OneGraphics
 1167              	.LVL58:
 381:HigherLevelApps/HigherLevelApps.c/User_Interface.c ****   UI_Add_Frame_Tail_OneGraphics(&AimingSystem);
 1168              		.loc 1 381 2 view .LVU398
 1169 041c 2046     		mov	r0, r4
 1170 041e FFF7FEFF 		bl	UI_Add_OneGraphics
 1171              	.LVL59:
 382:HigherLevelApps/HigherLevelApps.c/User_Interface.c **** 	osDelay(100);
 1172              		.loc 1 382 3 view .LVU399
 1173 0422 2046     		mov	r0, r4
 1174 0424 FFF7FEFF 		bl	UI_Add_Frame_Tail_OneGraphics
ARM GAS  C:\Users\purdu\AppData\Local\Temp\ccP1UZx1.s 			page 35


 1175              	.LVL60:
 383:HigherLevelApps/HigherLevelApps.c/User_Interface.c **** 	HAL_UART_Transmit(UART, AimingSystem.dataBuffer, sizeof(AimingSystem.dataBuffer), 500);
 1176              		.loc 1 383 2 view .LVU400
 1177 0428 6420     		movs	r0, #100
 1178 042a FFF7FEFF 		bl	osDelay
 1179              	.LVL61:
 384:HigherLevelApps/HigherLevelApps.c/User_Interface.c **** 	UI.Global_PacketNumber++;
 1180              		.loc 1 384 2 view .LVU401
 1181 042e 4FF4FA73 		mov	r3, #500
 1182 0432 5A46     		mov	r2, fp
 1183 0434 2146     		mov	r1, r4
 1184 0436 1C48     		ldr	r0, .L22
 1185 0438 FFF7FEFF 		bl	HAL_UART_Transmit
 1186              	.LVL62:
 385:HigherLevelApps/HigherLevelApps.c/User_Interface.c **** 	
 1187              		.loc 1 385 2 view .LVU402
 385:HigherLevelApps/HigherLevelApps.c/User_Interface.c **** 	
 1188              		.loc 1 385 4 is_stmt 0 view .LVU403
 1189 043c EB79     		ldrb	r3, [r5, #7]	@ zero_extendqisi2
 385:HigherLevelApps/HigherLevelApps.c/User_Interface.c **** 	
 1190              		.loc 1 385 24 view .LVU404
 1191 043e 0133     		adds	r3, r3, #1
 1192 0440 DBB2     		uxtb	r3, r3
 1193 0442 EB71     		strb	r3, [r5, #7]
 387:HigherLevelApps/HigherLevelApps.c/User_Interface.c **** 	AimingSystem.Graph->graphic_name[1] = 'i';
 1194              		.loc 1 387 2 is_stmt 1 view .LVU405
 387:HigherLevelApps/HigherLevelApps.c/User_Interface.c **** 	AimingSystem.Graph->graphic_name[1] = 'i';
 1195              		.loc 1 387 38 is_stmt 0 view .LVU406
 1196 0444 84F82170 		strb	r7, [r4, #33]
 388:HigherLevelApps/HigherLevelApps.c/User_Interface.c **** 	AimingSystem.Graph->graphic_name[2] = '0';
 1197              		.loc 1 388 2 is_stmt 1 view .LVU407
 388:HigherLevelApps/HigherLevelApps.c/User_Interface.c **** 	AimingSystem.Graph->graphic_name[2] = '0';
 1198              		.loc 1 388 38 is_stmt 0 view .LVU408
 1199 0448 84F82260 		strb	r6, [r4, #34]
 389:HigherLevelApps/HigherLevelApps.c/User_Interface.c **** 	AimingSystem.Graph->start_x = (34.3f - ShapeThreeDistance) * CMToPixel - X_offSet;
 1200              		.loc 1 389 2 is_stmt 1 view .LVU409
 389:HigherLevelApps/HigherLevelApps.c/User_Interface.c **** 	AimingSystem.Graph->start_x = (34.3f - ShapeThreeDistance) * CMToPixel - X_offSet;
 1201              		.loc 1 389 38 is_stmt 0 view .LVU410
 1202 044c 4FF03002 		mov	r2, #48
 1203 0450 84F82320 		strb	r2, [r4, #35]
 390:HigherLevelApps/HigherLevelApps.c/User_Interface.c **** 	AimingSystem.Graph->start_y = ShapeThreeBottom * CMToPixel;
 1204              		.loc 1 390 2 is_stmt 1 view .LVU411
 390:HigherLevelApps/HigherLevelApps.c/User_Interface.c **** 	AimingSystem.Graph->start_y = ShapeThreeBottom * CMToPixel;
 1205              		.loc 1 390 30 is_stmt 0 view .LVU412
 1206 0454 A26A     		ldr	r2, [r4, #40]
 1207 0456 69F39422 		bfi	r2, r9, #10, #11
 1208 045a A262     		str	r2, [r4, #40]
 391:HigherLevelApps/HigherLevelApps.c/User_Interface.c **** 	AimingSystem.Graph->end_x = (34.3f - ShapeThreeDistance) * CMToPixel - X_offSet;
 1209              		.loc 1 391 2 is_stmt 1 view .LVU413
 391:HigherLevelApps/HigherLevelApps.c/User_Interface.c **** 	AimingSystem.Graph->end_x = (34.3f - ShapeThreeDistance) * CMToPixel - X_offSet;
 1210              		.loc 1 391 30 is_stmt 0 view .LVU414
 1211 045c 628D     		ldrh	r2, [r4, #42]
 1212 045e 68F34F12 		bfi	r2, r8, #5, #11
 1213 0462 6285     		strh	r2, [r4, #42]	@ movhi
 392:HigherLevelApps/HigherLevelApps.c/User_Interface.c **** 	AimingSystem.Graph->end_y = ShapeThreeTop * CMToPixel;
 1214              		.loc 1 392 2 is_stmt 1 view .LVU415
 392:HigherLevelApps/HigherLevelApps.c/User_Interface.c **** 	AimingSystem.Graph->end_y = ShapeThreeTop * CMToPixel;
ARM GAS  C:\Users\purdu\AppData\Local\Temp\ccP1UZx1.s 			page 36


 1215              		.loc 1 392 28 is_stmt 0 view .LVU416
 1216 0464 E26A     		ldr	r2, [r4, #44]
 1217 0466 69F39422 		bfi	r2, r9, #10, #11
 1218 046a E262     		str	r2, [r4, #44]
 393:HigherLevelApps/HigherLevelApps.c/User_Interface.c **** 	AimingSystem.PacketNumber = UI.Global_PacketNumber;
 1219              		.loc 1 393 2 is_stmt 1 view .LVU417
 393:HigherLevelApps/HigherLevelApps.c/User_Interface.c **** 	AimingSystem.PacketNumber = UI.Global_PacketNumber;
 1220              		.loc 1 393 28 is_stmt 0 view .LVU418
 1221 046c E28D     		ldrh	r2, [r4, #46]
 1222 046e 6AF34F12 		bfi	r2, r10, #5, #11
 1223 0472 E285     		strh	r2, [r4, #46]	@ movhi
 394:HigherLevelApps/HigherLevelApps.c/User_Interface.c **** 	UI_Add_Frame_And_Data_Header_OneGraphics(&AimingSystem);
 1224              		.loc 1 394 2 is_stmt 1 view .LVU419
 394:HigherLevelApps/HigherLevelApps.c/User_Interface.c **** 	UI_Add_Frame_And_Data_Header_OneGraphics(&AimingSystem);
 1225              		.loc 1 394 28 is_stmt 0 view .LVU420
 1226 0474 84F82030 		strb	r3, [r4, #32]
 395:HigherLevelApps/HigherLevelApps.c/User_Interface.c **** 	UI_Add_OneGraphics(&AimingSystem);
 1227              		.loc 1 395 2 is_stmt 1 view .LVU421
 1228 0478 2046     		mov	r0, r4
 1229 047a FFF7FEFF 		bl	UI_Add_Frame_And_Data_Header_OneGraphics
 1230              	.LVL63:
 396:HigherLevelApps/HigherLevelApps.c/User_Interface.c ****   UI_Add_Frame_Tail_OneGraphics(&AimingSystem);
 1231              		.loc 1 396 2 view .LVU422
 1232 047e 2046     		mov	r0, r4
 1233 0480 FFF7FEFF 		bl	UI_Add_OneGraphics
 1234              	.LVL64:
 397:HigherLevelApps/HigherLevelApps.c/User_Interface.c **** 	osDelay(100);
 1235              		.loc 1 397 3 view .LVU423
 1236 0484 2046     		mov	r0, r4
 1237 0486 FFF7FEFF 		bl	UI_Add_Frame_Tail_OneGraphics
 1238              	.LVL65:
 398:HigherLevelApps/HigherLevelApps.c/User_Interface.c **** 	HAL_UART_Transmit(UART, AimingSystem.dataBuffer, sizeof(AimingSystem.dataBuffer), 500);
 1239              		.loc 1 398 2 view .LVU424
 1240 048a 6420     		movs	r0, #100
 1241 048c FFF7FEFF 		bl	osDelay
 1242              	.LVL66:
 399:HigherLevelApps/HigherLevelApps.c/User_Interface.c **** 	UI.Global_PacketNumber++;
 1243              		.loc 1 399 2 view .LVU425
 1244 0490 4FF4FA73 		mov	r3, #500
 1245 0494 5A46     		mov	r2, fp
 1246 0496 2146     		mov	r1, r4
 1247 0498 0348     		ldr	r0, .L22
 1248 049a FFF7FEFF 		bl	HAL_UART_Transmit
 1249              	.LVL67:
 400:HigherLevelApps/HigherLevelApps.c/User_Interface.c **** }
 1250              		.loc 1 400 2 view .LVU426
 400:HigherLevelApps/HigherLevelApps.c/User_Interface.c **** }
 1251              		.loc 1 400 4 is_stmt 0 view .LVU427
 1252 049e EB79     		ldrb	r3, [r5, #7]	@ zero_extendqisi2
 400:HigherLevelApps/HigherLevelApps.c/User_Interface.c **** }
 1253              		.loc 1 400 24 view .LVU428
 1254 04a0 0133     		adds	r3, r3, #1
 1255 04a2 EB71     		strb	r3, [r5, #7]
 401:HigherLevelApps/HigherLevelApps.c/User_Interface.c **** 
 1256              		.loc 1 401 1 view .LVU429
 1257 04a4 BDE8F88F 		pop	{r3, r4, r5, r6, r7, r8, r9, r10, fp, pc}
 1258              	.L23:
ARM GAS  C:\Users\purdu\AppData\Local\Temp\ccP1UZx1.s 			page 37


 1259              		.align	2
 1260              	.L22:
 1261 04a8 00000000 		.word	huart6
 1262              		.cfi_endproc
 1263              	.LFE144:
 1265              		.section	.text.UI_Add_Frame_And_Data_Header_Character,"ax",%progbits
 1266              		.align	1
 1267              		.global	UI_Add_Frame_And_Data_Header_Character
 1268              		.syntax unified
 1269              		.thumb
 1270              		.thumb_func
 1272              	UI_Add_Frame_And_Data_Header_Character:
 1273              	.LVL68:
 1274              	.LFB148:
 434:HigherLevelApps/HigherLevelApps.c/User_Interface.c **** void UI_Add_Frame_And_Data_Header_Character(UI_Init_CharacterGraphics *UIt)
 435:HigherLevelApps/HigherLevelApps.c/User_Interface.c **** {
 1275              		.loc 1 435 1 is_stmt 1 view -0
 1276              		.cfi_startproc
 1277              		@ args = 0, pretend = 0, frame = 0
 1278              		@ frame_needed = 0, uses_anonymous_args = 0
 1279              		.loc 1 435 1 is_stmt 0 view .LVU431
 1280 0000 10B5     		push	{r4, lr}
 1281              	.LCFI4:
 1282              		.cfi_def_cfa_offset 8
 1283              		.cfi_offset 4, -8
 1284              		.cfi_offset 14, -4
 1285 0002 0446     		mov	r4, r0
 436:HigherLevelApps/HigherLevelApps.c/User_Interface.c **** 	UIt->dataBuffer[0] = UI_SOF;
 1286              		.loc 1 436 2 is_stmt 1 view .LVU432
 1287              		.loc 1 436 21 is_stmt 0 view .LVU433
 1288 0004 A523     		movs	r3, #165
 1289 0006 0370     		strb	r3, [r0]
 437:HigherLevelApps/HigherLevelApps.c/User_Interface.c **** 	UIt->dataBuffer[1] = (UI_Size_Data_Header + UI_Size_Data_CharacterGraphics) & 0xFF;
 1290              		.loc 1 437 2 is_stmt 1 view .LVU434
 1291              		.loc 1 437 21 is_stmt 0 view .LVU435
 1292 0008 3323     		movs	r3, #51
 1293 000a 4370     		strb	r3, [r0, #1]
 438:HigherLevelApps/HigherLevelApps.c/User_Interface.c **** 	UIt->dataBuffer[2] = (UI_Size_Data_Header + UI_Size_Data_CharacterGraphics) >> 8;
 1294              		.loc 1 438 2 is_stmt 1 view .LVU436
 1295              		.loc 1 438 21 is_stmt 0 view .LVU437
 1296 000c 0023     		movs	r3, #0
 1297 000e 8370     		strb	r3, [r0, #2]
 439:HigherLevelApps/HigherLevelApps.c/User_Interface.c ****   UIt->dataBuffer[3] = UIt->PacketNumber;
 1298              		.loc 1 439 3 is_stmt 1 view .LVU438
 1299              		.loc 1 439 27 is_stmt 0 view .LVU439
 1300 0010 90F83E30 		ldrb	r3, [r0, #62]	@ zero_extendqisi2
 1301              		.loc 1 439 22 view .LVU440
 1302 0014 C370     		strb	r3, [r0, #3]
 440:HigherLevelApps/HigherLevelApps.c/User_Interface.c ****   CRC_Verif_Func.Append_CRC8_Check_Sum(UIt->dataBuffer, UI_Size_Frame_Header);
 1303              		.loc 1 440 3 is_stmt 1 view .LVU441
 1304              		.loc 1 440 17 is_stmt 0 view .LVU442
 1305 0016 0A4B     		ldr	r3, .L26
 1306 0018 9B68     		ldr	r3, [r3, #8]
 1307              		.loc 1 440 3 view .LVU443
 1308 001a 0521     		movs	r1, #5
 1309 001c 9847     		blx	r3
 1310              	.LVL69:
ARM GAS  C:\Users\purdu\AppData\Local\Temp\ccP1UZx1.s 			page 38


 441:HigherLevelApps/HigherLevelApps.c/User_Interface.c **** 	
 442:HigherLevelApps/HigherLevelApps.c/User_Interface.c **** 	UIt->dataBuffer[UI_Size_Frame_Header] = UI_CMD_ID_Robo_Exchange & 0xFF;
 1311              		.loc 1 442 2 is_stmt 1 view .LVU444
 1312              		.loc 1 442 40 is_stmt 0 view .LVU445
 1313 001e 0123     		movs	r3, #1
 1314 0020 6371     		strb	r3, [r4, #5]
 443:HigherLevelApps/HigherLevelApps.c/User_Interface.c **** 	UIt->dataBuffer[UI_Size_Frame_Header+1] = UI_CMD_ID_Robo_Exchange >> 8;
 1315              		.loc 1 443 2 is_stmt 1 view .LVU446
 1316              		.loc 1 443 42 is_stmt 0 view .LVU447
 1317 0022 0322     		movs	r2, #3
 1318 0024 A271     		strb	r2, [r4, #6]
 444:HigherLevelApps/HigherLevelApps.c/User_Interface.c **** 	
 445:HigherLevelApps/HigherLevelApps.c/User_Interface.c **** 	UIt->dataBuffer[UI_Size_Frame_Header + UI_Size_CMD_ID + 0] = UI_Data_ID_DrawChar & 0xFF;
 1319              		.loc 1 445 2 is_stmt 1 view .LVU448
 1320              		.loc 1 445 61 is_stmt 0 view .LVU449
 1321 0026 1022     		movs	r2, #16
 1322 0028 E271     		strb	r2, [r4, #7]
 446:HigherLevelApps/HigherLevelApps.c/User_Interface.c **** 	UIt->dataBuffer[UI_Size_Frame_Header + UI_Size_CMD_ID + 1] = UI_Data_ID_DrawChar >> 8;
 1323              		.loc 1 446 2 is_stmt 1 view .LVU450
 1324              		.loc 1 446 61 is_stmt 0 view .LVU451
 1325 002a 2372     		strb	r3, [r4, #8]
 447:HigherLevelApps/HigherLevelApps.c/User_Interface.c **** 	
 448:HigherLevelApps/HigherLevelApps.c/User_Interface.c **** 	UIt->dataBuffer[UI_Size_Frame_Header + UI_Size_CMD_ID + 2] = UI.Robot_ID & 0xFF;
 1326              		.loc 1 448 2 is_stmt 1 view .LVU452
 1327              		.loc 1 448 65 is_stmt 0 view .LVU453
 1328 002c 054A     		ldr	r2, .L26+4
 1329 002e 1388     		ldrh	r3, [r2]
 1330              		.loc 1 448 61 view .LVU454
 1331 0030 6372     		strb	r3, [r4, #9]
 449:HigherLevelApps/HigherLevelApps.c/User_Interface.c **** 	UIt->dataBuffer[UI_Size_Frame_Header + UI_Size_CMD_ID + 3] = UI.Robot_ID >> 8;
 1332              		.loc 1 449 2 is_stmt 1 view .LVU455
 1333              		.loc 1 449 61 is_stmt 0 view .LVU456
 1334 0032 1B0A     		lsrs	r3, r3, #8
 1335 0034 A372     		strb	r3, [r4, #10]
 450:HigherLevelApps/HigherLevelApps.c/User_Interface.c **** 	
 451:HigherLevelApps/HigherLevelApps.c/User_Interface.c **** 	UIt->dataBuffer[UI_Size_Frame_Header + UI_Size_CMD_ID + 4] = UI.Pilot_ID & 0xFF;
 1336              		.loc 1 451 2 is_stmt 1 view .LVU457
 1337              		.loc 1 451 65 is_stmt 0 view .LVU458
 1338 0036 5388     		ldrh	r3, [r2, #2]
 1339              		.loc 1 451 61 view .LVU459
 1340 0038 E372     		strb	r3, [r4, #11]
 452:HigherLevelApps/HigherLevelApps.c/User_Interface.c **** 	UIt->dataBuffer[UI_Size_Frame_Header + UI_Size_CMD_ID + 5] = UI.Pilot_ID >> 8;
 1341              		.loc 1 452 2 is_stmt 1 view .LVU460
 1342              		.loc 1 452 61 is_stmt 0 view .LVU461
 1343 003a 1B0A     		lsrs	r3, r3, #8
 1344 003c 2373     		strb	r3, [r4, #12]
 453:HigherLevelApps/HigherLevelApps.c/User_Interface.c **** }
 1345              		.loc 1 453 1 view .LVU462
 1346 003e 10BD     		pop	{r4, pc}
 1347              	.LVL70:
 1348              	.L27:
 1349              		.loc 1 453 1 view .LVU463
 1350              		.align	2
 1351              	.L26:
 1352 0040 00000000 		.word	CRC_Verif_Func
 1353 0044 00000000 		.word	UI
 1354              		.cfi_endproc
ARM GAS  C:\Users\purdu\AppData\Local\Temp\ccP1UZx1.s 			page 39


 1355              	.LFE148:
 1357              		.section	.text.UI_Add_Character,"ax",%progbits
 1358              		.align	1
 1359              		.global	UI_Add_Character
 1360              		.syntax unified
 1361              		.thumb
 1362              		.thumb_func
 1364              	UI_Add_Character:
 1365              	.LVL71:
 1366              	.LFB149:
 454:HigherLevelApps/HigherLevelApps.c/User_Interface.c **** 
 455:HigherLevelApps/HigherLevelApps.c/User_Interface.c **** void UI_Add_Character(UI_Init_CharacterGraphics *UIt, uint16_t TextLength)
 456:HigherLevelApps/HigherLevelApps.c/User_Interface.c **** {
 1367              		.loc 1 456 1 is_stmt 1 view -0
 1368              		.cfi_startproc
 1369              		@ args = 0, pretend = 0, frame = 0
 1370              		@ frame_needed = 0, uses_anonymous_args = 0
 1371              		.loc 1 456 1 is_stmt 0 view .LVU465
 1372 0000 08B5     		push	{r3, lr}
 1373              	.LCFI5:
 1374              		.cfi_def_cfa_offset 8
 1375              		.cfi_offset 3, -8
 1376              		.cfi_offset 14, -4
 1377 0002 0A46     		mov	r2, r1
 457:HigherLevelApps/HigherLevelApps.c/User_Interface.c **** 	uint8_t* byteArray = (uint8_t*)&(UIt->Graph);
 1378              		.loc 1 457 2 is_stmt 1 view .LVU466
 1379              	.LVL72:
 458:HigherLevelApps/HigherLevelApps.c/User_Interface.c **** 	//uint8_t* TextbyteArray = (uint8_t*)&(UIt->Text);
 459:HigherLevelApps/HigherLevelApps.c/User_Interface.c ****   memcpy(&UIt->dataBuffer[UI_Size_Frame_Header + UI_Size_CMD_ID + UI_Size_Data_Header], byteArray, 
 1380              		.loc 1 459 3 view .LVU467
 1381 0004 D0F83FC0 		ldr	ip, [r0, #63]	@ unaligned
 1382 0008 D0F84310 		ldr	r1, [r0, #67]	@ unaligned
 1383              	.LVL73:
 1384              		.loc 1 459 3 is_stmt 0 view .LVU468
 1385 000c D0F84730 		ldr	r3, [r0, #71]	@ unaligned
 1386 0010 C0F80DC0 		str	ip, [r0, #13]	@ unaligned
 1387 0014 C0F81110 		str	r1, [r0, #17]	@ unaligned
 1388 0018 C0F81530 		str	r3, [r0, #21]	@ unaligned
 1389 001c B0F84B10 		ldrh	r1, [r0, #75]	@ unaligned
 1390 0020 90F84D30 		ldrb	r3, [r0, #77]	@ zero_extendqisi2
 1391 0024 A0F81910 		strh	r1, [r0, #25]	@ unaligned
 1392 0028 C376     		strb	r3, [r0, #27]
 460:HigherLevelApps/HigherLevelApps.c/User_Interface.c **** 	memcpy(&UIt->dataBuffer[UI_Size_Frame_Header + UI_Size_CMD_ID + UI_Size_Data_Header + 15], UIt->Te
 1393              		.loc 1 460 2 is_stmt 1 view .LVU469
 1394 002a 00F14E01 		add	r1, r0, #78
 1395 002e 1C30     		adds	r0, r0, #28
 1396              	.LVL74:
 1397              		.loc 1 460 2 is_stmt 0 view .LVU470
 1398 0030 FFF7FEFF 		bl	memcpy
 1399              	.LVL75:
 461:HigherLevelApps/HigherLevelApps.c/User_Interface.c **** }
 1400              		.loc 1 461 1 view .LVU471
 1401 0034 08BD     		pop	{r3, pc}
 1402              		.cfi_endproc
 1403              	.LFE149:
 1405              		.section	.text.UI_Add_Frame_Tail_Character,"ax",%progbits
 1406              		.align	1
ARM GAS  C:\Users\purdu\AppData\Local\Temp\ccP1UZx1.s 			page 40


 1407              		.global	UI_Add_Frame_Tail_Character
 1408              		.syntax unified
 1409              		.thumb
 1410              		.thumb_func
 1412              	UI_Add_Frame_Tail_Character:
 1413              	.LVL76:
 1414              	.LFB150:
 462:HigherLevelApps/HigherLevelApps.c/User_Interface.c **** 
 463:HigherLevelApps/HigherLevelApps.c/User_Interface.c **** void UI_Add_Frame_Tail_Character(UI_Init_CharacterGraphics *UIt)
 464:HigherLevelApps/HigherLevelApps.c/User_Interface.c **** {
 1415              		.loc 1 464 1 is_stmt 1 view -0
 1416              		.cfi_startproc
 1417              		@ args = 0, pretend = 0, frame = 0
 1418              		@ frame_needed = 0, uses_anonymous_args = 0
 1419              		.loc 1 464 1 is_stmt 0 view .LVU473
 1420 0000 08B5     		push	{r3, lr}
 1421              	.LCFI6:
 1422              		.cfi_def_cfa_offset 8
 1423              		.cfi_offset 3, -8
 1424              		.cfi_offset 14, -4
 465:HigherLevelApps/HigherLevelApps.c/User_Interface.c **** 	CRC_Verif_Func.Append_CRC16_Check_Sum(UIt->dataBuffer, UI_Size_Frame_Header + UI_Size_CMD_ID + UI_
 1425              		.loc 1 465 2 is_stmt 1 view .LVU474
 1426              		.loc 1 465 16 is_stmt 0 view .LVU475
 1427 0002 024B     		ldr	r3, .L32
 1428 0004 5B69     		ldr	r3, [r3, #20]
 1429              		.loc 1 465 2 view .LVU476
 1430 0006 3C21     		movs	r1, #60
 1431 0008 9847     		blx	r3
 1432              	.LVL77:
 466:HigherLevelApps/HigherLevelApps.c/User_Interface.c **** }
 1433              		.loc 1 466 1 view .LVU477
 1434 000a 08BD     		pop	{r3, pc}
 1435              	.L33:
 1436              		.align	2
 1437              	.L32:
 1438 000c 00000000 		.word	CRC_Verif_Func
 1439              		.cfi_endproc
 1440              	.LFE150:
 1442              		.section	.text.UI_SuperCapText_Update,"ax",%progbits
 1443              		.align	1
 1444              		.global	UI_SuperCapText_Update
 1445              		.syntax unified
 1446              		.thumb
 1447              		.thumb_func
 1449              	UI_SuperCapText_Update:
 1450              	.LFB139:
  32:HigherLevelApps/HigherLevelApps.c/User_Interface.c **** 	//memcpy(TextSystem.Text, Text, 30);
 1451              		.loc 1 32 1 is_stmt 1 view -0
 1452              		.cfi_startproc
 1453              		@ args = 0, pretend = 0, frame = 0
 1454              		@ frame_needed = 0, uses_anonymous_args = 0
 1455 0000 38B5     		push	{r3, r4, r5, lr}
 1456              	.LCFI7:
 1457              		.cfi_def_cfa_offset 16
 1458              		.cfi_offset 3, -16
 1459              		.cfi_offset 4, -12
 1460              		.cfi_offset 5, -8
ARM GAS  C:\Users\purdu\AppData\Local\Temp\ccP1UZx1.s 			page 41


 1461              		.cfi_offset 14, -4
  34:HigherLevelApps/HigherLevelApps.c/User_Interface.c **** 	TextSystem.Graph->graphic_name[0] = 'C';
 1462              		.loc 1 34 2 view .LVU479
  34:HigherLevelApps/HigherLevelApps.c/User_Interface.c **** 	TextSystem.Graph->graphic_name[0] = 'C';
 1463              		.loc 1 34 33 is_stmt 0 view .LVU480
 1464 0002 3A4C     		ldr	r4, .L36
 1465 0004 94F84230 		ldrb	r3, [r4, #66]	@ zero_extendqisi2
 1466 0008 0222     		movs	r2, #2
 1467 000a 62F30203 		bfi	r3, r2, #0, #3
 1468 000e 84F84230 		strb	r3, [r4, #66]
  35:HigherLevelApps/HigherLevelApps.c/User_Interface.c **** 	TextSystem.Graph->graphic_name[1] = 'a';
 1469              		.loc 1 35 2 is_stmt 1 view .LVU481
  35:HigherLevelApps/HigherLevelApps.c/User_Interface.c **** 	TextSystem.Graph->graphic_name[1] = 'a';
 1470              		.loc 1 35 36 is_stmt 0 view .LVU482
 1471 0012 4323     		movs	r3, #67
 1472 0014 84F83F30 		strb	r3, [r4, #63]
  36:HigherLevelApps/HigherLevelApps.c/User_Interface.c **** 	TextSystem.Graph->graphic_name[2] = 'p';
 1473              		.loc 1 36 2 is_stmt 1 view .LVU483
  36:HigherLevelApps/HigherLevelApps.c/User_Interface.c **** 	TextSystem.Graph->graphic_name[2] = 'p';
 1474              		.loc 1 36 36 is_stmt 0 view .LVU484
 1475 0018 6123     		movs	r3, #97
 1476 001a 84F84030 		strb	r3, [r4, #64]
  37:HigherLevelApps/HigherLevelApps.c/User_Interface.c **** 	TextSystem.Graph->end_angle = TextSystem.TextNumber;
 1477              		.loc 1 37 2 is_stmt 1 view .LVU485
  37:HigherLevelApps/HigherLevelApps.c/User_Interface.c **** 	TextSystem.Graph->end_angle = TextSystem.TextNumber;
 1478              		.loc 1 37 36 is_stmt 0 view .LVU486
 1479 001e 7023     		movs	r3, #112
 1480 0020 84F84130 		strb	r3, [r4, #65]
  38:HigherLevelApps/HigherLevelApps.c/User_Interface.c **** 	//memcpy(TextSystem.Text, "Cap", 3);
 1481              		.loc 1 38 2 is_stmt 1 view .LVU487
  38:HigherLevelApps/HigherLevelApps.c/User_Interface.c **** 	//memcpy(TextSystem.Text, "Cap", 3);
 1482              		.loc 1 38 42 is_stmt 0 view .LVU488
 1483 0024 94F86C20 		ldrb	r2, [r4, #108]	@ zero_extendqisi2
  38:HigherLevelApps/HigherLevelApps.c/User_Interface.c **** 	//memcpy(TextSystem.Text, "Cap", 3);
 1484              		.loc 1 38 30 view .LVU489
 1485 0028 B4F84430 		ldrh	r3, [r4, #68]
 1486 002c 62F3CF13 		bfi	r3, r2, #7, #9
 1487 0030 A4F84430 		strh	r3, [r4, #68]	@ movhi
  40:HigherLevelApps/HigherLevelApps.c/User_Interface.c **** 	TextSystem.Graph->start_y = UI.Text_Location.Text_1_Y * CMToPixel;
 1488              		.loc 1 40 2 is_stmt 1 view .LVU490
  40:HigherLevelApps/HigherLevelApps.c/User_Interface.c **** 	TextSystem.Graph->start_y = UI.Text_Location.Text_1_Y * CMToPixel;
 1489              		.loc 1 40 46 is_stmt 0 view .LVU491
 1490 0034 2E4D     		ldr	r5, .L36+4
 1491 0036 D5ED027A 		vldr.32	s15, [r5, #8]
  40:HigherLevelApps/HigherLevelApps.c/User_Interface.c **** 	TextSystem.Graph->start_y = UI.Text_Location.Text_1_Y * CMToPixel;
 1492              		.loc 1 40 56 view .LVU492
 1493 003a 9FED2E7A 		vldr.32	s14, .L36+8
 1494 003e 67EE877A 		vmul.f32	s15, s15, s14
  40:HigherLevelApps/HigherLevelApps.c/User_Interface.c **** 	TextSystem.Graph->start_y = UI.Text_Location.Text_1_Y * CMToPixel;
 1495              		.loc 1 40 28 view .LVU493
 1496 0042 FCEEE77A 		vcvt.u32.f32	s15, s15
 1497 0046 17EE903A 		vmov	r3, s15	@ int
 1498 004a 03F03F01 		and	r1, r3, #63
 1499 004e 94F84720 		ldrb	r2, [r4, #71]	@ zero_extendqisi2
 1500 0052 02F00302 		and	r2, r2, #3
 1501 0056 42EA8102 		orr	r2, r2, r1, lsl #2
 1502 005a 84F84720 		strb	r2, [r4, #71]
ARM GAS  C:\Users\purdu\AppData\Local\Temp\ccP1UZx1.s 			page 42


 1503 005e C3F38413 		ubfx	r3, r3, #6, #5
 1504 0062 94F84820 		ldrb	r2, [r4, #72]	@ zero_extendqisi2
 1505 0066 22F01F02 		bic	r2, r2, #31
 1506 006a 1343     		orrs	r3, r3, r2
 1507 006c 84F84830 		strb	r3, [r4, #72]
  41:HigherLevelApps/HigherLevelApps.c/User_Interface.c **** 	TextSystem.PacketNumber = UI.Global_PacketNumber;
 1508              		.loc 1 41 2 is_stmt 1 view .LVU494
  41:HigherLevelApps/HigherLevelApps.c/User_Interface.c **** 	TextSystem.PacketNumber = UI.Global_PacketNumber;
 1509              		.loc 1 41 46 is_stmt 0 view .LVU495
 1510 0070 D5ED037A 		vldr.32	s15, [r5, #12]
  41:HigherLevelApps/HigherLevelApps.c/User_Interface.c **** 	TextSystem.PacketNumber = UI.Global_PacketNumber;
 1511              		.loc 1 41 56 view .LVU496
 1512 0074 67EE877A 		vmul.f32	s15, s15, s14
  41:HigherLevelApps/HigherLevelApps.c/User_Interface.c **** 	TextSystem.PacketNumber = UI.Global_PacketNumber;
 1513              		.loc 1 41 28 view .LVU497
 1514 0078 FCEEE77A 		vcvt.u32.f32	s15, s15
 1515 007c B4F84830 		ldrh	r3, [r4, #72]
 1516 0080 17EE902A 		vmov	r2, s15	@ int
 1517 0084 62F34F13 		bfi	r3, r2, #5, #11
 1518 0088 A4F84830 		strh	r3, [r4, #72]	@ movhi
  42:HigherLevelApps/HigherLevelApps.c/User_Interface.c **** 	UI_Add_Frame_And_Data_Header_Character(&TextSystem);
 1519              		.loc 1 42 2 is_stmt 1 view .LVU498
  42:HigherLevelApps/HigherLevelApps.c/User_Interface.c **** 	UI_Add_Frame_And_Data_Header_Character(&TextSystem);
 1520              		.loc 1 42 30 is_stmt 0 view .LVU499
 1521 008c EB79     		ldrb	r3, [r5, #7]	@ zero_extendqisi2
  42:HigherLevelApps/HigherLevelApps.c/User_Interface.c **** 	UI_Add_Frame_And_Data_Header_Character(&TextSystem);
 1522              		.loc 1 42 26 view .LVU500
 1523 008e 84F83E30 		strb	r3, [r4, #62]
  43:HigherLevelApps/HigherLevelApps.c/User_Interface.c **** 	UI_Add_Character(&TextSystem, 30);
 1524              		.loc 1 43 2 is_stmt 1 view .LVU501
 1525 0092 2046     		mov	r0, r4
 1526 0094 FFF7FEFF 		bl	UI_Add_Frame_And_Data_Header_Character
 1527              	.LVL78:
  44:HigherLevelApps/HigherLevelApps.c/User_Interface.c ****   UI_Add_Frame_Tail_Character(&TextSystem);
 1528              		.loc 1 44 2 view .LVU502
 1529 0098 1E21     		movs	r1, #30
 1530 009a 2046     		mov	r0, r4
 1531 009c FFF7FEFF 		bl	UI_Add_Character
 1532              	.LVL79:
  45:HigherLevelApps/HigherLevelApps.c/User_Interface.c **** 	osDelay(200);
 1533              		.loc 1 45 3 view .LVU503
 1534 00a0 2046     		mov	r0, r4
 1535 00a2 FFF7FEFF 		bl	UI_Add_Frame_Tail_Character
 1536              	.LVL80:
  46:HigherLevelApps/HigherLevelApps.c/User_Interface.c **** 	HAL_UART_Transmit(UART, TextSystem.dataBuffer, sizeof(TextSystem.dataBuffer), 500);
 1537              		.loc 1 46 2 view .LVU504
 1538 00a6 C820     		movs	r0, #200
 1539 00a8 FFF7FEFF 		bl	osDelay
 1540              	.LVL81:
  47:HigherLevelApps/HigherLevelApps.c/User_Interface.c **** 	UI.Global_PacketNumber++;
 1541              		.loc 1 47 2 view .LVU505
 1542 00ac 4FF4FA73 		mov	r3, #500
 1543 00b0 3C22     		movs	r2, #60
 1544 00b2 2146     		mov	r1, r4
 1545 00b4 1048     		ldr	r0, .L36+12
 1546 00b6 FFF7FEFF 		bl	HAL_UART_Transmit
 1547              	.LVL82:
ARM GAS  C:\Users\purdu\AppData\Local\Temp\ccP1UZx1.s 			page 43


  48:HigherLevelApps/HigherLevelApps.c/User_Interface.c **** 	memcpy(TextSystem.Text, TextInit, 30);
 1548              		.loc 1 48 2 view .LVU506
  48:HigherLevelApps/HigherLevelApps.c/User_Interface.c **** 	memcpy(TextSystem.Text, TextInit, 30);
 1549              		.loc 1 48 4 is_stmt 0 view .LVU507
 1550 00ba EB79     		ldrb	r3, [r5, #7]	@ zero_extendqisi2
  48:HigherLevelApps/HigherLevelApps.c/User_Interface.c **** 	memcpy(TextSystem.Text, TextInit, 30);
 1551              		.loc 1 48 24 view .LVU508
 1552 00bc 0133     		adds	r3, r3, #1
 1553 00be EB71     		strb	r3, [r5, #7]
  49:HigherLevelApps/HigherLevelApps.c/User_Interface.c **** }
 1554              		.loc 1 49 2 is_stmt 1 view .LVU509
 1555 00c0 0E4D     		ldr	r5, .L36+16
 1556 00c2 0FCD     		ldmia	r5!, {r0, r1, r2, r3}
 1557 00c4 C4F84E00 		str	r0, [r4, #78]	@ unaligned
 1558 00c8 C4F85210 		str	r1, [r4, #82]	@ unaligned
 1559 00cc C4F85620 		str	r2, [r4, #86]	@ unaligned
 1560 00d0 C4F85A30 		str	r3, [r4, #90]	@ unaligned
 1561 00d4 07CD     		ldmia	r5!, {r0, r1, r2}
 1562 00d6 C4F85E00 		str	r0, [r4, #94]	@ unaligned
 1563 00da C4F86210 		str	r1, [r4, #98]	@ unaligned
 1564 00de C4F86620 		str	r2, [r4, #102]	@ unaligned
 1565 00e2 2B88     		ldrh	r3, [r5]	@ unaligned
 1566 00e4 A4F86A30 		strh	r3, [r4, #106]	@ unaligned
  50:HigherLevelApps/HigherLevelApps.c/User_Interface.c **** 
 1567              		.loc 1 50 1 is_stmt 0 view .LVU510
 1568 00e8 38BD     		pop	{r3, r4, r5, pc}
 1569              	.L37:
 1570 00ea 00BF     		.align	2
 1571              	.L36:
 1572 00ec 00000000 		.word	TextSystem
 1573 00f0 00000000 		.word	UI
 1574 00f4 00006042 		.word	1113587712
 1575 00f8 00000000 		.word	huart6
 1576 00fc 00000000 		.word	TextInit
 1577              		.cfi_endproc
 1578              	.LFE139:
 1580              		.section	.text.UI_StateText_Update,"ax",%progbits
 1581              		.align	1
 1582              		.global	UI_StateText_Update
 1583              		.syntax unified
 1584              		.thumb
 1585              		.thumb_func
 1587              	UI_StateText_Update:
 1588              	.LFB140:
  53:HigherLevelApps/HigherLevelApps.c/User_Interface.c **** 	TextSystem.Graph->operate_type = UI_Graph_Change;
 1589              		.loc 1 53 1 is_stmt 1 view -0
 1590              		.cfi_startproc
 1591              		@ args = 0, pretend = 0, frame = 0
 1592              		@ frame_needed = 0, uses_anonymous_args = 0
 1593 0000 38B5     		push	{r3, r4, r5, lr}
 1594              	.LCFI8:
 1595              		.cfi_def_cfa_offset 16
 1596              		.cfi_offset 3, -16
 1597              		.cfi_offset 4, -12
 1598              		.cfi_offset 5, -8
 1599              		.cfi_offset 14, -4
  54:HigherLevelApps/HigherLevelApps.c/User_Interface.c **** 	TextSystem.Graph->graphic_name[0] = 'S';
ARM GAS  C:\Users\purdu\AppData\Local\Temp\ccP1UZx1.s 			page 44


 1600              		.loc 1 54 2 view .LVU512
  54:HigherLevelApps/HigherLevelApps.c/User_Interface.c **** 	TextSystem.Graph->graphic_name[0] = 'S';
 1601              		.loc 1 54 33 is_stmt 0 view .LVU513
 1602 0002 3A4C     		ldr	r4, .L40
 1603 0004 94F84230 		ldrb	r3, [r4, #66]	@ zero_extendqisi2
 1604 0008 0222     		movs	r2, #2
 1605 000a 62F30203 		bfi	r3, r2, #0, #3
 1606 000e 84F84230 		strb	r3, [r4, #66]
  55:HigherLevelApps/HigherLevelApps.c/User_Interface.c **** 	TextSystem.Graph->graphic_name[1] = 't';
 1607              		.loc 1 55 2 is_stmt 1 view .LVU514
  55:HigherLevelApps/HigherLevelApps.c/User_Interface.c **** 	TextSystem.Graph->graphic_name[1] = 't';
 1608              		.loc 1 55 36 is_stmt 0 view .LVU515
 1609 0012 5323     		movs	r3, #83
 1610 0014 84F83F30 		strb	r3, [r4, #63]
  56:HigherLevelApps/HigherLevelApps.c/User_Interface.c **** 	TextSystem.Graph->graphic_name[2] = 'a';
 1611              		.loc 1 56 2 is_stmt 1 view .LVU516
  56:HigherLevelApps/HigherLevelApps.c/User_Interface.c **** 	TextSystem.Graph->graphic_name[2] = 'a';
 1612              		.loc 1 56 36 is_stmt 0 view .LVU517
 1613 0018 7423     		movs	r3, #116
 1614 001a 84F84030 		strb	r3, [r4, #64]
  57:HigherLevelApps/HigherLevelApps.c/User_Interface.c **** 	TextSystem.Graph->end_angle = TextSystem.TextNumber;
 1615              		.loc 1 57 2 is_stmt 1 view .LVU518
  57:HigherLevelApps/HigherLevelApps.c/User_Interface.c **** 	TextSystem.Graph->end_angle = TextSystem.TextNumber;
 1616              		.loc 1 57 36 is_stmt 0 view .LVU519
 1617 001e 6123     		movs	r3, #97
 1618 0020 84F84130 		strb	r3, [r4, #65]
  58:HigherLevelApps/HigherLevelApps.c/User_Interface.c **** 	//memcpy(TextSystem.Text, "Cap", 3);
 1619              		.loc 1 58 2 is_stmt 1 view .LVU520
  58:HigherLevelApps/HigherLevelApps.c/User_Interface.c **** 	//memcpy(TextSystem.Text, "Cap", 3);
 1620              		.loc 1 58 42 is_stmt 0 view .LVU521
 1621 0024 94F86C20 		ldrb	r2, [r4, #108]	@ zero_extendqisi2
  58:HigherLevelApps/HigherLevelApps.c/User_Interface.c **** 	//memcpy(TextSystem.Text, "Cap", 3);
 1622              		.loc 1 58 30 view .LVU522
 1623 0028 B4F84430 		ldrh	r3, [r4, #68]
 1624 002c 62F3CF13 		bfi	r3, r2, #7, #9
 1625 0030 A4F84430 		strh	r3, [r4, #68]	@ movhi
  60:HigherLevelApps/HigherLevelApps.c/User_Interface.c **** 	TextSystem.Graph->start_y = UI.Text_Location.Text_3_Y * CMToPixel;
 1626              		.loc 1 60 2 is_stmt 1 view .LVU523
  60:HigherLevelApps/HigherLevelApps.c/User_Interface.c **** 	TextSystem.Graph->start_y = UI.Text_Location.Text_3_Y * CMToPixel;
 1627              		.loc 1 60 46 is_stmt 0 view .LVU524
 1628 0034 2E4D     		ldr	r5, .L40+4
 1629 0036 D5ED067A 		vldr.32	s15, [r5, #24]
  60:HigherLevelApps/HigherLevelApps.c/User_Interface.c **** 	TextSystem.Graph->start_y = UI.Text_Location.Text_3_Y * CMToPixel;
 1630              		.loc 1 60 56 view .LVU525
 1631 003a 9FED2E7A 		vldr.32	s14, .L40+8
 1632 003e 67EE877A 		vmul.f32	s15, s15, s14
  60:HigherLevelApps/HigherLevelApps.c/User_Interface.c **** 	TextSystem.Graph->start_y = UI.Text_Location.Text_3_Y * CMToPixel;
 1633              		.loc 1 60 28 view .LVU526
 1634 0042 FCEEE77A 		vcvt.u32.f32	s15, s15
 1635 0046 17EE903A 		vmov	r3, s15	@ int
 1636 004a 03F03F01 		and	r1, r3, #63
 1637 004e 94F84720 		ldrb	r2, [r4, #71]	@ zero_extendqisi2
 1638 0052 02F00302 		and	r2, r2, #3
 1639 0056 42EA8102 		orr	r2, r2, r1, lsl #2
 1640 005a 84F84720 		strb	r2, [r4, #71]
 1641 005e C3F38413 		ubfx	r3, r3, #6, #5
 1642 0062 94F84820 		ldrb	r2, [r4, #72]	@ zero_extendqisi2
ARM GAS  C:\Users\purdu\AppData\Local\Temp\ccP1UZx1.s 			page 45


 1643 0066 22F01F02 		bic	r2, r2, #31
 1644 006a 1343     		orrs	r3, r3, r2
 1645 006c 84F84830 		strb	r3, [r4, #72]
  61:HigherLevelApps/HigherLevelApps.c/User_Interface.c **** 	TextSystem.PacketNumber = UI.Global_PacketNumber;
 1646              		.loc 1 61 2 is_stmt 1 view .LVU527
  61:HigherLevelApps/HigherLevelApps.c/User_Interface.c **** 	TextSystem.PacketNumber = UI.Global_PacketNumber;
 1647              		.loc 1 61 46 is_stmt 0 view .LVU528
 1648 0070 D5ED077A 		vldr.32	s15, [r5, #28]
  61:HigherLevelApps/HigherLevelApps.c/User_Interface.c **** 	TextSystem.PacketNumber = UI.Global_PacketNumber;
 1649              		.loc 1 61 56 view .LVU529
 1650 0074 67EE877A 		vmul.f32	s15, s15, s14
  61:HigherLevelApps/HigherLevelApps.c/User_Interface.c **** 	TextSystem.PacketNumber = UI.Global_PacketNumber;
 1651              		.loc 1 61 28 view .LVU530
 1652 0078 FCEEE77A 		vcvt.u32.f32	s15, s15
 1653 007c B4F84830 		ldrh	r3, [r4, #72]
 1654 0080 17EE902A 		vmov	r2, s15	@ int
 1655 0084 62F34F13 		bfi	r3, r2, #5, #11
 1656 0088 A4F84830 		strh	r3, [r4, #72]	@ movhi
  62:HigherLevelApps/HigherLevelApps.c/User_Interface.c **** 	UI_Add_Frame_And_Data_Header_Character(&TextSystem);
 1657              		.loc 1 62 2 is_stmt 1 view .LVU531
  62:HigherLevelApps/HigherLevelApps.c/User_Interface.c **** 	UI_Add_Frame_And_Data_Header_Character(&TextSystem);
 1658              		.loc 1 62 30 is_stmt 0 view .LVU532
 1659 008c EB79     		ldrb	r3, [r5, #7]	@ zero_extendqisi2
  62:HigherLevelApps/HigherLevelApps.c/User_Interface.c **** 	UI_Add_Frame_And_Data_Header_Character(&TextSystem);
 1660              		.loc 1 62 26 view .LVU533
 1661 008e 84F83E30 		strb	r3, [r4, #62]
  63:HigherLevelApps/HigherLevelApps.c/User_Interface.c **** 	UI_Add_Character(&TextSystem, 30);
 1662              		.loc 1 63 2 is_stmt 1 view .LVU534
 1663 0092 2046     		mov	r0, r4
 1664 0094 FFF7FEFF 		bl	UI_Add_Frame_And_Data_Header_Character
 1665              	.LVL83:
  64:HigherLevelApps/HigherLevelApps.c/User_Interface.c ****   UI_Add_Frame_Tail_Character(&TextSystem);
 1666              		.loc 1 64 2 view .LVU535
 1667 0098 1E21     		movs	r1, #30
 1668 009a 2046     		mov	r0, r4
 1669 009c FFF7FEFF 		bl	UI_Add_Character
 1670              	.LVL84:
  65:HigherLevelApps/HigherLevelApps.c/User_Interface.c **** 	osDelay(200);
 1671              		.loc 1 65 3 view .LVU536
 1672 00a0 2046     		mov	r0, r4
 1673 00a2 FFF7FEFF 		bl	UI_Add_Frame_Tail_Character
 1674              	.LVL85:
  66:HigherLevelApps/HigherLevelApps.c/User_Interface.c **** 	HAL_UART_Transmit(UART, TextSystem.dataBuffer, sizeof(TextSystem.dataBuffer), 500);
 1675              		.loc 1 66 2 view .LVU537
 1676 00a6 C820     		movs	r0, #200
 1677 00a8 FFF7FEFF 		bl	osDelay
 1678              	.LVL86:
  67:HigherLevelApps/HigherLevelApps.c/User_Interface.c **** 	UI.Global_PacketNumber++;
 1679              		.loc 1 67 2 view .LVU538
 1680 00ac 4FF4FA73 		mov	r3, #500
 1681 00b0 3C22     		movs	r2, #60
 1682 00b2 2146     		mov	r1, r4
 1683 00b4 1048     		ldr	r0, .L40+12
 1684 00b6 FFF7FEFF 		bl	HAL_UART_Transmit
 1685              	.LVL87:
  68:HigherLevelApps/HigherLevelApps.c/User_Interface.c **** 	memcpy(TextSystem.Text, TextInit, 30);
 1686              		.loc 1 68 2 view .LVU539
ARM GAS  C:\Users\purdu\AppData\Local\Temp\ccP1UZx1.s 			page 46


  68:HigherLevelApps/HigherLevelApps.c/User_Interface.c **** 	memcpy(TextSystem.Text, TextInit, 30);
 1687              		.loc 1 68 4 is_stmt 0 view .LVU540
 1688 00ba EB79     		ldrb	r3, [r5, #7]	@ zero_extendqisi2
  68:HigherLevelApps/HigherLevelApps.c/User_Interface.c **** 	memcpy(TextSystem.Text, TextInit, 30);
 1689              		.loc 1 68 24 view .LVU541
 1690 00bc 0133     		adds	r3, r3, #1
 1691 00be EB71     		strb	r3, [r5, #7]
  69:HigherLevelApps/HigherLevelApps.c/User_Interface.c **** }
 1692              		.loc 1 69 2 is_stmt 1 view .LVU542
 1693 00c0 0E4D     		ldr	r5, .L40+16
 1694 00c2 0FCD     		ldmia	r5!, {r0, r1, r2, r3}
 1695 00c4 C4F84E00 		str	r0, [r4, #78]	@ unaligned
 1696 00c8 C4F85210 		str	r1, [r4, #82]	@ unaligned
 1697 00cc C4F85620 		str	r2, [r4, #86]	@ unaligned
 1698 00d0 C4F85A30 		str	r3, [r4, #90]	@ unaligned
 1699 00d4 07CD     		ldmia	r5!, {r0, r1, r2}
 1700 00d6 C4F85E00 		str	r0, [r4, #94]	@ unaligned
 1701 00da C4F86210 		str	r1, [r4, #98]	@ unaligned
 1702 00de C4F86620 		str	r2, [r4, #102]	@ unaligned
 1703 00e2 2B88     		ldrh	r3, [r5]	@ unaligned
 1704 00e4 A4F86A30 		strh	r3, [r4, #106]	@ unaligned
  70:HigherLevelApps/HigherLevelApps.c/User_Interface.c **** 
 1705              		.loc 1 70 1 is_stmt 0 view .LVU543
 1706 00e8 38BD     		pop	{r3, r4, r5, pc}
 1707              	.L41:
 1708 00ea 00BF     		.align	2
 1709              	.L40:
 1710 00ec 00000000 		.word	TextSystem
 1711 00f0 00000000 		.word	UI
 1712 00f4 00006042 		.word	1113587712
 1713 00f8 00000000 		.word	huart6
 1714 00fc 00000000 		.word	TextInit
 1715              		.cfi_endproc
 1716              	.LFE140:
 1718              		.section	.text.UI_AutoText_Update,"ax",%progbits
 1719              		.align	1
 1720              		.global	UI_AutoText_Update
 1721              		.syntax unified
 1722              		.thumb
 1723              		.thumb_func
 1725              	UI_AutoText_Update:
 1726              	.LFB141:
  73:HigherLevelApps/HigherLevelApps.c/User_Interface.c **** 	//memcpy(TextSystem.Text, Text, 30);
 1727              		.loc 1 73 1 is_stmt 1 view -0
 1728              		.cfi_startproc
 1729              		@ args = 0, pretend = 0, frame = 0
 1730              		@ frame_needed = 0, uses_anonymous_args = 0
 1731 0000 38B5     		push	{r3, r4, r5, lr}
 1732              	.LCFI9:
 1733              		.cfi_def_cfa_offset 16
 1734              		.cfi_offset 3, -16
 1735              		.cfi_offset 4, -12
 1736              		.cfi_offset 5, -8
 1737              		.cfi_offset 14, -4
  75:HigherLevelApps/HigherLevelApps.c/User_Interface.c **** 	TextSystem.Graph->graphic_name[0] = 'A';
 1738              		.loc 1 75 2 view .LVU545
  75:HigherLevelApps/HigherLevelApps.c/User_Interface.c **** 	TextSystem.Graph->graphic_name[0] = 'A';
ARM GAS  C:\Users\purdu\AppData\Local\Temp\ccP1UZx1.s 			page 47


 1739              		.loc 1 75 33 is_stmt 0 view .LVU546
 1740 0002 3A4C     		ldr	r4, .L44
 1741 0004 94F84230 		ldrb	r3, [r4, #66]	@ zero_extendqisi2
 1742 0008 0222     		movs	r2, #2
 1743 000a 62F30203 		bfi	r3, r2, #0, #3
 1744 000e 84F84230 		strb	r3, [r4, #66]
  76:HigherLevelApps/HigherLevelApps.c/User_Interface.c **** 	TextSystem.Graph->graphic_name[1] = 'u';
 1745              		.loc 1 76 2 is_stmt 1 view .LVU547
  76:HigherLevelApps/HigherLevelApps.c/User_Interface.c **** 	TextSystem.Graph->graphic_name[1] = 'u';
 1746              		.loc 1 76 36 is_stmt 0 view .LVU548
 1747 0012 4123     		movs	r3, #65
 1748 0014 84F83F30 		strb	r3, [r4, #63]
  77:HigherLevelApps/HigherLevelApps.c/User_Interface.c **** 	TextSystem.Graph->graphic_name[2] = 't';
 1749              		.loc 1 77 2 is_stmt 1 view .LVU549
  77:HigherLevelApps/HigherLevelApps.c/User_Interface.c **** 	TextSystem.Graph->graphic_name[2] = 't';
 1750              		.loc 1 77 36 is_stmt 0 view .LVU550
 1751 0018 7523     		movs	r3, #117
 1752 001a 84F84030 		strb	r3, [r4, #64]
  78:HigherLevelApps/HigherLevelApps.c/User_Interface.c **** 	TextSystem.Graph->end_angle = TextSystem.TextNumber;
 1753              		.loc 1 78 2 is_stmt 1 view .LVU551
  78:HigherLevelApps/HigherLevelApps.c/User_Interface.c **** 	TextSystem.Graph->end_angle = TextSystem.TextNumber;
 1754              		.loc 1 78 36 is_stmt 0 view .LVU552
 1755 001e 7423     		movs	r3, #116
 1756 0020 84F84130 		strb	r3, [r4, #65]
  79:HigherLevelApps/HigherLevelApps.c/User_Interface.c **** 	//memcpy(TextSystem.Text, "Cap", 3);
 1757              		.loc 1 79 2 is_stmt 1 view .LVU553
  79:HigherLevelApps/HigherLevelApps.c/User_Interface.c **** 	//memcpy(TextSystem.Text, "Cap", 3);
 1758              		.loc 1 79 42 is_stmt 0 view .LVU554
 1759 0024 94F86C20 		ldrb	r2, [r4, #108]	@ zero_extendqisi2
  79:HigherLevelApps/HigherLevelApps.c/User_Interface.c **** 	//memcpy(TextSystem.Text, "Cap", 3);
 1760              		.loc 1 79 30 view .LVU555
 1761 0028 B4F84430 		ldrh	r3, [r4, #68]
 1762 002c 62F3CF13 		bfi	r3, r2, #7, #9
 1763 0030 A4F84430 		strh	r3, [r4, #68]	@ movhi
  81:HigherLevelApps/HigherLevelApps.c/User_Interface.c **** 	TextSystem.Graph->start_y = UI.Text_Location.Text_2_Y * CMToPixel;
 1764              		.loc 1 81 2 is_stmt 1 view .LVU556
  81:HigherLevelApps/HigherLevelApps.c/User_Interface.c **** 	TextSystem.Graph->start_y = UI.Text_Location.Text_2_Y * CMToPixel;
 1765              		.loc 1 81 46 is_stmt 0 view .LVU557
 1766 0034 2E4D     		ldr	r5, .L44+4
 1767 0036 D5ED047A 		vldr.32	s15, [r5, #16]
  81:HigherLevelApps/HigherLevelApps.c/User_Interface.c **** 	TextSystem.Graph->start_y = UI.Text_Location.Text_2_Y * CMToPixel;
 1768              		.loc 1 81 56 view .LVU558
 1769 003a 9FED2E7A 		vldr.32	s14, .L44+8
 1770 003e 67EE877A 		vmul.f32	s15, s15, s14
  81:HigherLevelApps/HigherLevelApps.c/User_Interface.c **** 	TextSystem.Graph->start_y = UI.Text_Location.Text_2_Y * CMToPixel;
 1771              		.loc 1 81 28 view .LVU559
 1772 0042 FCEEE77A 		vcvt.u32.f32	s15, s15
 1773 0046 17EE903A 		vmov	r3, s15	@ int
 1774 004a 03F03F01 		and	r1, r3, #63
 1775 004e 94F84720 		ldrb	r2, [r4, #71]	@ zero_extendqisi2
 1776 0052 02F00302 		and	r2, r2, #3
 1777 0056 42EA8102 		orr	r2, r2, r1, lsl #2
 1778 005a 84F84720 		strb	r2, [r4, #71]
 1779 005e C3F38413 		ubfx	r3, r3, #6, #5
 1780 0062 94F84820 		ldrb	r2, [r4, #72]	@ zero_extendqisi2
 1781 0066 22F01F02 		bic	r2, r2, #31
 1782 006a 1343     		orrs	r3, r3, r2
ARM GAS  C:\Users\purdu\AppData\Local\Temp\ccP1UZx1.s 			page 48


 1783 006c 84F84830 		strb	r3, [r4, #72]
  82:HigherLevelApps/HigherLevelApps.c/User_Interface.c **** 	TextSystem.PacketNumber = UI.Global_PacketNumber;
 1784              		.loc 1 82 2 is_stmt 1 view .LVU560
  82:HigherLevelApps/HigherLevelApps.c/User_Interface.c **** 	TextSystem.PacketNumber = UI.Global_PacketNumber;
 1785              		.loc 1 82 46 is_stmt 0 view .LVU561
 1786 0070 D5ED057A 		vldr.32	s15, [r5, #20]
  82:HigherLevelApps/HigherLevelApps.c/User_Interface.c **** 	TextSystem.PacketNumber = UI.Global_PacketNumber;
 1787              		.loc 1 82 56 view .LVU562
 1788 0074 67EE877A 		vmul.f32	s15, s15, s14
  82:HigherLevelApps/HigherLevelApps.c/User_Interface.c **** 	TextSystem.PacketNumber = UI.Global_PacketNumber;
 1789              		.loc 1 82 28 view .LVU563
 1790 0078 FCEEE77A 		vcvt.u32.f32	s15, s15
 1791 007c B4F84830 		ldrh	r3, [r4, #72]
 1792 0080 17EE902A 		vmov	r2, s15	@ int
 1793 0084 62F34F13 		bfi	r3, r2, #5, #11
 1794 0088 A4F84830 		strh	r3, [r4, #72]	@ movhi
  83:HigherLevelApps/HigherLevelApps.c/User_Interface.c **** 	UI_Add_Frame_And_Data_Header_Character(&TextSystem);
 1795              		.loc 1 83 2 is_stmt 1 view .LVU564
  83:HigherLevelApps/HigherLevelApps.c/User_Interface.c **** 	UI_Add_Frame_And_Data_Header_Character(&TextSystem);
 1796              		.loc 1 83 30 is_stmt 0 view .LVU565
 1797 008c EB79     		ldrb	r3, [r5, #7]	@ zero_extendqisi2
  83:HigherLevelApps/HigherLevelApps.c/User_Interface.c **** 	UI_Add_Frame_And_Data_Header_Character(&TextSystem);
 1798              		.loc 1 83 26 view .LVU566
 1799 008e 84F83E30 		strb	r3, [r4, #62]
  84:HigherLevelApps/HigherLevelApps.c/User_Interface.c **** 	UI_Add_Character(&TextSystem, 30);
 1800              		.loc 1 84 2 is_stmt 1 view .LVU567
 1801 0092 2046     		mov	r0, r4
 1802 0094 FFF7FEFF 		bl	UI_Add_Frame_And_Data_Header_Character
 1803              	.LVL88:
  85:HigherLevelApps/HigherLevelApps.c/User_Interface.c ****   UI_Add_Frame_Tail_Character(&TextSystem);
 1804              		.loc 1 85 2 view .LVU568
 1805 0098 1E21     		movs	r1, #30
 1806 009a 2046     		mov	r0, r4
 1807 009c FFF7FEFF 		bl	UI_Add_Character
 1808              	.LVL89:
  86:HigherLevelApps/HigherLevelApps.c/User_Interface.c **** 	osDelay(200);
 1809              		.loc 1 86 3 view .LVU569
 1810 00a0 2046     		mov	r0, r4
 1811 00a2 FFF7FEFF 		bl	UI_Add_Frame_Tail_Character
 1812              	.LVL90:
  87:HigherLevelApps/HigherLevelApps.c/User_Interface.c **** 	HAL_UART_Transmit(UART, TextSystem.dataBuffer, sizeof(TextSystem.dataBuffer), 500);
 1813              		.loc 1 87 2 view .LVU570
 1814 00a6 C820     		movs	r0, #200
 1815 00a8 FFF7FEFF 		bl	osDelay
 1816              	.LVL91:
  88:HigherLevelApps/HigherLevelApps.c/User_Interface.c **** 	UI.Global_PacketNumber++;
 1817              		.loc 1 88 2 view .LVU571
 1818 00ac 4FF4FA73 		mov	r3, #500
 1819 00b0 3C22     		movs	r2, #60
 1820 00b2 2146     		mov	r1, r4
 1821 00b4 1048     		ldr	r0, .L44+12
 1822 00b6 FFF7FEFF 		bl	HAL_UART_Transmit
 1823              	.LVL92:
  89:HigherLevelApps/HigherLevelApps.c/User_Interface.c **** 	memcpy(TextSystem.Text, TextInit, 30);
 1824              		.loc 1 89 2 view .LVU572
  89:HigherLevelApps/HigherLevelApps.c/User_Interface.c **** 	memcpy(TextSystem.Text, TextInit, 30);
 1825              		.loc 1 89 4 is_stmt 0 view .LVU573
ARM GAS  C:\Users\purdu\AppData\Local\Temp\ccP1UZx1.s 			page 49


 1826 00ba EB79     		ldrb	r3, [r5, #7]	@ zero_extendqisi2
  89:HigherLevelApps/HigherLevelApps.c/User_Interface.c **** 	memcpy(TextSystem.Text, TextInit, 30);
 1827              		.loc 1 89 24 view .LVU574
 1828 00bc 0133     		adds	r3, r3, #1
 1829 00be EB71     		strb	r3, [r5, #7]
  90:HigherLevelApps/HigherLevelApps.c/User_Interface.c **** }
 1830              		.loc 1 90 2 is_stmt 1 view .LVU575
 1831 00c0 0E4D     		ldr	r5, .L44+16
 1832 00c2 0FCD     		ldmia	r5!, {r0, r1, r2, r3}
 1833 00c4 C4F84E00 		str	r0, [r4, #78]	@ unaligned
 1834 00c8 C4F85210 		str	r1, [r4, #82]	@ unaligned
 1835 00cc C4F85620 		str	r2, [r4, #86]	@ unaligned
 1836 00d0 C4F85A30 		str	r3, [r4, #90]	@ unaligned
 1837 00d4 07CD     		ldmia	r5!, {r0, r1, r2}
 1838 00d6 C4F85E00 		str	r0, [r4, #94]	@ unaligned
 1839 00da C4F86210 		str	r1, [r4, #98]	@ unaligned
 1840 00de C4F86620 		str	r2, [r4, #102]	@ unaligned
 1841 00e2 2B88     		ldrh	r3, [r5]	@ unaligned
 1842 00e4 A4F86A30 		strh	r3, [r4, #106]	@ unaligned
  91:HigherLevelApps/HigherLevelApps.c/User_Interface.c **** 
 1843              		.loc 1 91 1 is_stmt 0 view .LVU576
 1844 00e8 38BD     		pop	{r3, r4, r5, pc}
 1845              	.L45:
 1846 00ea 00BF     		.align	2
 1847              	.L44:
 1848 00ec 00000000 		.word	TextSystem
 1849 00f0 00000000 		.word	UI
 1850 00f4 00006042 		.word	1113587712
 1851 00f8 00000000 		.word	huart6
 1852 00fc 00000000 		.word	TextInit
 1853              		.cfi_endproc
 1854              	.LFE141:
 1856              		.section	.rodata.UI_TextSystem_Init.str1.4,"aMS",%progbits,1
 1857              		.align	2
 1858              	.LC0:
 1859 0000 43617000 		.ascii	"Cap\000"
 1860              		.align	2
 1861              	.LC1:
 1862 0004 4175746F 		.ascii	"Auto\000"
 1862      00
 1863 0009 000000   		.align	2
 1864              	.LC2:
 1865 000c 53746174 		.ascii	"State\000"
 1865      6500
 1866              		.section	.text.UI_TextSystem_Init,"ax",%progbits
 1867              		.align	1
 1868              		.global	UI_TextSystem_Init
 1869              		.syntax unified
 1870              		.thumb
 1871              		.thumb_func
 1873              	UI_TextSystem_Init:
 1874              	.LFB142:
  94:HigherLevelApps/HigherLevelApps.c/User_Interface.c **** 	TextSystem.Graph->graphic_name[0] = '0';
 1875              		.loc 1 94 1 is_stmt 1 view -0
 1876              		.cfi_startproc
 1877              		@ args = 0, pretend = 0, frame = 0
 1878              		@ frame_needed = 0, uses_anonymous_args = 0
ARM GAS  C:\Users\purdu\AppData\Local\Temp\ccP1UZx1.s 			page 50


 1879 0000 2DE9F84F 		push	{r3, r4, r5, r6, r7, r8, r9, r10, fp, lr}
 1880              	.LCFI10:
 1881              		.cfi_def_cfa_offset 40
 1882              		.cfi_offset 3, -40
 1883              		.cfi_offset 4, -36
 1884              		.cfi_offset 5, -32
 1885              		.cfi_offset 6, -28
 1886              		.cfi_offset 7, -24
 1887              		.cfi_offset 8, -20
 1888              		.cfi_offset 9, -16
 1889              		.cfi_offset 10, -12
 1890              		.cfi_offset 11, -8
 1891              		.cfi_offset 14, -4
 1892 0004 2DED028B 		vpush.64	{d8}
 1893              	.LCFI11:
 1894              		.cfi_def_cfa_offset 48
 1895              		.cfi_offset 80, -48
 1896              		.cfi_offset 81, -44
  95:HigherLevelApps/HigherLevelApps.c/User_Interface.c **** 	TextSystem.Graph->graphic_name[1] = '0';
 1897              		.loc 1 95 2 view .LVU578
  95:HigherLevelApps/HigherLevelApps.c/User_Interface.c **** 	TextSystem.Graph->graphic_name[1] = '0';
 1898              		.loc 1 95 36 is_stmt 0 view .LVU579
 1899 0008 E24C     		ldr	r4, .L48
 1900 000a 3023     		movs	r3, #48
 1901 000c 84F83F30 		strb	r3, [r4, #63]
  96:HigherLevelApps/HigherLevelApps.c/User_Interface.c **** 	TextSystem.Graph->graphic_name[2] = '0';
 1902              		.loc 1 96 2 is_stmt 1 view .LVU580
  96:HigherLevelApps/HigherLevelApps.c/User_Interface.c **** 	TextSystem.Graph->graphic_name[2] = '0';
 1903              		.loc 1 96 36 is_stmt 0 view .LVU581
 1904 0010 84F84030 		strb	r3, [r4, #64]
  97:HigherLevelApps/HigherLevelApps.c/User_Interface.c **** 	TextSystem.Graph->operate_type = UI_Graph_Add;
 1905              		.loc 1 97 2 is_stmt 1 view .LVU582
  97:HigherLevelApps/HigherLevelApps.c/User_Interface.c **** 	TextSystem.Graph->operate_type = UI_Graph_Add;
 1906              		.loc 1 97 36 is_stmt 0 view .LVU583
 1907 0014 84F84130 		strb	r3, [r4, #65]
  98:HigherLevelApps/HigherLevelApps.c/User_Interface.c **** 	TextSystem.Graph->graphic_type = UI_Graph_Char;
 1908              		.loc 1 98 2 is_stmt 1 view .LVU584
  98:HigherLevelApps/HigherLevelApps.c/User_Interface.c **** 	TextSystem.Graph->graphic_type = UI_Graph_Char;
 1909              		.loc 1 98 33 is_stmt 0 view .LVU585
 1910 0018 94F84230 		ldrb	r3, [r4, #66]	@ zero_extendqisi2
 1911 001c 0122     		movs	r2, #1
 1912 001e 62F30203 		bfi	r3, r2, #0, #3
 1913 0022 84F84230 		strb	r3, [r4, #66]
  99:HigherLevelApps/HigherLevelApps.c/User_Interface.c **** 	TextSystem.Graph->layer = 8;
 1914              		.loc 1 99 2 is_stmt 1 view .LVU586
  99:HigherLevelApps/HigherLevelApps.c/User_Interface.c **** 	TextSystem.Graph->layer = 8;
 1915              		.loc 1 99 33 is_stmt 0 view .LVU587
 1916 0026 DBB2     		uxtb	r3, r3
 1917 0028 43F03803 		orr	r3, r3, #56
 1918 002c 84F84230 		strb	r3, [r4, #66]
 100:HigherLevelApps/HigherLevelApps.c/User_Interface.c **** 	TextSystem.Graph->color = UI_Color_Orange;
 1919              		.loc 1 100 2 is_stmt 1 view .LVU588
 100:HigherLevelApps/HigherLevelApps.c/User_Interface.c **** 	TextSystem.Graph->color = UI_Color_Orange;
 1920              		.loc 1 100 26 is_stmt 0 view .LVU589
 1921 0030 B4F84230 		ldrh	r3, [r4, #66]
 1922 0034 0822     		movs	r2, #8
 1923 0036 62F38913 		bfi	r3, r2, #6, #4
ARM GAS  C:\Users\purdu\AppData\Local\Temp\ccP1UZx1.s 			page 51


 1924 003a A4F84230 		strh	r3, [r4, #66]	@ movhi
 101:HigherLevelApps/HigherLevelApps.c/User_Interface.c **** 	TextSystem.Graph->start_angle = 20;    //Size of Char
 1925              		.loc 1 101 2 is_stmt 1 view .LVU590
 101:HigherLevelApps/HigherLevelApps.c/User_Interface.c **** 	TextSystem.Graph->start_angle = 20;    //Size of Char
 1926              		.loc 1 101 26 is_stmt 0 view .LVU591
 1927 003e 94F84330 		ldrb	r3, [r4, #67]	@ zero_extendqisi2
 1928 0042 4FF0030C 		mov	ip, #3
 1929 0046 6CF38503 		bfi	r3, ip, #2, #4
 1930 004a 84F84330 		strb	r3, [r4, #67]
 102:HigherLevelApps/HigherLevelApps.c/User_Interface.c **** 	TextSystem.Graph->end_angle = 0;	    //Length of Char
 1931              		.loc 1 102 2 is_stmt 1 view .LVU592
 102:HigherLevelApps/HigherLevelApps.c/User_Interface.c **** 	TextSystem.Graph->end_angle = 0;	    //Length of Char
 1932              		.loc 1 102 32 is_stmt 0 view .LVU593
 1933 004e DBB2     		uxtb	r3, r3
 1934 0050 03F03F03 		and	r3, r3, #63
 1935 0054 84F84330 		strb	r3, [r4, #67]
 1936 0058 94F84430 		ldrb	r3, [r4, #68]	@ zero_extendqisi2
 1937 005c 23F07F03 		bic	r3, r3, #127
 1938 0060 43F00503 		orr	r3, r3, #5
 1939 0064 84F84430 		strb	r3, [r4, #68]
 103:HigherLevelApps/HigherLevelApps.c/User_Interface.c **** 	TextSystem.Graph->width = 3;
 1940              		.loc 1 103 2 is_stmt 1 view .LVU594
 103:HigherLevelApps/HigherLevelApps.c/User_Interface.c **** 	TextSystem.Graph->width = 3;
 1941              		.loc 1 103 30 is_stmt 0 view .LVU595
 1942 0068 B4F84470 		ldrh	r7, [r4, #68]
 1943 006c 6FF3CF17 		bfc	r7, #7, #9
 1944 0070 A4F84470 		strh	r7, [r4, #68]	@ movhi
 104:HigherLevelApps/HigherLevelApps.c/User_Interface.c **** 	TextSystem.Graph->start_x = 0;
 1945              		.loc 1 104 2 is_stmt 1 view .LVU596
 104:HigherLevelApps/HigherLevelApps.c/User_Interface.c **** 	TextSystem.Graph->start_x = 0;
 1946              		.loc 1 104 26 is_stmt 0 view .LVU597
 1947 0074 B4F84630 		ldrh	r3, [r4, #70]
 1948 0078 6CF30903 		bfi	r3, ip, #0, #10
 1949 007c A4F84630 		strh	r3, [r4, #70]	@ movhi
 105:HigherLevelApps/HigherLevelApps.c/User_Interface.c **** 	TextSystem.Graph->start_y = 0;
 1950              		.loc 1 105 2 is_stmt 1 view .LVU598
 105:HigherLevelApps/HigherLevelApps.c/User_Interface.c **** 	TextSystem.Graph->start_y = 0;
 1951              		.loc 1 105 28 is_stmt 0 view .LVU599
 1952 0080 94F84730 		ldrb	r3, [r4, #71]	@ zero_extendqisi2
 1953 0084 03EA0C03 		and	r3, r3, ip
 1954 0088 84F84730 		strb	r3, [r4, #71]
 1955 008c 94F84830 		ldrb	r3, [r4, #72]	@ zero_extendqisi2
 1956 0090 23F01F03 		bic	r3, r3, #31
 1957 0094 84F84830 		strb	r3, [r4, #72]
 106:HigherLevelApps/HigherLevelApps.c/User_Interface.c **** 	TextSystem.Graph->radius = 0;
 1958              		.loc 1 106 2 is_stmt 1 view .LVU600
 106:HigherLevelApps/HigherLevelApps.c/User_Interface.c **** 	TextSystem.Graph->radius = 0;
 1959              		.loc 1 106 28 is_stmt 0 view .LVU601
 1960 0098 B4F84830 		ldrh	r3, [r4, #72]
 1961 009c 6FF34F13 		bfc	r3, #5, #11
 1962 00a0 A4F84830 		strh	r3, [r4, #72]	@ movhi
 107:HigherLevelApps/HigherLevelApps.c/User_Interface.c **** 	TextSystem.Graph->end_x = 0;
 1963              		.loc 1 107 2 is_stmt 1 view .LVU602
 107:HigherLevelApps/HigherLevelApps.c/User_Interface.c **** 	TextSystem.Graph->end_x = 0;
 1964              		.loc 1 107 27 is_stmt 0 view .LVU603
 1965 00a4 B4F84A30 		ldrh	r3, [r4, #74]
 1966 00a8 6FF30903 		bfc	r3, #0, #10
ARM GAS  C:\Users\purdu\AppData\Local\Temp\ccP1UZx1.s 			page 52


 1967 00ac A4F84A30 		strh	r3, [r4, #74]	@ movhi
 108:HigherLevelApps/HigherLevelApps.c/User_Interface.c **** 	TextSystem.Graph->end_y = 0;
 1968              		.loc 1 108 2 is_stmt 1 view .LVU604
 108:HigherLevelApps/HigherLevelApps.c/User_Interface.c **** 	TextSystem.Graph->end_y = 0;
 1969              		.loc 1 108 26 is_stmt 0 view .LVU605
 1970 00b0 94F84B30 		ldrb	r3, [r4, #75]	@ zero_extendqisi2
 1971 00b4 03EA0C03 		and	r3, r3, ip
 1972 00b8 84F84B30 		strb	r3, [r4, #75]
 1973 00bc 94F84C30 		ldrb	r3, [r4, #76]	@ zero_extendqisi2
 1974 00c0 23F01F03 		bic	r3, r3, #31
 1975 00c4 84F84C30 		strb	r3, [r4, #76]
 109:HigherLevelApps/HigherLevelApps.c/User_Interface.c **** 	
 1976              		.loc 1 109 2 is_stmt 1 view .LVU606
 109:HigherLevelApps/HigherLevelApps.c/User_Interface.c **** 	
 1977              		.loc 1 109 26 is_stmt 0 view .LVU607
 1978 00c8 B4F84C30 		ldrh	r3, [r4, #76]
 1979 00cc 6FF34F13 		bfc	r3, #5, #11
 1980 00d0 A4F84C30 		strh	r3, [r4, #76]	@ movhi
 111:HigherLevelApps/HigherLevelApps.c/User_Interface.c **** 	
 1981              		.loc 1 111 2 is_stmt 1 view .LVU608
 111:HigherLevelApps/HigherLevelApps.c/User_Interface.c **** 	
 1982              		.loc 1 111 25 is_stmt 0 view .LVU609
 1983 00d4 4FF03C08 		mov	r8, #60
 1984 00d8 A4F83C80 		strh	r8, [r4, #60]	@ movhi
 113:HigherLevelApps/HigherLevelApps.c/User_Interface.c **** 	TextSystem.Graph->graphic_name[0] = 'C';
 1985              		.loc 1 113 2 is_stmt 1 view .LVU610
 1986 00dc AE4E     		ldr	r6, .L48+4
 1987 00de 0FCE     		ldmia	r6!, {r0, r1, r2, r3}
 1988 00e0 C4F84E00 		str	r0, [r4, #78]	@ unaligned
 1989 00e4 C4F85210 		str	r1, [r4, #82]	@ unaligned
 1990 00e8 C4F85620 		str	r2, [r4, #86]	@ unaligned
 1991 00ec C4F85A30 		str	r3, [r4, #90]	@ unaligned
 1992 00f0 07CE     		ldmia	r6!, {r0, r1, r2}
 1993 00f2 C4F85E00 		str	r0, [r4, #94]	@ unaligned
 1994 00f6 C4F86210 		str	r1, [r4, #98]	@ unaligned
 1995 00fa C4F86620 		str	r2, [r4, #102]	@ unaligned
 1996 00fe 3388     		ldrh	r3, [r6]	@ unaligned
 1997 0100 A4F86A30 		strh	r3, [r4, #106]	@ unaligned
 114:HigherLevelApps/HigherLevelApps.c/User_Interface.c **** 	TextSystem.Graph->graphic_name[1] = 'a';
 1998              		.loc 1 114 2 view .LVU611
 114:HigherLevelApps/HigherLevelApps.c/User_Interface.c **** 	TextSystem.Graph->graphic_name[1] = 'a';
 1999              		.loc 1 114 36 is_stmt 0 view .LVU612
 2000 0104 4323     		movs	r3, #67
 2001 0106 84F83F30 		strb	r3, [r4, #63]
 115:HigherLevelApps/HigherLevelApps.c/User_Interface.c **** 	TextSystem.Graph->graphic_name[2] = 'p';
 2002              		.loc 1 115 2 is_stmt 1 view .LVU613
 115:HigherLevelApps/HigherLevelApps.c/User_Interface.c **** 	TextSystem.Graph->graphic_name[2] = 'p';
 2003              		.loc 1 115 36 is_stmt 0 view .LVU614
 2004 010a 4FF0610A 		mov	r10, #97
 2005 010e 84F840A0 		strb	r10, [r4, #64]
 116:HigherLevelApps/HigherLevelApps.c/User_Interface.c **** 	TextSystem.Graph->end_angle = 3;
 2006              		.loc 1 116 2 is_stmt 1 view .LVU615
 116:HigherLevelApps/HigherLevelApps.c/User_Interface.c **** 	TextSystem.Graph->end_angle = 3;
 2007              		.loc 1 116 36 is_stmt 0 view .LVU616
 2008 0112 7023     		movs	r3, #112
 2009 0114 84F84130 		strb	r3, [r4, #65]
 117:HigherLevelApps/HigherLevelApps.c/User_Interface.c **** 	memcpy(TextSystem.Text, "Cap", 3);
ARM GAS  C:\Users\purdu\AppData\Local\Temp\ccP1UZx1.s 			page 53


 2010              		.loc 1 117 2 is_stmt 1 view .LVU617
 117:HigherLevelApps/HigherLevelApps.c/User_Interface.c **** 	memcpy(TextSystem.Text, "Cap", 3);
 2011              		.loc 1 117 30 is_stmt 0 view .LVU618
 2012 0118 6CF3CF17 		bfi	r7, ip, #7, #9
 2013 011c A4F84470 		strh	r7, [r4, #68]	@ movhi
 118:HigherLevelApps/HigherLevelApps.c/User_Interface.c **** 	TextSystem.Graph->start_x = UI.Text_Location.Text_1_X * CMToPixel;
 2014              		.loc 1 118 2 is_stmt 1 view .LVU619
 2015 0120 9E4B     		ldr	r3, .L48+8
 2016 0122 1A88     		ldrh	r2, [r3]	@ unaligned
 2017 0124 9B78     		ldrb	r3, [r3, #2]	@ zero_extendqisi2
 2018 0126 A4F84E20 		strh	r2, [r4, #78]	@ unaligned
 2019 012a 84F85030 		strb	r3, [r4, #80]
 119:HigherLevelApps/HigherLevelApps.c/User_Interface.c **** 	TextSystem.Graph->start_y = UI.Text_Location.Text_1_Y * CMToPixel;
 2020              		.loc 1 119 2 view .LVU620
 119:HigherLevelApps/HigherLevelApps.c/User_Interface.c **** 	TextSystem.Graph->start_y = UI.Text_Location.Text_1_Y * CMToPixel;
 2021              		.loc 1 119 46 is_stmt 0 view .LVU621
 2022 012e 9C4F     		ldr	r7, .L48+12
 2023 0130 D7ED027A 		vldr.32	s15, [r7, #8]
 119:HigherLevelApps/HigherLevelApps.c/User_Interface.c **** 	TextSystem.Graph->start_y = UI.Text_Location.Text_1_Y * CMToPixel;
 2024              		.loc 1 119 56 view .LVU622
 2025 0134 9FED9B8A 		vldr.32	s16, .L48+16
 2026 0138 67EE887A 		vmul.f32	s15, s15, s16
 119:HigherLevelApps/HigherLevelApps.c/User_Interface.c **** 	TextSystem.Graph->start_y = UI.Text_Location.Text_1_Y * CMToPixel;
 2027              		.loc 1 119 28 view .LVU623
 2028 013c FCEEE77A 		vcvt.u32.f32	s15, s15
 2029 0140 17EE903A 		vmov	r3, s15	@ int
 2030 0144 03F03F01 		and	r1, r3, #63
 2031 0148 94F84720 		ldrb	r2, [r4, #71]	@ zero_extendqisi2
 2032 014c 02EA0C02 		and	r2, r2, ip
 2033 0150 42EA8102 		orr	r2, r2, r1, lsl #2
 2034 0154 84F84720 		strb	r2, [r4, #71]
 2035 0158 C3F38413 		ubfx	r3, r3, #6, #5
 2036 015c 94F84820 		ldrb	r2, [r4, #72]	@ zero_extendqisi2
 2037 0160 22F01F02 		bic	r2, r2, #31
 2038 0164 1343     		orrs	r3, r3, r2
 2039 0166 84F84830 		strb	r3, [r4, #72]
 120:HigherLevelApps/HigherLevelApps.c/User_Interface.c **** 	TextSystem.PacketNumber = UI.Global_PacketNumber;
 2040              		.loc 1 120 2 is_stmt 1 view .LVU624
 120:HigherLevelApps/HigherLevelApps.c/User_Interface.c **** 	TextSystem.PacketNumber = UI.Global_PacketNumber;
 2041              		.loc 1 120 46 is_stmt 0 view .LVU625
 2042 016a D7ED037A 		vldr.32	s15, [r7, #12]
 120:HigherLevelApps/HigherLevelApps.c/User_Interface.c **** 	TextSystem.PacketNumber = UI.Global_PacketNumber;
 2043              		.loc 1 120 56 view .LVU626
 2044 016e 67EE887A 		vmul.f32	s15, s15, s16
 120:HigherLevelApps/HigherLevelApps.c/User_Interface.c **** 	TextSystem.PacketNumber = UI.Global_PacketNumber;
 2045              		.loc 1 120 28 view .LVU627
 2046 0172 FCEEE77A 		vcvt.u32.f32	s15, s15
 2047 0176 B4F84830 		ldrh	r3, [r4, #72]
 2048 017a 17EE902A 		vmov	r2, s15	@ int
 2049 017e 62F34F13 		bfi	r3, r2, #5, #11
 2050 0182 A4F84830 		strh	r3, [r4, #72]	@ movhi
 121:HigherLevelApps/HigherLevelApps.c/User_Interface.c **** 	UI_Add_Frame_And_Data_Header_Character(&TextSystem);
 2051              		.loc 1 121 2 is_stmt 1 view .LVU628
 121:HigherLevelApps/HigherLevelApps.c/User_Interface.c **** 	UI_Add_Frame_And_Data_Header_Character(&TextSystem);
 2052              		.loc 1 121 30 is_stmt 0 view .LVU629
 2053 0186 FB79     		ldrb	r3, [r7, #7]	@ zero_extendqisi2
 121:HigherLevelApps/HigherLevelApps.c/User_Interface.c **** 	UI_Add_Frame_And_Data_Header_Character(&TextSystem);
ARM GAS  C:\Users\purdu\AppData\Local\Temp\ccP1UZx1.s 			page 54


 2054              		.loc 1 121 26 view .LVU630
 2055 0188 84F83E30 		strb	r3, [r4, #62]
 122:HigherLevelApps/HigherLevelApps.c/User_Interface.c **** 	UI_Add_Character(&TextSystem, 30);
 2056              		.loc 1 122 2 is_stmt 1 view .LVU631
 2057 018c 2046     		mov	r0, r4
 2058 018e FFF7FEFF 		bl	UI_Add_Frame_And_Data_Header_Character
 2059              	.LVL93:
 123:HigherLevelApps/HigherLevelApps.c/User_Interface.c ****   UI_Add_Frame_Tail_Character(&TextSystem);
 2060              		.loc 1 123 2 view .LVU632
 2061 0192 1E21     		movs	r1, #30
 2062 0194 2046     		mov	r0, r4
 2063 0196 FFF7FEFF 		bl	UI_Add_Character
 2064              	.LVL94:
 124:HigherLevelApps/HigherLevelApps.c/User_Interface.c **** 	osDelay(100);
 2065              		.loc 1 124 3 view .LVU633
 2066 019a 2046     		mov	r0, r4
 2067 019c FFF7FEFF 		bl	UI_Add_Frame_Tail_Character
 2068              	.LVL95:
 125:HigherLevelApps/HigherLevelApps.c/User_Interface.c **** 	HAL_UART_Transmit(UART, TextSystem.dataBuffer, sizeof(TextSystem.dataBuffer), 500);
 2069              		.loc 1 125 2 view .LVU634
 2070 01a0 6420     		movs	r0, #100
 2071 01a2 FFF7FEFF 		bl	osDelay
 2072              	.LVL96:
 126:HigherLevelApps/HigherLevelApps.c/User_Interface.c **** 	UI.Global_PacketNumber++;
 2073              		.loc 1 126 2 view .LVU635
 2074 01a6 DFF80892 		ldr	r9, .L48+28
 2075 01aa 4FF4FA73 		mov	r3, #500
 2076 01ae 4246     		mov	r2, r8
 2077 01b0 2146     		mov	r1, r4
 2078 01b2 4846     		mov	r0, r9
 2079 01b4 FFF7FEFF 		bl	HAL_UART_Transmit
 2080              	.LVL97:
 127:HigherLevelApps/HigherLevelApps.c/User_Interface.c **** 	
 2081              		.loc 1 127 2 view .LVU636
 127:HigherLevelApps/HigherLevelApps.c/User_Interface.c **** 	
 2082              		.loc 1 127 4 is_stmt 0 view .LVU637
 2083 01b8 97F807E0 		ldrb	lr, [r7, #7]	@ zero_extendqisi2
 127:HigherLevelApps/HigherLevelApps.c/User_Interface.c **** 	
 2084              		.loc 1 127 24 view .LVU638
 2085 01bc 0EF1010E 		add	lr, lr, #1
 2086 01c0 5FFA8EFE 		uxtb	lr, lr
 2087 01c4 87F807E0 		strb	lr, [r7, #7]
 129:HigherLevelApps/HigherLevelApps.c/User_Interface.c **** 	TextSystem.Graph->graphic_name[0] = 'A';
 2088              		.loc 1 129 2 is_stmt 1 view .LVU639
 2089 01c8 A6F11C0C 		sub	ip, r6, #28
 2090 01cc BCE80F00 		ldmia	ip!, {r0, r1, r2, r3}
 2091 01d0 C4F84E00 		str	r0, [r4, #78]	@ unaligned
 2092 01d4 C4F85210 		str	r1, [r4, #82]	@ unaligned
 2093 01d8 C4F85620 		str	r2, [r4, #86]	@ unaligned
 2094 01dc C4F85A30 		str	r3, [r4, #90]	@ unaligned
 2095 01e0 BCE80700 		ldmia	ip!, {r0, r1, r2}
 2096 01e4 C4F85E00 		str	r0, [r4, #94]	@ unaligned
 2097 01e8 C4F86210 		str	r1, [r4, #98]	@ unaligned
 2098 01ec C4F86620 		str	r2, [r4, #102]	@ unaligned
 2099 01f0 3388     		ldrh	r3, [r6]	@ unaligned
 2100 01f2 A4F86A30 		strh	r3, [r4, #106]	@ unaligned
 130:HigherLevelApps/HigherLevelApps.c/User_Interface.c **** 	TextSystem.Graph->graphic_name[1] = 'u';
ARM GAS  C:\Users\purdu\AppData\Local\Temp\ccP1UZx1.s 			page 55


 2101              		.loc 1 130 2 view .LVU640
 130:HigherLevelApps/HigherLevelApps.c/User_Interface.c **** 	TextSystem.Graph->graphic_name[1] = 'u';
 2102              		.loc 1 130 36 is_stmt 0 view .LVU641
 2103 01f6 4123     		movs	r3, #65
 2104 01f8 84F83F30 		strb	r3, [r4, #63]
 131:HigherLevelApps/HigherLevelApps.c/User_Interface.c **** 	TextSystem.Graph->graphic_name[2] = 't';
 2105              		.loc 1 131 2 is_stmt 1 view .LVU642
 131:HigherLevelApps/HigherLevelApps.c/User_Interface.c **** 	TextSystem.Graph->graphic_name[2] = 't';
 2106              		.loc 1 131 36 is_stmt 0 view .LVU643
 2107 01fc 7523     		movs	r3, #117
 2108 01fe 84F84030 		strb	r3, [r4, #64]
 132:HigherLevelApps/HigherLevelApps.c/User_Interface.c **** 	TextSystem.Graph->end_angle = 4;	    //Length of Char
 2109              		.loc 1 132 2 is_stmt 1 view .LVU644
 132:HigherLevelApps/HigherLevelApps.c/User_Interface.c **** 	TextSystem.Graph->end_angle = 4;	    //Length of Char
 2110              		.loc 1 132 36 is_stmt 0 view .LVU645
 2111 0202 4FF0740B 		mov	fp, #116
 2112 0206 84F841B0 		strb	fp, [r4, #65]
 133:HigherLevelApps/HigherLevelApps.c/User_Interface.c **** 	memcpy(TextSystem.Text, "Auto", 4);
 2113              		.loc 1 133 2 is_stmt 1 view .LVU646
 133:HigherLevelApps/HigherLevelApps.c/User_Interface.c **** 	memcpy(TextSystem.Text, "Auto", 4);
 2114              		.loc 1 133 30 is_stmt 0 view .LVU647
 2115 020a B4F84430 		ldrh	r3, [r4, #68]
 2116 020e 0422     		movs	r2, #4
 2117 0210 62F3CF13 		bfi	r3, r2, #7, #9
 2118 0214 A4F84430 		strh	r3, [r4, #68]	@ movhi
 134:HigherLevelApps/HigherLevelApps.c/User_Interface.c **** 	TextSystem.Graph->start_x = UI.Text_Location.Text_2_X * CMToPixel;
 2119              		.loc 1 134 2 is_stmt 1 view .LVU648
 2120 0218 634B     		ldr	r3, .L48+20
 2121 021a 1868     		ldr	r0, [r3]
 2122 021c C4F84E00 		str	r0, [r4, #78]	@ unaligned
 135:HigherLevelApps/HigherLevelApps.c/User_Interface.c **** 	TextSystem.Graph->start_y = UI.Text_Location.Text_2_Y * CMToPixel;
 2123              		.loc 1 135 2 view .LVU649
 135:HigherLevelApps/HigherLevelApps.c/User_Interface.c **** 	TextSystem.Graph->start_y = UI.Text_Location.Text_2_Y * CMToPixel;
 2124              		.loc 1 135 46 is_stmt 0 view .LVU650
 2125 0220 D7ED047A 		vldr.32	s15, [r7, #16]
 135:HigherLevelApps/HigherLevelApps.c/User_Interface.c **** 	TextSystem.Graph->start_y = UI.Text_Location.Text_2_Y * CMToPixel;
 2126              		.loc 1 135 56 view .LVU651
 2127 0224 67EE887A 		vmul.f32	s15, s15, s16
 135:HigherLevelApps/HigherLevelApps.c/User_Interface.c **** 	TextSystem.Graph->start_y = UI.Text_Location.Text_2_Y * CMToPixel;
 2128              		.loc 1 135 28 view .LVU652
 2129 0228 FCEEE77A 		vcvt.u32.f32	s15, s15
 2130 022c 17EE903A 		vmov	r3, s15	@ int
 2131 0230 03F03F01 		and	r1, r3, #63
 2132 0234 94F84720 		ldrb	r2, [r4, #71]	@ zero_extendqisi2
 2133 0238 02F00302 		and	r2, r2, #3
 2134 023c 42EA8102 		orr	r2, r2, r1, lsl #2
 2135 0240 84F84720 		strb	r2, [r4, #71]
 2136 0244 C3F38413 		ubfx	r3, r3, #6, #5
 2137 0248 94F84820 		ldrb	r2, [r4, #72]	@ zero_extendqisi2
 2138 024c 22F01F02 		bic	r2, r2, #31
 2139 0250 1343     		orrs	r3, r3, r2
 2140 0252 84F84830 		strb	r3, [r4, #72]
 136:HigherLevelApps/HigherLevelApps.c/User_Interface.c **** 	TextSystem.PacketNumber = UI.Global_PacketNumber;
 2141              		.loc 1 136 2 is_stmt 1 view .LVU653
 136:HigherLevelApps/HigherLevelApps.c/User_Interface.c **** 	TextSystem.PacketNumber = UI.Global_PacketNumber;
 2142              		.loc 1 136 46 is_stmt 0 view .LVU654
 2143 0256 D7ED057A 		vldr.32	s15, [r7, #20]
ARM GAS  C:\Users\purdu\AppData\Local\Temp\ccP1UZx1.s 			page 56


 136:HigherLevelApps/HigherLevelApps.c/User_Interface.c **** 	TextSystem.PacketNumber = UI.Global_PacketNumber;
 2144              		.loc 1 136 56 view .LVU655
 2145 025a 67EE887A 		vmul.f32	s15, s15, s16
 136:HigherLevelApps/HigherLevelApps.c/User_Interface.c **** 	TextSystem.PacketNumber = UI.Global_PacketNumber;
 2146              		.loc 1 136 28 view .LVU656
 2147 025e FCEEE77A 		vcvt.u32.f32	s15, s15
 2148 0262 B4F84830 		ldrh	r3, [r4, #72]
 2149 0266 17EE902A 		vmov	r2, s15	@ int
 2150 026a 62F34F13 		bfi	r3, r2, #5, #11
 2151 026e A4F84830 		strh	r3, [r4, #72]	@ movhi
 137:HigherLevelApps/HigherLevelApps.c/User_Interface.c **** 	UI_Add_Frame_And_Data_Header_Character(&TextSystem);
 2152              		.loc 1 137 2 is_stmt 1 view .LVU657
 137:HigherLevelApps/HigherLevelApps.c/User_Interface.c **** 	UI_Add_Frame_And_Data_Header_Character(&TextSystem);
 2153              		.loc 1 137 26 is_stmt 0 view .LVU658
 2154 0272 84F83EE0 		strb	lr, [r4, #62]
 138:HigherLevelApps/HigherLevelApps.c/User_Interface.c **** 	UI_Add_Character(&TextSystem, 30);
 2155              		.loc 1 138 2 is_stmt 1 view .LVU659
 2156 0276 2046     		mov	r0, r4
 2157 0278 FFF7FEFF 		bl	UI_Add_Frame_And_Data_Header_Character
 2158              	.LVL98:
 139:HigherLevelApps/HigherLevelApps.c/User_Interface.c ****   UI_Add_Frame_Tail_Character(&TextSystem);
 2159              		.loc 1 139 2 view .LVU660
 2160 027c 1E21     		movs	r1, #30
 2161 027e 2046     		mov	r0, r4
 2162 0280 FFF7FEFF 		bl	UI_Add_Character
 2163              	.LVL99:
 140:HigherLevelApps/HigherLevelApps.c/User_Interface.c **** 	osDelay(100);
 2164              		.loc 1 140 3 view .LVU661
 2165 0284 2046     		mov	r0, r4
 2166 0286 FFF7FEFF 		bl	UI_Add_Frame_Tail_Character
 2167              	.LVL100:
 141:HigherLevelApps/HigherLevelApps.c/User_Interface.c **** 	HAL_UART_Transmit(UART, TextSystem.dataBuffer, sizeof(TextSystem.dataBuffer), 500);
 2168              		.loc 1 141 2 view .LVU662
 2169 028a 6420     		movs	r0, #100
 2170 028c FFF7FEFF 		bl	osDelay
 2171              	.LVL101:
 142:HigherLevelApps/HigherLevelApps.c/User_Interface.c **** 	UI.Global_PacketNumber++;
 2172              		.loc 1 142 2 view .LVU663
 2173 0290 4FF4FA73 		mov	r3, #500
 2174 0294 4246     		mov	r2, r8
 2175 0296 2146     		mov	r1, r4
 2176 0298 4846     		mov	r0, r9
 2177 029a FFF7FEFF 		bl	HAL_UART_Transmit
 2178              	.LVL102:
 143:HigherLevelApps/HigherLevelApps.c/User_Interface.c **** 	
 2179              		.loc 1 143 2 view .LVU664
 143:HigherLevelApps/HigherLevelApps.c/User_Interface.c **** 	
 2180              		.loc 1 143 4 is_stmt 0 view .LVU665
 2181 029e 97F807E0 		ldrb	lr, [r7, #7]	@ zero_extendqisi2
 143:HigherLevelApps/HigherLevelApps.c/User_Interface.c **** 	
 2182              		.loc 1 143 24 view .LVU666
 2183 02a2 0EF1010E 		add	lr, lr, #1
 2184 02a6 5FFA8EFE 		uxtb	lr, lr
 2185 02aa 87F807E0 		strb	lr, [r7, #7]
 145:HigherLevelApps/HigherLevelApps.c/User_Interface.c **** 	TextSystem.Graph->graphic_name[0] = 'S';
 2186              		.loc 1 145 2 is_stmt 1 view .LVU667
 2187 02ae A6F11C0C 		sub	ip, r6, #28
ARM GAS  C:\Users\purdu\AppData\Local\Temp\ccP1UZx1.s 			page 57


 2188 02b2 BCE80F00 		ldmia	ip!, {r0, r1, r2, r3}
 2189 02b6 C4F84E00 		str	r0, [r4, #78]	@ unaligned
 2190 02ba C4F85210 		str	r1, [r4, #82]	@ unaligned
 2191 02be C4F85620 		str	r2, [r4, #86]	@ unaligned
 2192 02c2 C4F85A30 		str	r3, [r4, #90]	@ unaligned
 2193 02c6 BCE80700 		ldmia	ip!, {r0, r1, r2}
 2194 02ca C4F85E00 		str	r0, [r4, #94]	@ unaligned
 2195 02ce C4F86210 		str	r1, [r4, #98]	@ unaligned
 2196 02d2 C4F86620 		str	r2, [r4, #102]	@ unaligned
 2197 02d6 3388     		ldrh	r3, [r6]	@ unaligned
 2198 02d8 A4F86A30 		strh	r3, [r4, #106]	@ unaligned
 146:HigherLevelApps/HigherLevelApps.c/User_Interface.c **** 	TextSystem.Graph->graphic_name[1] = 't';
 2199              		.loc 1 146 2 view .LVU668
 146:HigherLevelApps/HigherLevelApps.c/User_Interface.c **** 	TextSystem.Graph->graphic_name[1] = 't';
 2200              		.loc 1 146 36 is_stmt 0 view .LVU669
 2201 02dc 5323     		movs	r3, #83
 2202 02de 84F83F30 		strb	r3, [r4, #63]
 147:HigherLevelApps/HigherLevelApps.c/User_Interface.c **** 	TextSystem.Graph->graphic_name[2] = 'a';
 2203              		.loc 1 147 2 is_stmt 1 view .LVU670
 147:HigherLevelApps/HigherLevelApps.c/User_Interface.c **** 	TextSystem.Graph->graphic_name[2] = 'a';
 2204              		.loc 1 147 36 is_stmt 0 view .LVU671
 2205 02e2 84F840B0 		strb	fp, [r4, #64]
 148:HigherLevelApps/HigherLevelApps.c/User_Interface.c **** 	TextSystem.Graph->end_angle = 5;	    //Length of Char
 2206              		.loc 1 148 2 is_stmt 1 view .LVU672
 148:HigherLevelApps/HigherLevelApps.c/User_Interface.c **** 	TextSystem.Graph->end_angle = 5;	    //Length of Char
 2207              		.loc 1 148 36 is_stmt 0 view .LVU673
 2208 02e6 84F841A0 		strb	r10, [r4, #65]
 149:HigherLevelApps/HigherLevelApps.c/User_Interface.c **** 	memcpy(TextSystem.Text, "State", 5);
 2209              		.loc 1 149 2 is_stmt 1 view .LVU674
 149:HigherLevelApps/HigherLevelApps.c/User_Interface.c **** 	memcpy(TextSystem.Text, "State", 5);
 2210              		.loc 1 149 30 is_stmt 0 view .LVU675
 2211 02ea B4F84430 		ldrh	r3, [r4, #68]
 2212 02ee 0522     		movs	r2, #5
 2213 02f0 62F3CF13 		bfi	r3, r2, #7, #9
 2214 02f4 A4F84430 		strh	r3, [r4, #68]	@ movhi
 150:HigherLevelApps/HigherLevelApps.c/User_Interface.c **** 	TextSystem.Graph->start_x = UI.Text_Location.Text_3_X * CMToPixel;
 2215              		.loc 1 150 2 is_stmt 1 view .LVU676
 2216 02f8 2C4B     		ldr	r3, .L48+24
 2217 02fa 1868     		ldr	r0, [r3]
 2218 02fc C4F84E00 		str	r0, [r4, #78]	@ unaligned
 2219 0300 1B79     		ldrb	r3, [r3, #4]	@ zero_extendqisi2
 2220 0302 84F85230 		strb	r3, [r4, #82]
 151:HigherLevelApps/HigherLevelApps.c/User_Interface.c **** 	TextSystem.Graph->start_y = UI.Text_Location.Text_3_Y * CMToPixel;
 2221              		.loc 1 151 2 view .LVU677
 151:HigherLevelApps/HigherLevelApps.c/User_Interface.c **** 	TextSystem.Graph->start_y = UI.Text_Location.Text_3_Y * CMToPixel;
 2222              		.loc 1 151 46 is_stmt 0 view .LVU678
 2223 0306 D7ED067A 		vldr.32	s15, [r7, #24]
 151:HigherLevelApps/HigherLevelApps.c/User_Interface.c **** 	TextSystem.Graph->start_y = UI.Text_Location.Text_3_Y * CMToPixel;
 2224              		.loc 1 151 56 view .LVU679
 2225 030a 67EE887A 		vmul.f32	s15, s15, s16
 151:HigherLevelApps/HigherLevelApps.c/User_Interface.c **** 	TextSystem.Graph->start_y = UI.Text_Location.Text_3_Y * CMToPixel;
 2226              		.loc 1 151 28 view .LVU680
 2227 030e FCEEE77A 		vcvt.u32.f32	s15, s15
 2228 0312 17EE903A 		vmov	r3, s15	@ int
 2229 0316 03F03F01 		and	r1, r3, #63
 2230 031a 94F84720 		ldrb	r2, [r4, #71]	@ zero_extendqisi2
 2231 031e 02F00302 		and	r2, r2, #3
ARM GAS  C:\Users\purdu\AppData\Local\Temp\ccP1UZx1.s 			page 58


 2232 0322 42EA8102 		orr	r2, r2, r1, lsl #2
 2233 0326 84F84720 		strb	r2, [r4, #71]
 2234 032a C3F38413 		ubfx	r3, r3, #6, #5
 2235 032e 94F84820 		ldrb	r2, [r4, #72]	@ zero_extendqisi2
 2236 0332 22F01F02 		bic	r2, r2, #31
 2237 0336 1343     		orrs	r3, r3, r2
 2238 0338 84F84830 		strb	r3, [r4, #72]
 152:HigherLevelApps/HigherLevelApps.c/User_Interface.c **** 	TextSystem.PacketNumber = UI.Global_PacketNumber;
 2239              		.loc 1 152 2 is_stmt 1 view .LVU681
 152:HigherLevelApps/HigherLevelApps.c/User_Interface.c **** 	TextSystem.PacketNumber = UI.Global_PacketNumber;
 2240              		.loc 1 152 46 is_stmt 0 view .LVU682
 2241 033c D7ED077A 		vldr.32	s15, [r7, #28]
 152:HigherLevelApps/HigherLevelApps.c/User_Interface.c **** 	TextSystem.PacketNumber = UI.Global_PacketNumber;
 2242              		.loc 1 152 56 view .LVU683
 2243 0340 67EE887A 		vmul.f32	s15, s15, s16
 152:HigherLevelApps/HigherLevelApps.c/User_Interface.c **** 	TextSystem.PacketNumber = UI.Global_PacketNumber;
 2244              		.loc 1 152 28 view .LVU684
 2245 0344 FCEEE77A 		vcvt.u32.f32	s15, s15
 2246 0348 B4F84830 		ldrh	r3, [r4, #72]
 2247 034c 17EE902A 		vmov	r2, s15	@ int
 2248 0350 62F34F13 		bfi	r3, r2, #5, #11
 2249 0354 A4F84830 		strh	r3, [r4, #72]	@ movhi
 153:HigherLevelApps/HigherLevelApps.c/User_Interface.c **** 	UI_Add_Frame_And_Data_Header_Character(&TextSystem);
 2250              		.loc 1 153 2 is_stmt 1 view .LVU685
 153:HigherLevelApps/HigherLevelApps.c/User_Interface.c **** 	UI_Add_Frame_And_Data_Header_Character(&TextSystem);
 2251              		.loc 1 153 26 is_stmt 0 view .LVU686
 2252 0358 84F83EE0 		strb	lr, [r4, #62]
 154:HigherLevelApps/HigherLevelApps.c/User_Interface.c **** 	UI_Add_Character(&TextSystem, 30);
 2253              		.loc 1 154 2 is_stmt 1 view .LVU687
 2254 035c 2046     		mov	r0, r4
 2255 035e FFF7FEFF 		bl	UI_Add_Frame_And_Data_Header_Character
 2256              	.LVL103:
 155:HigherLevelApps/HigherLevelApps.c/User_Interface.c ****   UI_Add_Frame_Tail_Character(&TextSystem);
 2257              		.loc 1 155 2 view .LVU688
 2258 0362 1E21     		movs	r1, #30
 2259 0364 2046     		mov	r0, r4
 2260 0366 FFF7FEFF 		bl	UI_Add_Character
 2261              	.LVL104:
 156:HigherLevelApps/HigherLevelApps.c/User_Interface.c **** 	osDelay(100);
 2262              		.loc 1 156 3 view .LVU689
 2263 036a 2046     		mov	r0, r4
 2264 036c FFF7FEFF 		bl	UI_Add_Frame_Tail_Character
 2265              	.LVL105:
 157:HigherLevelApps/HigherLevelApps.c/User_Interface.c **** 	HAL_UART_Transmit(UART, TextSystem.dataBuffer, sizeof(TextSystem.dataBuffer), 500);
 2266              		.loc 1 157 2 view .LVU690
 2267 0370 6420     		movs	r0, #100
 2268 0372 FFF7FEFF 		bl	osDelay
 2269              	.LVL106:
 158:HigherLevelApps/HigherLevelApps.c/User_Interface.c **** 	UI.Global_PacketNumber++;
 2270              		.loc 1 158 2 view .LVU691
 2271 0376 4FF4FA73 		mov	r3, #500
 2272 037a 4246     		mov	r2, r8
 2273 037c 2146     		mov	r1, r4
 2274 037e 4846     		mov	r0, r9
 2275 0380 FFF7FEFF 		bl	HAL_UART_Transmit
 2276              	.LVL107:
 159:HigherLevelApps/HigherLevelApps.c/User_Interface.c **** }
ARM GAS  C:\Users\purdu\AppData\Local\Temp\ccP1UZx1.s 			page 59


 2277              		.loc 1 159 2 view .LVU692
 159:HigherLevelApps/HigherLevelApps.c/User_Interface.c **** }
 2278              		.loc 1 159 4 is_stmt 0 view .LVU693
 2279 0384 FB79     		ldrb	r3, [r7, #7]	@ zero_extendqisi2
 159:HigherLevelApps/HigherLevelApps.c/User_Interface.c **** }
 2280              		.loc 1 159 24 view .LVU694
 2281 0386 0133     		adds	r3, r3, #1
 2282 0388 FB71     		strb	r3, [r7, #7]
 160:HigherLevelApps/HigherLevelApps.c/User_Interface.c **** 
 2283              		.loc 1 160 1 view .LVU695
 2284 038a BDEC028B 		vldm	sp!, {d8}
 2285              	.LCFI12:
 2286              		.cfi_restore 80
 2287              		.cfi_restore 81
 2288              		.cfi_def_cfa_offset 40
 2289 038e BDE8F88F 		pop	{r3, r4, r5, r6, r7, r8, r9, r10, fp, pc}
 2290              	.L49:
 2291 0392 00BF     		.align	2
 2292              	.L48:
 2293 0394 00000000 		.word	TextSystem
 2294 0398 00000000 		.word	TextInit
 2295 039c 00000000 		.word	.LC0
 2296 03a0 00000000 		.word	UI
 2297 03a4 00006042 		.word	1113587712
 2298 03a8 04000000 		.word	.LC1
 2299 03ac 0C000000 		.word	.LC2
 2300 03b0 00000000 		.word	huart6
 2301              		.cfi_endproc
 2302              	.LFE142:
 2304              		.global	TextInit
 2305              		.section	.bss.TextInit,"aw",%nobits
 2306              		.align	2
 2309              	TextInit:
 2310 0000 00000000 		.space	30
 2310      00000000 
 2310      00000000 
 2310      00000000 
 2310      00000000 
 2311              		.global	UI
 2312              		.section	.bss.UI,"aw",%nobits
 2313              		.align	2
 2316              	UI:
 2317 0000 00000000 		.space	32
 2317      00000000 
 2317      00000000 
 2317      00000000 
 2317      00000000 
 2318              		.global	TextSystem
 2319              		.section	.bss.TextSystem,"aw",%nobits
 2320              		.align	2
 2323              	TextSystem:
 2324 0000 00000000 		.space	110
 2324      00000000 
 2324      00000000 
 2324      00000000 
 2324      00000000 
 2325              		.global	AimingSystem
ARM GAS  C:\Users\purdu\AppData\Local\Temp\ccP1UZx1.s 			page 60


 2326              		.section	.bss.AimingSystem,"aw",%nobits
 2327              		.align	2
 2330              	AimingSystem:
 2331 0000 00000000 		.space	48
 2331      00000000 
 2331      00000000 
 2331      00000000 
 2331      00000000 
 2332              		.text
 2333              	.Letext0:
 2334              		.file 2 "c:\\msys64\\mingw64\\arm-none-eabi\\include\\machine\\_default_types.h"
 2335              		.file 3 "c:\\msys64\\mingw64\\arm-none-eabi\\include\\sys\\_stdint.h"
 2336              		.file 4 "c:\\msys64\\mingw64\\lib\\gcc\\arm-none-eabi\\12.2.0\\include\\stddef.h"
 2337              		.file 5 "Drivers/CMSIS/Device/ST/STM32F4xx/Include/stm32f427xx.h"
 2338              		.file 6 "Drivers/STM32F4xx_HAL_Driver/Inc/stm32f4xx_hal_def.h"
 2339              		.file 7 "Drivers/STM32F4xx_HAL_Driver/Inc/stm32f4xx_hal_dma.h"
 2340              		.file 8 "Drivers/STM32F4xx_HAL_Driver/Inc/stm32f4xx_hal_uart.h"
 2341              		.file 9 "BSP/BSP.h/CRC_Verification.h"
 2342              		.file 10 "Core/Inc/usart.h"
 2343              		.file 11 "Middlewares/Third_Party/FreeRTOS/Source/CMSIS_RTOS/cmsis_os.h"
 2344              		.file 12 "HigherLevelApps/HigherLevelApps.h/User_Interface.h"
 2345              		.file 13 "c:\\msys64\\mingw64\\arm-none-eabi\\include\\string.h"
 2346              		.file 14 "<built-in>"
ARM GAS  C:\Users\purdu\AppData\Local\Temp\ccP1UZx1.s 			page 61

